# file opened: main.asm
    1 0000                  org 0x9800
    2 9800
    3 9800
    4 9800                  DEVICE ZXSPECTRUM48
    5 9800
    6 9800
    7 9800              program_start:
    8 9800 CD AF 0D         call 0xDAF
    9 9803 3E 01            ld a,GAME_BORDER_COLOUR
   10 9805 CD 9B 22         call 0x229B
   11 9808              begin_game:
   12 9808
   13 9808 C3 0B 98         jp main
   14 980B
   15 980B
   16 980B
   17 980B              main:
   18 980B CD 14 98         call main_update
   19 980E CD 18 98         call main_draw
   20 9811 C3 0B 98         jp main
   21 9814
   22 9814
   23 9814
   24 9814              main_update:
   25 9814 CD 83 E8         call player_update
   26 9817 C9               ret
   27 9818
   28 9818
   29 9818
   30 9818              main_draw:
   31 9818 CD A5 9B         call cleargamewindow
   32 981B CD E9 E8         call player_draw
   33 981E CD B7 9B         call drawgamewindow
   34 9821
   35 9821 C9               ret
   36 9822
   37 9822
   38 9822
   39 9822
   40 9822                  include 'retrohelpers\bazinga.asm'
# file opened: retrohelpers/bazinga.asm
    1+9822              ; ;;;;;;;;;;;;;;;;;;;;;;;;;;;;;;;;;;;;;;;;;;;;;;;;;;;
    2+9822              ; ;	Name:		GetPixelAddr
    3+9822              ; ;
    4+9822              ; ;	Desc:		Get screen pixel from x, y
    5+9822              ; ;				x = 0 to 255; y = 0 to 191
    6+9822              ; ;
    7+9822              ; ;	Input:		DE = y, x coords in pixels (d=y)
    8+9822              ; ;
    9+9822              ; ;	Output: 	HL = Screen address
   10+9822              ; ;				A  = Pixel position
   11+9822              ; ;
   12+9822              ; ;	Clobbers: 	A
   13+9822              ; ;;;;;;;;;;;;;;;;;;;;;;;;;;;;;;;;;;;;;;;;;;;;;;;;;;;
   14+9822              ; GetPixelAddr:
   15+9822              ; 	ld		a, e			; use copy of x coord
   16+9822              ; 	rrca					; divide by 8
   17+9822              ; 	rrca
   18+9822              ; 	rrca
   19+9822              ; 	and		31				; mask rotated in bits
   20+9822              ; 	ld		h, a			; store in h
   21+9822
   22+9822              ; 	ld 		a, d			; get y
   23+9822              ; 	rla						; rotate y3 to y5 into position
   24+9822              ; 	rla
   25+9822              ; 	and 	224				; and isolate
   26+9822              ; 	or 		h				; merge x (copy)
   27+9822              ; 	ld 		l, a			; store in l
   28+9822
   29+9822              ; 	ld 		a, d			; get y
   30+9822              ; 	rra						; rotate y7 and y6 into position-1
   31+9822              ; 	rra
   32+9822              ; 	or 		128				; bring in high bit
   33+9822              ; 	rra						; rotate y7 and y6 into position
   34+9822              ; 	xor 	d				; merge lower 3 bits of y for y0 to y2
   35+9822              ; 	and 	248
   36+9822              ; 	xor 	d
   37+9822              ; 	ld 		h, a			; store in h
   38+9822
   39+9822              ; 	ld		a, e			; get pixel position
   40+9822              ; 	and		7
   41+9822
   42+9822              ; 	ret
   43+9822
   44+9822
   45+9822              ; ;;;;;;;;;;;;;;;;;;;;;;;;;;;;;;;;;;;;;;;;;;;;;;;;;;;
   46+9822              ; ;	Name:		GetScreenAddr
   47+9822              ; ;
   48+9822              ; ;	Desc:		Get screen byte from x, y
   49+9822              ; ;				x = 0 to 31; y = 0 to 191
   50+9822              ; ;
   51+9822              ; ;	Input:		DE = y, x coords in pixels (d=y)
   52+9822              ; ;
   53+9822              ; ;	Output: 	HL = Screen address
   54+9822              ; ;
   55+9822              ; ;	Clobbers: 	A
   56+9822              ; ;;;;;;;;;;;;;;;;;;;;;;;;;;;;;;;;;;;;;;;;;;;;;;;;;;;
   57+9822              ; GetScreenAddr:
   58+9822              ; 	ld 		a, d			; get y
   59+9822              ; 	rla						; rotate y3 to y5 into position
   60+9822              ; 	rla
   61+9822              ; 	and 	224				; and isolate
   62+9822              ; 	or 		e				; merge x
   63+9822              ; 	ld 		l, a			; store in l
   64+9822
   65+9822              ; 	ld 		a, d			; get y
   66+9822              ; 	rra						; rotate y7 and y6 into position-1
   67+9822              ; 	rra
   68+9822              ; 	or 		128				; bring in high bit
   69+9822              ; 	rra						; rotate y7 and y6 into position
   70+9822              ; 	xor 	d				; merge lower 3 bits of y for y0 to y2
   71+9822              ; 	and 	248
   72+9822              ; 	xor 	d
   73+9822              ; 	ld 		h, a			; store in h
   74+9822
   75+9822              ; 	ret
   76+9822
   77+9822
   78+9822              ; ;;;;;;;;;;;;;;;;;;;;;;;;;;;;;;;;;;;;;;;;;;;;;;;;;;;
   79+9822              ; ;	Name:		IncY
   80+9822              ; ;
   81+9822              ; ;	Desc:		Get next screen y down
   82+9822              ; ;
   83+9822              ; ;	Input:		HL = Current screen address
   84+9822              ; ;
   85+9822              ; ;	Output: 	HL = Next y line down
   86+9822              ; ;
   87+9822              ; ;	Clobbers: 	A
   88+9822              ; ;;;;;;;;;;;;;;;;;;;;;;;;;;;;;;;;;;;;;;;;;;;;;;;;;;;
   89+9822              ; IncY:
   90+9822              ; 	inc 	h				; move down 1 line
   91+9822              ; 	ld 		a, h
   92+9822              ; 	and 	7				; test if still in char block
   93+9822              ; 	ret 	nz				; just return if so
   94+9822
   95+9822              ; 	ld 		a, l			; if not...
   96+9822              ; 	add		a, 32			; get next char block
   97+9822              ; 	ld 		l, a
   98+9822              ; 	ret 	c				; return if in new third
   99+9822
  100+9822              ; 	ld 		a, h			; if not....
  101+9822              ; 	sub		8				; go back a third
  102+9822              ; 	ld 		h, a
  103+9822
  104+9822              ; 	ret
  105+9822
  106+9822
  107+9822              ; ;;;;;;;;;;;;;;;;;;;;;;;;;;;;;;;;;;;;;;;;;;;;;;;;;;;
  108+9822              ; ;	Name:		DecY
  109+9822              ; ;
  110+9822              ; ;	Desc:		Get next screen y up
  111+9822              ; ;
  112+9822              ; ;	Input:		HL = Current screen address
  113+9822              ; ;
  114+9822              ; ;	Output: 	HL = Next y line up
  115+9822              ; ;
  116+9822              ; ;	Clobbers: 	A
  117+9822              ; ;;;;;;;;;;;;;;;;;;;;;;;;;;;;;;;;;;;;;;;;;;;;;;;;;;;
  118+9822              ; DecY:
  119+9822              ; 	dec 	h				; move up 1 line
  120+9822              ; 	ld 		a, h
  121+9822              ; 	and 	7				; isolate 0 - 7
  122+9822              ; 	cp		7				; are we at end of a char?
  123+9822              ; 	ret 	nz				; return if not
  124+9822
  125+9822              ; 	ld 		a, l			; if so...
  126+9822              ; 	sub 	32				; get next char block
  127+9822              ; 	ld 		l, a
  128+9822              ; 	ret 	c				; return if in new third
  129+9822
  130+9822              ; 	ld 		a, h			; if not...
  131+9822              ; 	add		a, 8			; go back a third
  132+9822              ; 	ld 		h, a
  133+9822
  134+9822              ; 	ret
  135+9822
  136+9822
  137+9822              ;;;;;;;;;;;;;;;;;;;;;;;;;;;;;;;;;;;;;;;;;;;;;;;;;;;
  138+9822              ;	Name:		GetCharAddr
  139+9822              ;
  140+9822              ;	Desc:		Get char block address from x, y
  141+9822              ;				x = 0 to 31; y = 0 to 24
  142+9822              ;
  143+9822              ;	Input:		DE = y, x coords in chars (d=y)
  144+9822              ;
  145+9822              ;	Output: 	HL = Char address
  146+9822              ;
  147+9822              ;	Clobbers: 	A
  148+9822              ;;;;;;;;;;;;;;;;;;;;;;;;;;;;;;;;;;;;;;;;;;;;;;;;;;;
  149+9822              GetCharAddr:
  150+9822 7A           	ld 		a, d			; get y
  151+9823 0F           	rrca					; rotate y3 - y5 into pos
  152+9824 0F           	rrca
  153+9825 0F           	rrca
  154+9826 E6 E0        	and 	224				; isolate
  155+9828 B3           	or 		e				; merge x
  156+9829 6F           	ld 		l, a			; and store
  157+982A
  158+982A 7A           	ld 		a, d			; get y
  159+982B E6 F8        	and		248				; isolate y6 and y7
  160+982D F6 40        	or		64				; bring in screen high bit
  161+982F 67           	ld		h, a			; and store
  162+9830
  163+9830 C9           	ret
  164+9831
  165+9831
  166+9831              ; ;;;;;;;;;;;;;;;;;;;;;;;;;;;;;;;;;;;;;;;;;;;;;;;;;;;
  167+9831              ; ;	Name:		GetAttrAddr
  168+9831              ; ;
  169+9831              ; ;	Desc:		Get attr byte from screen addr
  170+9831              ; ;
  171+9831              ; ;	Input:		HL = Screen byte address
  172+9831              ; ;
  173+9831              ; ;	Output: 	HL = Attr address
  174+9831              ; ;
  175+9831              ; ;	Clobbers: 	A
  176+9831              ; ;;;;;;;;;;;;;;;;;;;;;;;;;;;;;;;;;;;;;;;;;;;;;;;;;;;
  177+9831              ; GetAttrAddr:
  178+9831              ; 	ld		a, h			; get high byte of screen addr
  179+9831              ; 	rra						; rotate bits 3 and 4 of screen addr
  180+9831              ; 	rra						; (screen third bits)
  181+9831              ; 	rra						; into first 2 bits of h
  182+9831              ; 	and		3				; and isolate them
  183+9831              ; 	or		$58				; set attr start
  184+9831              ; 	ld		h, a			; store attr address
  185+9831
  186+9831              ; 	ret
  187+9831
  188+9831
  189+9831              ; ;;;;;;;;;;;;;;;;;;;;;;;;;;;;;;;;;;;;;;;;;;;;;;;;;;;
  190+9831              ; ;	Name:		GetAttrXY
  191+9831              ; ;
  192+9831              ; ;	Desc:		Get attr byte from x, y
  193+9831              ; ;				x = 0 to 31; y = 0 to 24
  194+9831              ; ;
  195+9831              ; ;	Input:		DE = y, x coords in chars (d=y)
  196+9831              ; ;
  197+9831              ; ;	Output: 	HL = Attr address
  198+9831              ; ;
  199+9831              ; ;	Clobbers: 	A
  200+9831              ; ;;;;;;;;;;;;;;;;;;;;;;;;;;;;;;;;;;;;;;;;;;;;;;;;;;;
  201+9831              ; GetAttrXY:
  202+9831              ; 	ld	h, AttrTbl / 256
  203+9831              ; 	ld	a, d
  204+9831              ; 	add a, a
  205+9831              ; 	ld	l, a
  206+9831              ; 	ld	a, (hl)
  207+9831              ; 	inc l
  208+9831              ; 	ld	h, (hl)
  209+9831              ; 	or	e
  210+9831              ; 	ld	l, a
  211+9831
  212+9831              ; 	ret
  213+9831
  214+9831              ; org ($ + 255) / 256 * 256	; align to 256 bytes
  215+9831
  216+9831              ; AttrTbl:
  217+9831              ; 	DUP 24, y
  218+9831              ; 		dw	0x5800+32*y
  219+9831              ; 	EDUP
  220+9831
  221+9831
  222+9831              ; GetAttrXY:
  223+9831              	; ld		a, d			;	4
  224+9831              	; rrca					;	4
  225+9831              	; rrca					;	4
  226+9831              	; rrca					;	4
  227+9831              	; ld		h, a			;	4
  228+9831
  229+9831              	; and		224				;	7
  230+9831              	; or		e				;	4
  231+9831              	; ld		l, a			;	4
  232+9831
  233+9831              	; ld		a, h			;	4
  234+9831              	; and		3				;	7
  235+9831              	; or		$58				;	7
  236+9831              	; ld		h, a			;	4
  237+9831
  238+9831              	; ret
  239+9831
  240+9831
  241+9831              ;;;;;;;;;;;;;;;;;;;;;;;;;;;;;;;;;;;;;;;;;;;;;;;;;;;
  242+9831              ;	Name:		PrintChar
  243+9831              ;
  244+9831              ;	Desc:		Print single char
  245+9831              ;
  246+9831              ;	Input:		A = Char to print
  247+9831              ;				HL = Screen address
  248+9831              ;				BC = Charset address
  249+9831              ;
  250+9831              ;	Output: 	HL = Next screen byte
  251+9831              ;
  252+9831              ;	Clobbers: 	A, DE
  253+9831              ;;;;;;;;;;;;;;;;;;;;;;;;;;;;;;;;;;;;;;;;;;;;;;;;;;;
  254+9831              PrintChar:
  255+9831 D6 20        	sub		32			; get char pos (space is 0)
  256+9833
  257+9833 EB           	ex		de, hl		; store hl in de
  258+9834
  259+9834 26 00        	ld		h, 0		; calc offset
  260+9836 6F           	ld		l, a
  261+9837 29           	add		hl, hl		; * 8
  262+9838 29           	add		hl, hl
  263+9839 29           	add		hl, hl
  264+983A
  265+983A 09           	add		hl, bc		; add offset into charset
  266+983B
  267+983B D5           	push	de			; save screen address
  268+983C
  269+983C              	DUP 7
  270+983C 7E          >	ld		a, (hl)		; get char byte
  271+983D 12          >	ld		(de), a		; store on screen
  272+983E 14          >	inc		d			; next screen line
  273+983F 23          >	inc		hl			; next char byte
  270+9840 7E          >	ld		a, (hl)		; get char byte
  271+9841 12          >	ld		(de), a		; store on screen
  272+9842 14          >	inc		d			; next screen line
  273+9843 23          >	inc		hl			; next char byte
  270+9844 7E          >	ld		a, (hl)		; get char byte
  271+9845 12          >	ld		(de), a		; store on screen
  272+9846 14          >	inc		d			; next screen line
  273+9847 23          >	inc		hl			; next char byte
  270+9848 7E          >	ld		a, (hl)		; get char byte
  271+9849 12          >	ld		(de), a		; store on screen
  272+984A 14          >	inc		d			; next screen line
  273+984B 23          >	inc		hl			; next char byte
  270+984C 7E          >	ld		a, (hl)		; get char byte
  271+984D 12          >	ld		(de), a		; store on screen
  272+984E 14          >	inc		d			; next screen line
  273+984F 23          >	inc		hl			; next char byte
  270+9850 7E          >	ld		a, (hl)		; get char byte
  271+9851 12          >	ld		(de), a		; store on screen
  272+9852 14          >	inc		d			; next screen line
  273+9853 23          >	inc		hl			; next char byte
  270+9854 7E          >	ld		a, (hl)		; get char byte
  271+9855 12          >	ld		(de), a		; store on screen
  272+9856 14          >	inc		d			; next screen line
  273+9857 23          >	inc		hl			; next char byte
  274+9858              	EDUP
  275+9858 7E           	ld		a, (hl)
  276+9859 12           	ld		(de), a
  277+985A
  278+985A E1           	pop		hl			; restore screen address
  279+985B 23           	inc		hl			; and move along 1
  280+985C
  281+985C C9           	ret
  282+985D
  283+985D
  284+985D              ;;;;;;;;;;;;;;;;;;;;;;;;;;;;;;;;;;;;;;;;;;;;;;;;;;;
  285+985D              ;	Name:		PrintStr
  286+985D              ;
  287+985D              ;	Desc:		Print zero terminated string
  288+985D              ;
  289+985D              ;	Input:		DE = Address of string
  290+985D              ;				HL = Screen address
  291+985D              ;				BC = Charset address
  292+985D              ;
  293+985D              ;	Output: 	NONE
  294+985D              ;
  295+985D              ;	Clobbers: 	A, HL, DE
  296+985D              ;;;;;;;;;;;;;;;;;;;;;;;;;;;;;;;;;;;;;;;;;;;;;;;;;;;
  297+985D              PrintStr:	MODULE bazproc
  298+985D              ;	LOCAL NotAt, loop
  299+985D
  300+985D EB           	ex		de, hl		; consistency with other routines
  301+985E
  302+985E              bazproc.loop:
  303+985E 7E           	ld		a, (hl)		; load char and test for 0
  304+985F B7           	or		a
  305+9860 C8           	ret		z			; return if finished
  306+9861
  307+9861 FE 16        	cp		22			; AT directive?
  308+9863 20 0C        	jr		nz, bazproc.NotAt	; print string if not
  309+9865
  310+9865 23           	inc		hl
  311+9866 56           	ld		d, (hl)		; otherwise load de with coords
  312+9867 23           	inc		hl
  313+9868 5E           	ld		e, (hl)
  314+9869 E5           	push	hl			; store char position
  315+986A
  316+986A CD 22 98     	call	GetCharAddr	; get char address
  317+986D EB           	ex		de, hl
  318+986E
  319+986E E1           	pop		hl			; restore char position
  320+986F 23           	inc		hl
  321+9870 7E           	ld		a, (hl)		; and get next char
  322+9871
  323+9871              bazproc.NotAt:
  324+9871 D6 20        	sub		32			; get char pos (space is 0)
  325+9873
  326+9873 E5           	push	hl			; save position in string
  327+9874
  328+9874 26 00        	ld		h, 0		; calc offset
  329+9876 6F           	ld		l, a
  330+9877 29           	add		hl, hl		; * 8
  331+9878 29           	add		hl, hl
  332+9879 29           	add		hl, hl
  333+987A
  334+987A 09           	add		hl, bc		; add offset into charset
  335+987B
  336+987B D5           	push	de			; save screen pos
  337+987C
  338+987C              	DUP 7
  339+987C 7E          >	ld		a, (hl)		; get char byte
  340+987D 12          >	ld		(de), a		; store on screen
  341+987E 14          >	inc		d			; next screen line
  342+987F 23          >	inc		hl			; next char byte
  339+9880 7E          >	ld		a, (hl)		; get char byte
  340+9881 12          >	ld		(de), a		; store on screen
  341+9882 14          >	inc		d			; next screen line
  342+9883 23          >	inc		hl			; next char byte
  339+9884 7E          >	ld		a, (hl)		; get char byte
  340+9885 12          >	ld		(de), a		; store on screen
  341+9886 14          >	inc		d			; next screen line
  342+9887 23          >	inc		hl			; next char byte
  339+9888 7E          >	ld		a, (hl)		; get char byte
  340+9889 12          >	ld		(de), a		; store on screen
  341+988A 14          >	inc		d			; next screen line
  342+988B 23          >	inc		hl			; next char byte
  339+988C 7E          >	ld		a, (hl)		; get char byte
  340+988D 12          >	ld		(de), a		; store on screen
  341+988E 14          >	inc		d			; next screen line
  342+988F 23          >	inc		hl			; next char byte
  339+9890 7E          >	ld		a, (hl)		; get char byte
  340+9891 12          >	ld		(de), a		; store on screen
  341+9892 14          >	inc		d			; next screen line
  342+9893 23          >	inc		hl			; next char byte
  339+9894 7E          >	ld		a, (hl)		; get char byte
  340+9895 12          >	ld		(de), a		; store on screen
  341+9896 14          >	inc		d			; next screen line
  342+9897 23          >	inc		hl			; next char byte
  343+9898              	EDUP
  344+9898 7E           	ld		a, (hl)
  345+9899 12           	ld		(de), a
  346+989A
  347+989A D1           	pop		de			; restore and inc screen pos
  348+989B 13           	inc		de
  349+989C
  350+989C E1           	pop		hl			; restore string pos and point to next char
  351+989D 23           	inc		hl
  352+989E
  353+989E 18 BE        	jr		bazproc.loop		; loop until done
  354+98A0
  355+98A0              	ENDMODULE
  356+98A0
  357+98A0
  358+98A0
  359+98A0
  360+98A0
  361+98A0
  362+98A0
  363+98A0
  364+98A0
  365+98A0
  366+98A0              rand:
  367+98A0 21 80 A2         ld        hl, 0xA280       ; yw -> zt
  368+98A3 11 DE C0         ld        de, 0xC0DE       ; xz -> yw
  369+98A6 22 A4 98         ld        (rand+4), hl      ; x = y,  z = w
  370+98A9
  371+98A9 7D               ld        a, l             ; w = w ^ ( w << 3 )
  372+98AA 87               add        a, a
  373+98AB 87               add        a, a
  374+98AC 87               add        a, a
  375+98AD AD               xor        l
  376+98AE 6F               ld        l, a
  377+98AF
  378+98AF 7A               ld        a, d             ; t = x ^ (x << 1)
  379+98B0 87               add        a, a
  380+98B1 AA               xor        d
  381+98B2 67               ld        h, a
  382+98B3 1F               rra                     ; t = t ^ (t >> 1) ^ w
  383+98B4 AC               xor        h
  384+98B5 AD               xor        l
  385+98B6
  386+98B6 63               ld        h, e             ; y = z
  387+98B7 6F               ld        l, a             ; w = t
  388+98B8 22 A1 98         ld        (rand+1), hl
  389+98BB
  390+98BB C9               ret
  391+98BC
# file closed: retrohelpers/bazinga.asm
   41 98BC                  include 'retrohelpers\colours.asm'
# file opened: retrohelpers/colours.asm
    1+98BC              GAME_BORDER_COLOUR equ 1
    2+98BC              ;Colours
    3+98BC              ;FBPPPIII
    4+98BC              COLOUR_BLACK equ 0  ;%000
    5+98BC              COLOUR_BLUE equ 1   ;%001
    6+98BC              COLOUR_RED equ 2    ;%010
    7+98BC              COLOUR_MAGENTA equ 3   ;%011
    8+98BC              COLOUR_GREEN equ 4  ;%100
    9+98BC              COLOUR_CYAN equ 5   ;%101
   10+98BC              COLOUR_YELLOW equ 6 ;%110
   11+98BC              COLOUR_WHITE equ 7  ;%111
   12+98BC
   13+98BC              ;ink only, use masking for paper bits
   14+98BC              BLACK_INK   equ %00000010
   15+98BC              BLUE_INK    equ %00000001
   16+98BC              YELLOW_INK  equ %00000110
   17+98BC
   18+98BC              ;paper only, use masking for ink bits
   19+98BC              BLACK_PAPER   equ %00000000
   20+98BC              BLUE_PAPER    equ %00001000
   21+98BC              YELLOW_PAPER  equ %00110000
   22+98BC
   23+98BC              ;Speccy mem address
   24+98BC              ATTRIBUTE_MEMORY_START equ 0x5800
   25+98BC              ATTRIBUTE_MEMORY_END_UB equ 0x5B
   26+98BC              ATTRIBUTE_MEMORY_LENGTH equ 0x300
   27+98BC
   28+98BC              ;HL=0x5800
   29+98BC              ;b=colour
   30+98BC              paint_base_attributes:
   31+98BC 7C               ld a,h
   32+98BD FE 5B            cp ATTRIBUTE_MEMORY_END_UB
   33+98BF C8               ret z
   34+98C0 70               ld (hl),b
   35+98C1 23               inc hl
   36+98C2 C3 BC 98         jp paint_base_attributes
   37+98C5              ;
   38+98C5
   39+98C5
   40+98C5
   41+98C5
   42+98C5
   43+98C5
   44+98C5
   45+98C5
   46+98C5
   47+98C5
   48+98C5
   49+98C5              ;DE=xy
   50+98C5              ;B=colour
   51+98C5              paint_sprite_1_1:
   52+98C5 7A               ld a,d
   53+98C6 FE 02            cp BUFFER_SIDE_EXTRA
   54+98C8 D8               ret c
   55+98C9 FE 18            cp BUFFER_WINDOW_WIDTH-4
   56+98CB D0               ret nc
   57+98CC 7B               ld a,e
   58+98CD FE B9            cp 192-7 ; GAME_WINDOW_HEIGHT-3-1
   59+98CF D0               ret nc
   60+98D0
   61+98D0 CB 3B            srl e
   62+98D2 CB 3B            srl e
   63+98D4 CB 3B            srl e
   64+98D6 21 00 00         ld hl,0
   65+98D9 6B               ld l,e
   66+98DA 29               add hl,hl ;x2
   67+98DB 29               add hl,hl ;x4
   68+98DC 29               add hl,hl
   69+98DD 29               add hl,hl
   70+98DE 29               add hl,hl ;x32
   71+98DF 7A               ld a,d
   72+98E0 D6 02            sub BUFFER_SIDE_EXTRA
   73+98E2 16 00            ld d,0
   74+98E4 5F               ld e,a
   75+98E5 19               add hl,de ;+=x
   76+98E6 11 00 58         ld de,ATTRIBUTE_MEMORY_START
   77+98E9 19               add hl,de ;sprite origin cell
   78+98EA
   79+98EA 7E               ld a,(hl)
   80+98EB E6 78            and %01111000
   81+98ED B0               or b
   82+98EE 77               ld (hl),a
   83+98EF
   84+98EF C9               ret
   85+98F0
   86+98F0
   87+98F0
   88+98F0
   89+98F0
   90+98F0              ;hl=attr address
   91+98F0              ;iyl=colour
   92+98F0              ;b=window width
   93+98F0              paint_line:
   94+98F0 FD 7D            ld a,iyl
   95+98F2 77               ld (hl),a
   96+98F3 23               inc hl
   97+98F4 13               inc de
   98+98F5 10 F9            djnz paint_line
   99+98F7 C9               ret
  100+98F8
  101+98F8
  102+98F8              ;HL=exact cell in attri mem
  103+98F8              ;B=ink
  104+98F8              do_paint:
  105+98F8 7A               ld a,d
  106+98F9 FE 02            cp BUFFER_SIDE_EXTRA
  107+98FB D8               ret c
  108+98FC
  109+98FC 7A               ld a,d
  110+98FD FE 1A            cp BUFFER_WINDOW_WIDTH-2
  111+98FF D0               ret nc
  112+9900
  113+9900 7C               ld a,h
  114+9901 FE 5B            cp 0x5B
  115+9903 D0               ret nc
  116+9904
  117+9904 7E               ld a,(hl)
  118+9905 E6 78            and %01111000
  119+9907 B0               or b
  120+9908 77               ld (hl),a
  121+9909
  122+9909 C9               ret
  123+990A
  124+990A
  125+990A
  126+990A
  127+990A
  128+990A
  129+990A
  130+990A
  131+990A              ;DE=xy
  132+990A              ;B=colour
  133+990A              paint_sprite_1_2:
  134+990A 7A               ld a,d
  135+990B FE 02            cp BUFFER_SIDE_EXTRA
  136+990D D8               ret c
  137+990E 7A               ld a,d
  138+990F FE 18            cp BUFFER_WINDOW_WIDTH-4
  139+9911 D0               ret nc
  140+9912 7B               ld a,e
  141+9913 FE B9            cp 192-7 ; GAME_WINDOW_HEIGHT-3-1
  142+9915 D0               ret nc
  143+9916 D5               push de
  144+9917 CB 3B            srl e
  145+9919 CB 3B            srl e
  146+991B CB 3B            srl e
  147+991D 21 00 00         ld hl,0
  148+9920 6B               ld l,e
  149+9921 29               add hl,hl ;x2
  150+9922 29               add hl,hl ;x4
  151+9923 29               add hl,hl
  152+9924 29               add hl,hl
  153+9925 29               add hl,hl ;x32
  154+9926 7A               ld a,d
  155+9927 D6 02            sub BUFFER_SIDE_EXTRA
  156+9929 16 00            ld d,0
  157+992B 5F               ld e,a
  158+992C 19               add hl,de ;+=x
  159+992D 11 00 58         ld de,ATTRIBUTE_MEMORY_START
  160+9930 19               add hl,de ;sprite origin cell
  161+9931
  162+9931 7E               ld a,(hl)
  163+9932 E6 78            and %01111000
  164+9934 B0               or b
  165+9935 77               ld (hl),a
  166+9936
  167+9936 11 20 00         ld de,32
  168+9939 19               add hl,de
  169+993A
  170+993A D1               pop de
  171+993B
  172+993B 7B               ld a,e
  173+993C FE B1            cp 192-15
  174+993E D0               ret nc
  175+993F
  176+993F 7E               ld a,(hl)
  177+9940 E6 78            and %01111000
  178+9942 B0               or b
  179+9943 77               ld (hl),a
  180+9944
  181+9944 C9               ret
  182+9945
  183+9945
  184+9945
  185+9945
  186+9945
  187+9945
  188+9945
  189+9945
  190+9945
  191+9945              ;origin addr=attrmem+(y*4)+x
  192+9945              ;DE=xy
  193+9945              ;B=ink only colour
  194+9945              paint_sprite_2_1:
  195+9945 7A               ld a,d
  196+9946 FE 02            cp BUFFER_SIDE_EXTRA
  197+9948 D8               ret c
  198+9949 7A               ld a,d
  199+994A FE 1A            cp BUFFER_WINDOW_WIDTH-2
  200+994C D0               ret nc
  201+994D F5               push af
  202+994E 7B               ld a,e
  203+994F FE C0            cp 192 ; GAME_WINDOW_HEIGHT-3-1
  204+9951 D0               ret nc
  205+9952
  206+9952 CB 3B            srl e
  207+9954 CB 3B            srl e
  208+9956 CB 3B            srl e
  209+9958 21 00 00         ld hl,0
  210+995B 6B               ld l,e
  211+995C 29               add hl,hl ;x2
  212+995D 29               add hl,hl ;x4
  213+995E 29               add hl,hl
  214+995F 29               add hl,hl
  215+9960 29               add hl,hl ;x32
  216+9961 7A               ld a,d
  217+9962 D6 02            sub BUFFER_SIDE_EXTRA
  218+9964 16 00            ld d,0
  219+9966 5F               ld e,a
  220+9967 19               add hl,de ;+=x
  221+9968 11 00 58         ld de,ATTRIBUTE_MEMORY_START
  222+996B 19               add hl,de ;sprite origin cell
  223+996C
  224+996C 70               ld (hl),b
  225+996D
  226+996D F1               pop af
  227+996E FE 19            cp BUFFER_WINDOW_WIDTH-3
  228+9970 D0               ret nc
  229+9971
  230+9971 23               inc hl
  231+9972 70               ld (hl),b
  232+9973
  233+9973
  234+9973 C9               ret
  235+9974
  236+9974
  237+9974
  238+9974
  239+9974
  240+9974
  241+9974
  242+9974
  243+9974
  244+9974
  245+9974
  246+9974
  247+9974
  248+9974
  249+9974
  250+9974
  251+9974              ;origin addr=attrmem+(y*4)+x
  252+9974              ;DE=xy
  253+9974              ;B=ink only colour
  254+9974              paint_sprite_2_2:
  255+9974 7A               ld a,d
  256+9975 FE 02            cp BUFFER_SIDE_EXTRA
  257+9977 D8               ret c
  258+9978 7A               ld a,d
  259+9979 FE 1A            cp BUFFER_WINDOW_WIDTH-2
  260+997B D0               ret nc
  261+997C 7B               ld a,e
  262+997D FE C0            cp 192 ; GAME_WINDOW_HEIGHT-3-1
  263+997F D0               ret nc
  264+9980 D5               push de
  265+9981 CB 3B            srl e
  266+9983 CB 3B            srl e
  267+9985 CB 3B            srl e
  268+9987 21 00 00         ld hl,0
  269+998A 6B               ld l,e
  270+998B 29               add hl,hl ;x2
  271+998C 29               add hl,hl ;x4
  272+998D 29               add hl,hl
  273+998E 29               add hl,hl
  274+998F 29               add hl,hl ;x32
  275+9990 7A               ld a,d
  276+9991 D6 02            sub BUFFER_SIDE_EXTRA
  277+9993 16 00            ld d,0
  278+9995 5F               ld e,a
  279+9996 19               add hl,de ;+=x
  280+9997 11 00 58         ld de,ATTRIBUTE_MEMORY_START
  281+999A 19               add hl,de ;sprite origin cell
  282+999B
  283+999B D1               pop de
  284+999C
  285+999C 7B               ld a,e
  286+999D FE B9            cp 192-7
  287+999F D0               ret nc
  288+99A0
  289+99A0 CD F8 98         call do_paint
  290+99A3
  291+99A3 23               inc hl
  292+99A4
  293+99A4 CD F8 98         call do_paint
  294+99A7
  295+99A7 7B               ld a,e
  296+99A8 FE B9            cp 192-7
  297+99AA D0               ret nc
  298+99AB
  299+99AB D5               push de
  300+99AC
  301+99AC 11 1F 00         ld de,31
  302+99AF 19               add hl,de
  303+99B0
  304+99B0 D1               pop de
  305+99B1
  306+99B1 CD F8 98         call do_paint
  307+99B4
  308+99B4 23               inc hl
  309+99B5
  310+99B5 CD F8 98         call do_paint
  311+99B8
  312+99B8
  313+99B8 C9               ret
  314+99B9
  315+99B9
  316+99B9
  317+99B9
  318+99B9
  319+99B9
  320+99B9
  321+99B9
  322+99B9
  323+99B9
  324+99B9
  325+99B9
  326+99B9
  327+99B9
  328+99B9
  329+99B9
  330+99B9
  331+99B9
  332+99B9
  333+99B9
  334+99B9
  335+99B9
  336+99B9
  337+99B9
  338+99B9
  339+99B9
  340+99B9
  341+99B9              ;origin addr=attrmem+(y*4)+x
  342+99B9              ;DE=xy
  343+99B9              ;B=ink only colour
  344+99B9              paint_sprite_4_2:
  345+99B9
  346+99B9 21 00 00         ld hl,0
  347+99BC 6B               ld l,e
  348+99BD
  349+99BD D5               push de
  350+99BE
  351+99BE 29               add hl,hl ;x2
  352+99BF 29               add hl,hl ;x4
  353+99C0 7A               ld a,d
  354+99C1 D6 02            sub BUFFER_SIDE_EXTRA
  355+99C3 16 00            ld d,0
  356+99C5 5F               ld e,a
  357+99C6 19               add hl,de ;+=x
  358+99C7 11 00 58         ld de,ATTRIBUTE_MEMORY_START
  359+99CA 19               add hl,de ;sprite origin cell
  360+99CB
  361+99CB D1               pop de
  362+99CC
  363+99CC 7B               ld a,e
  364+99CD FE B9            cp 192-7
  365+99CF D0               ret nc
  366+99D0
  367+99D0
  368+99D0 CD F8 98         call do_paint
  369+99D3
  370+99D3 23               inc hl
  371+99D4
  372+99D4 CD F8 98         call do_paint
  373+99D7
  374+99D7 23               inc hl
  375+99D8
  376+99D8 CD F8 98         call do_paint
  377+99DB
  378+99DB 23               inc hl
  379+99DC
  380+99DC CD F8 98         call do_paint
  381+99DF
  382+99DF D5               push de
  383+99E0
  384+99E0 7B               ld a,e
  385+99E1 FE B1            cp 192-15
  386+99E3 D0               ret nc
  387+99E4
  388+99E4 11 1D 00         ld de,29
  389+99E7 19               add hl,de
  390+99E8
  391+99E8 D1               pop de
  392+99E9
  393+99E9 CD F8 98         call do_paint
  394+99EC
  395+99EC 23               inc hl
  396+99ED
  397+99ED CD F8 98         call do_paint
  398+99F0
  399+99F0 23               inc hl
  400+99F1
  401+99F1 CD F8 98         call do_paint
  402+99F4
  403+99F4 23               inc hl
  404+99F5
  405+99F5 CD F8 98         call do_paint
  406+99F8
  407+99F8 C9               ret
  408+99F9
  409+99F9
  410+99F9
  411+99F9
  412+99F9
  413+99F9
  414+99F9
  415+99F9
  416+99F9
  417+99F9
  418+99F9
  419+99F9
  420+99F9
  421+99F9
  422+99F9
  423+99F9
  424+99F9
  425+99F9
  426+99F9
  427+99F9              ;origin addr=attrmem+(y*4)+x
  428+99F9              ;DE=xy
  429+99F9              ;B=ink only colour
  430+99F9              paint_sprite_2_3:
  431+99F9 7A               ld a,d
  432+99FA FE 02            cp BUFFER_SIDE_EXTRA
  433+99FC D8               ret c
  434+99FD 7A               ld a,d
  435+99FE FE 19            cp BUFFER_WINDOW_WIDTH-3
  436+9A00 D0               ret nc
  437+9A01 7B               ld a,e
  438+9A02 FE A9            cp 192-23 ; GAME_WINDOW_HEIGHT-3-1
  439+9A04 D0               ret nc
  440+9A05 CB 3B            srl e
  441+9A07 CB 3B            srl e
  442+9A09 CB 3B            srl e ;/8
  443+9A0B 21 00 00         ld hl,0
  444+9A0E 6B               ld l,e
  445+9A0F 29               add hl,hl ;x2
  446+9A10 29               add hl,hl ;x4
  447+9A11 29               add hl,hl ;
  448+9A12 29               add hl,hl
  449+9A13 29               add hl,hl ;x32
  450+9A14 7A               ld a,d
  451+9A15 D6 02            sub BUFFER_SIDE_EXTRA
  452+9A17 16 00            ld d,0
  453+9A19 5F               ld e,a
  454+9A1A 19               add hl,de ;+=x
  455+9A1B 11 00 58         ld de,ATTRIBUTE_MEMORY_START
  456+9A1E 19               add hl,de ;sprite origin cell
  457+9A1F
  458+9A1F 7E               ld a,(hl)
  459+9A20 E6 78            and %01111000
  460+9A22 B0               or b
  461+9A23 77               ld (hl),a
  462+9A24 23               inc hl
  463+9A25 7E               ld a,(hl)
  464+9A26 E6 78            and %01111000
  465+9A28 B0               or b
  466+9A29 77               ld (hl),a
  467+9A2A 11 1F 00         ld de,31
  468+9A2D 19               add hl,de
  469+9A2E
  470+9A2E 7E               ld a,(hl)
  471+9A2F E6 78            and %01111000
  472+9A31 B0               or b
  473+9A32 77               ld (hl),a
  474+9A33 23               inc hl
  475+9A34 7E               ld a,(hl)
  476+9A35 E6 78            and %01111000
  477+9A37 B0               or b
  478+9A38 77               ld (hl),a
  479+9A39 11 1F 00         ld de,31
  480+9A3C 19               add hl,de
  481+9A3D
  482+9A3D 7E               ld a,(hl)
  483+9A3E E6 78            and %01111000
  484+9A40 B0               or b
  485+9A41 77               ld (hl),a
  486+9A42 23               inc hl
  487+9A43 7E               ld a,(hl)
  488+9A44 E6 78            and %01111000
  489+9A46 B0               or b
  490+9A47 77               ld (hl),a
  491+9A48
  492+9A48
  493+9A48 C9               ret
  494+9A49
  495+9A49
  496+9A49
  497+9A49
  498+9A49
  499+9A49
  500+9A49
  501+9A49
  502+9A49
  503+9A49
  504+9A49
  505+9A49
  506+9A49
  507+9A49
  508+9A49
  509+9A49
  510+9A49
  511+9A49
  512+9A49
  513+9A49
  514+9A49
  515+9A49
  516+9A49              ;origin addr=attrmem+(y*4)+x
  517+9A49              ;DE=xy
  518+9A49              ;B=ink only colour
  519+9A49              paint_sprite_2_4:
  520+9A49 7A               ld a,d
  521+9A4A FE 02            cp BUFFER_SIDE_EXTRA
  522+9A4C D8               ret c
  523+9A4D 7A               ld a,d
  524+9A4E FE 19            cp BUFFER_WINDOW_WIDTH-3
  525+9A50 D0               ret nc
  526+9A51 7B               ld a,e
  527+9A52 FE A9            cp 192-23 ; GAME_WINDOW_HEIGHT-3-1
  528+9A54 D0               ret nc
  529+9A55 CB 3B            srl e
  530+9A57 CB 3B            srl e
  531+9A59 CB 3B            srl e ;/8
  532+9A5B 21 00 00         ld hl,0
  533+9A5E 6B               ld l,e
  534+9A5F 29               add hl,hl ;x2
  535+9A60 29               add hl,hl ;x4
  536+9A61 29               add hl,hl ;
  537+9A62 29               add hl,hl
  538+9A63 29               add hl,hl ;x32
  539+9A64 7A               ld a,d
  540+9A65 D6 02            sub BUFFER_SIDE_EXTRA
  541+9A67 16 00            ld d,0
  542+9A69 5F               ld e,a
  543+9A6A 19               add hl,de ;+=x
  544+9A6B 11 00 58         ld de,ATTRIBUTE_MEMORY_START
  545+9A6E 19               add hl,de ;sprite origin cell
  546+9A6F
  547+9A6F 7E               ld a,(hl)
  548+9A70 E6 78            and %01111000
  549+9A72 B0               or b
  550+9A73 77               ld (hl),a
  551+9A74 23               inc hl
  552+9A75 7E               ld a,(hl)
  553+9A76 E6 78            and %01111000
  554+9A78 B0               or b
  555+9A79 77               ld (hl),a
  556+9A7A
  557+9A7A 11 1F 00         ld de,31
  558+9A7D 19               add hl,de
  559+9A7E 7C               ld a,h
  560+9A7F FE 5B            cp 0x5B
  561+9A81 D0               ret nc
  562+9A82
  563+9A82 7E               ld a,(hl)
  564+9A83 E6 78            and %01111000
  565+9A85 B0               or b
  566+9A86 77               ld (hl),a
  567+9A87 23               inc hl
  568+9A88 7E               ld a,(hl)
  569+9A89 E6 78            and %01111000
  570+9A8B B0               or b
  571+9A8C 77               ld (hl),a
  572+9A8D
  573+9A8D 11 1F 00         ld de,31
  574+9A90 19               add hl,de
  575+9A91 7C               ld a,h
  576+9A92 FE 5B            cp 0x5B
  577+9A94 D0               ret nc
  578+9A95
  579+9A95 7E               ld a,(hl)
  580+9A96 E6 78            and %01111000
  581+9A98 B0               or b
  582+9A99 77               ld (hl),a
  583+9A9A 23               inc hl
  584+9A9B 7E               ld a,(hl)
  585+9A9C E6 78            and %01111000
  586+9A9E B0               or b
  587+9A9F 77               ld (hl),a
  588+9AA0
  589+9AA0 11 1F 00         ld de,31
  590+9AA3 19               add hl,de
  591+9AA4 7C               ld a,h
  592+9AA5 FE 5B            cp 0x5B
  593+9AA7 D0               ret nc
  594+9AA8
  595+9AA8 7E               ld a,(hl)
  596+9AA9 E6 78            and %01111000
  597+9AAB B0               or b
  598+9AAC 77               ld (hl),a
  599+9AAD 23               inc hl
  600+9AAE 7E               ld a,(hl)
  601+9AAF E6 78            and %01111000
  602+9AB1 B0               or b
  603+9AB2 77               ld (hl),a
  604+9AB3
  605+9AB3
  606+9AB3 C9               ret
  607+9AB4
  608+9AB4
  609+9AB4
  610+9AB4
  611+9AB4
  612+9AB4
  613+9AB4
  614+9AB4
  615+9AB4
  616+9AB4
  617+9AB4
  618+9AB4
  619+9AB4
  620+9AB4
  621+9AB4
  622+9AB4
  623+9AB4
  624+9AB4
  625+9AB4              ;origin addr=attrmem+(y*4)+x
  626+9AB4              ;DE=xy
  627+9AB4              ;B=ink only colour
  628+9AB4              paint_sprite_2_5:
  629+9AB4 7A               ld a,d
  630+9AB5 FE 02            cp BUFFER_SIDE_EXTRA
  631+9AB7 D8               ret c
  632+9AB8 7A               ld a,d
  633+9AB9 FE 1A            cp BUFFER_WINDOW_WIDTH-2
  634+9ABB D0               ret nc
  635+9ABC D5               push de
  636+9ABD CB 3B            srl e
  637+9ABF CB 3B            srl e
  638+9AC1 CB 3B            srl e
  639+9AC3 21 00 00         ld hl,0
  640+9AC6 6B               ld l,e
  641+9AC7 29               add hl,hl ;x2
  642+9AC8 29               add hl,hl ;x4
  643+9AC9 29               add hl,hl
  644+9ACA 29               add hl,hl
  645+9ACB 29               add hl,hl ;x32
  646+9ACC 7A               ld a,d
  647+9ACD D6 02            sub BUFFER_SIDE_EXTRA
  648+9ACF 16 00            ld d,0
  649+9AD1 5F               ld e,a
  650+9AD2 19               add hl,de ;+=x
  651+9AD3 11 00 58         ld de,ATTRIBUTE_MEMORY_START
  652+9AD6 19               add hl,de ;sprite origin cell
  653+9AD7
  654+9AD7 D1               pop de
  655+9AD8
  656+9AD8 CD F8 98         call do_paint
  657+9ADB 23               inc hl
  658+9ADC CD F8 98         call do_paint
  659+9ADF
  660+9ADF D5               push de
  661+9AE0 11 1F 00         ld de,31
  662+9AE3 19               add hl,de
  663+9AE4 D1               pop de
  664+9AE5
  665+9AE5 CD F8 98         call do_paint
  666+9AE8 23               inc hl
  667+9AE9 CD F8 98         call do_paint
  668+9AEC
  669+9AEC D5               push de
  670+9AED 11 1F 00         ld de,31
  671+9AF0 19               add hl,de
  672+9AF1 D1               pop de
  673+9AF2
  674+9AF2 CD F8 98         call do_paint
  675+9AF5 23               inc hl
  676+9AF6 CD F8 98         call do_paint
  677+9AF9
  678+9AF9 D5               push de
  679+9AFA 11 1F 00         ld de,31
  680+9AFD 19               add hl,de
  681+9AFE D1               pop de
  682+9AFF
  683+9AFF CD F8 98         call do_paint
  684+9B02 23               inc hl
  685+9B03 CD F8 98         call do_paint
  686+9B06
  687+9B06 D5               push de
  688+9B07 11 1F 00         ld de,31
  689+9B0A 19               add hl,de
  690+9B0B D1               pop de
  691+9B0C
  692+9B0C CD F8 98         call do_paint
  693+9B0F 23               inc hl
  694+9B10 CD F8 98         call do_paint
  695+9B13
  696+9B13 C9               ret
  697+9B14
  698+9B14
  699+9B14
  700+9B14
  701+9B14
  702+9B14
  703+9B14
  704+9B14
  705+9B14
  706+9B14
  707+9B14
  708+9B14
  709+9B14
  710+9B14
  711+9B14
  712+9B14
  713+9B14
  714+9B14
  715+9B14
  716+9B14
  717+9B14
  718+9B14
  719+9B14
  720+9B14
  721+9B14
  722+9B14
  723+9B14
  724+9B14
  725+9B14
  726+9B14
  727+9B14
  728+9B14
  729+9B14
  730+9B14
  731+9B14
  732+9B14
  733+9B14
  734+9B14
  735+9B14
  736+9B14
  737+9B14
  738+9B14
  739+9B14
  740+9B14
  741+9B14              ;origin addr=attrmem+(y*4)+x
  742+9B14              ;DE=xy
  743+9B14              ;B=ink only colour
  744+9B14              paint_sprite_6_3:
  745+9B14 7A               ld a,d
  746+9B15 FE 02            cp BUFFER_SIDE_EXTRA
  747+9B17 D8               ret c
  748+9B18 7A               ld a,d
  749+9B19 FE 18            cp BUFFER_WINDOW_WIDTH-4
  750+9B1B D0               ret nc
  751+9B1C 7B               ld a,e
  752+9B1D FE A9            cp 192-23 ; GAME_WINDOW_HEIGHT-3-1
  753+9B1F D0               ret nc
  754+9B20 21 00 00         ld hl,0
  755+9B23 6B               ld l,e
  756+9B24
  757+9B24 29               add hl,hl ;x2
  758+9B25 29               add hl,hl ;x4
  759+9B26 7A               ld a,d
  760+9B27 D6 02            sub BUFFER_SIDE_EXTRA
  761+9B29 16 00            ld d,0
  762+9B2B 5F               ld e,a
  763+9B2C 19               add hl,de ;+=x
  764+9B2D 11 00 58         ld de,ATTRIBUTE_MEMORY_START
  765+9B30 19               add hl,de ;sprite origin cell
  766+9B31
  767+9B31 7E               ld a,(hl)
  768+9B32 E6 78            and %01111000
  769+9B34 B0               or b
  770+9B35 77               ld (hl),a
  771+9B36 23               inc hl
  772+9B37 7E               ld a,(hl)
  773+9B38 E6 78            and %01111000
  774+9B3A B0               or b
  775+9B3B 77               ld (hl),a
  776+9B3C 23               inc hl
  777+9B3D 7E               ld a,(hl)
  778+9B3E E6 78            and %01111000
  779+9B40 B0               or b
  780+9B41 77               ld (hl),a
  781+9B42 23               inc hl
  782+9B43 7E               ld a,(hl)
  783+9B44 E6 78            and %01111000
  784+9B46 B0               or b
  785+9B47 77               ld (hl),a
  786+9B48 23               inc hl
  787+9B49 7E               ld a,(hl)
  788+9B4A E6 78            and %01111000
  789+9B4C B0               or b
  790+9B4D 77               ld (hl),a
  791+9B4E 23               inc hl
  792+9B4F 7E               ld a,(hl)
  793+9B50 E6 78            and %01111000
  794+9B52 B0               or b
  795+9B53 77               ld (hl),a
  796+9B54 11 1B 00         ld de,27
  797+9B57 19               add hl,de
  798+9B58
  799+9B58 7E               ld a,(hl)
  800+9B59 E6 78            and %01111000
  801+9B5B B0               or b
  802+9B5C 77               ld (hl),a
  803+9B5D 23               inc hl
  804+9B5E 7E               ld a,(hl)
  805+9B5F E6 78            and %01111000
  806+9B61 B0               or b
  807+9B62 77               ld (hl),a
  808+9B63 23               inc hl
  809+9B64 7E               ld a,(hl)
  810+9B65 E6 78            and %01111000
  811+9B67 B0               or b
  812+9B68 77               ld (hl),a
  813+9B69 23               inc hl
  814+9B6A 7E               ld a,(hl)
  815+9B6B E6 78            and %01111000
  816+9B6D B0               or b
  817+9B6E 77               ld (hl),a
  818+9B6F 23               inc hl
  819+9B70 7E               ld a,(hl)
  820+9B71 E6 78            and %01111000
  821+9B73 B0               or b
  822+9B74 77               ld (hl),a
  823+9B75 23               inc hl
  824+9B76 7E               ld a,(hl)
  825+9B77 E6 78            and %01111000
  826+9B79 B0               or b
  827+9B7A 77               ld (hl),a
  828+9B7B 11 1B 00         ld de,27
  829+9B7E 19               add hl,de
  830+9B7F
  831+9B7F 7E               ld a,(hl)
  832+9B80 E6 78            and %01111000
  833+9B82 B0               or b
  834+9B83 77               ld (hl),a
  835+9B84 23               inc hl
  836+9B85 7E               ld a,(hl)
  837+9B86 E6 78            and %01111000
  838+9B88 B0               or b
  839+9B89 77               ld (hl),a
  840+9B8A 23               inc hl
  841+9B8B 7E               ld a,(hl)
  842+9B8C E6 78            and %01111000
  843+9B8E B0               or b
  844+9B8F 77               ld (hl),a
  845+9B90 23               inc hl
  846+9B91 7E               ld a,(hl)
  847+9B92 E6 78            and %01111000
  848+9B94 B0               or b
  849+9B95 77               ld (hl),a
  850+9B96 23               inc hl
  851+9B97 7E               ld a,(hl)
  852+9B98 E6 78            and %01111000
  853+9B9A B0               or b
  854+9B9B 77               ld (hl),a
  855+9B9C 23               inc hl
  856+9B9D 7E               ld a,(hl)
  857+9B9E E6 78            and %01111000
  858+9BA0 B0               or b
  859+9BA1 77               ld (hl),a
  860+9BA2
  861+9BA2 C9               ret
  862+9BA3
  863+9BA3
  864+9BA3
  865+9BA3
  866+9BA3
  867+9BA3
  868+9BA3
# file closed: retrohelpers/colours.asm
   42 9BA3                  include 'retrohelpers\constants.asm'
# file opened: retrohelpers/constants.asm
    1+9BA3              ;Character Set
    2+9BA3              ASCII_ZERO equ 0x30
    3+9BA3              ASCII_SPACE equ 0x20
    4+9BA3
    5+9BA3              ASCII_INK equ 0x10
    6+9BA3              ASCII_PAPER equ 0x11
    7+9BA3              ASCII_AT equ 0x16
    8+9BA3              ASCII_ERASE equ 0xd2
    9+9BA3
   10+9BA3              ;Handy Constants
   11+9BA3              PIXELS_PER_CELL equ 8
   12+9BA3              TRUE equ 1
   13+9BA3              FALSE equ 0
   14+9BA3              FIFTY50 equ 128
   15+9BA3
   16+9BA3              ;Game Window Boundaries
   17+9BA3              MIN_X equ 2
   18+9BA3              MAX_X equ 26-2
   19+9BA3              MIN_Y equ 4
   20+9BA3              MAX_Y equ 191-30
   21+9BA3
   22+9BA3              ;Directions
   23+9BA3              UP equ 0
   24+9BA3              DOWN equ 1
   25+9BA3              LEFT equ 2
   26+9BA3              RIGHT equ 3
   27+9BA3              DIAG_LEFT equ 4
   28+9BA3              DIAG_RIGHT equ 5
   29+9BA3
   30+9BA3
   31+9BA3
   32+9BA3
   33+9BA3
   34+9BA3              DEAD equ 0
   35+9BA3              ALIVE equ 1
   36+9BA3
   37+9BA3
   38+9BA3
   39+9BA3              TOP equ 0
   40+9BA3              BOTTOM equ 1
   41+9BA3
   42+9BA3
   43+9BA3
   44+9BA3
   45+9BA3
   46+9BA3
   47+9BA3
# file closed: retrohelpers/constants.asm
   43 9BA3                  include 'retrohelpers\doublebuffering.asm'
# file opened: retrohelpers/doublebuffering.asm
    1+9BA3              GAME_WINDOW_START equ 0x8000
    2+9BA3              GAME_WINDOW_LENGTH equ 0x1500
    3+9BA3              GAME_WINDOW_END_UB equ 0x95
    4+9BA3              GAME_WINDOW_WIDTH equ 24
    5+9BA3              GAME_WINDOW_HEIGHT equ 24
    6+9BA3
    7+9BA3              BUFFER_SIDE_EXTRA equ 2
    8+9BA3
    9+9BA3              BUFFER_WINDOW_WIDTH equ GAME_WINDOW_WIDTH+(BUFFER_SIDE_EXTRA*2)
   10+9BA3
   11+9BA3              BUFFER_MIDDLE equ BUFFER_WINDOW_WIDTH/2
   12+9BA3
   13+9BA3
   14+9BA3              BUFFER_CHUNK_LENGTH equ 12
   15+9BA3              SEG_SIZE equ 0x700
   16+9BA3
   17+9BA3              VMEM_SEG_0 equ 0x4000
   18+9BA3              VMEM_SEG_1 equ 0x4800
   19+9BA3              VMEM_SEG_2 equ 0x5000
   20+9BA3              SCREEN_WIDTH equ 32
   21+9BA3
   22+9BA3              VMEM_START equ 0x4000
   23+9BA3              VMEM_END_UB equ 0x58
   24+9BA3
   25+9BA3              ;line down offsets
   26+9BA3              L1 equ 0x100
   27+9BA3              L2 equ 0x200
   28+9BA3              L3 equ 0x300
   29+9BA3              L4 equ 0x400
   30+9BA3              L5 equ 0x500
   31+9BA3              L6 equ 0x600
   32+9BA3              L7 equ 0x700
   33+9BA3              ;char down offsets
   34+9BA3              C1 equ 0x20
   35+9BA3              C2 equ 0x40
   36+9BA3              C3 equ 0x60
   37+9BA3              C4 equ 0x80
   38+9BA3              C5 equ 0xA0
   39+9BA3              C6 equ 0xC0
   40+9BA3              C7 equ 0xE0
   41+9BA3
   42+9BA3 00 00        stack_ptr dw 0
   43+9BA5              cleargamewindow:
   44+9BA5 21 00 80         ld hl,GAME_WINDOW_START
   45+9BA8 CD AC 9B         call clr_window
   46+9BAB C9               ret
   47+9BAC
   48+9BAC
   49+9BAC
   50+9BAC
   51+9BAC
   52+9BAC              clr_window:
   53+9BAC 11 01 80         ld de,GAME_WINDOW_START + 1
   54+9BAF 01 00 15         ld bc,GAME_WINDOW_LENGTH
   55+9BB2 36 00            ld (hl),0
   56+9BB4 ED B0            ldir
   57+9BB6 C9               ret
   58+9BB7
   59+9BB7
   60+9BB7
   61+9BB7
   62+9BB7
   63+9BB7
   64+9BB7
   65+9BB7              ;written for window 24x24 cells.
   66+9BB7              ;each scanline is drawn in two 'chunks' starting at left of screen.
   67+9BB7              ;moves the 'game window' back buffer, into the 'screen memory' front buffer (ie. draws it on screen)
   68+9BB7              drawgamewindow:
   69+9BB7 F3               di
   70+9BB8 FD E5            push iy
   71+9BBA DD E5            push ix
   72+9BBC E5               push hl
   73+9BBD D5               push de
   74+9BBE C5               push bc
   75+9BBF F5               push af
   76+9BC0 ED 73 A3 9B      ld (stack_ptr),sp ;cache correct stack_ptr
   77+9BC4
   78+9BC4                  ;SEG0
   79+9BC4
   80+9BC4                  ;Char Row 0
   81+9BC4
   82+9BC4                  ;Scanline 0
   83+9BC4                  ;1/2
   84+9BC4 31 02 80         ld sp,BUFFER_SIDE_EXTRA+GAME_WINDOW_START+(BUFFER_MIDDLE*0)
   85+9BC7 F1               pop af
   86+9BC8 C1               pop bc
   87+9BC9 D1               pop de
   88+9BCA E1               pop hl
   89+9BCB DD E1            pop ix
   90+9BCD FD E1            pop iy
   91+9BCF 31 0C 40         ld sp,VMEM_SEG_0+BUFFER_CHUNK_LENGTH
   92+9BD2 FD E5            push iy
   93+9BD4 DD E5            push ix
   94+9BD6 E5               push hl
   95+9BD7 D5               push de
   96+9BD8 C5               push bc
   97+9BD9 F5               push af
   98+9BDA                  ;2/2
   99+9BDA 31 0E 80         ld sp,GAME_WINDOW_START+(BUFFER_MIDDLE*1)
  100+9BDD F1               pop af
  101+9BDE C1               pop bc
  102+9BDF D1               pop de
  103+9BE0 E1               pop hl
  104+9BE1 DD E1            pop ix
  105+9BE3 FD E1            pop iy
  106+9BE5 31 18 40         ld sp,VMEM_SEG_0+(BUFFER_CHUNK_LENGTH*2)
  107+9BE8 FD E5            push iy
  108+9BEA DD E5            push ix
  109+9BEC E5               push hl
  110+9BED D5               push de
  111+9BEE C5               push bc
  112+9BEF F5               push af
  113+9BF0                  ;Scanline 1
  114+9BF0                  ;1/2
  115+9BF0 31 1E 80         ld sp,BUFFER_SIDE_EXTRA+GAME_WINDOW_START+(BUFFER_MIDDLE*2)
  116+9BF3 F1               pop af
  117+9BF4 C1               pop bc
  118+9BF5 D1               pop de
  119+9BF6 E1               pop hl
  120+9BF7 DD E1            pop ix
  121+9BF9 FD E1            pop iy
  122+9BFB 31 0C 41         ld sp,L1+VMEM_SEG_0+BUFFER_CHUNK_LENGTH
  123+9BFE FD E5            push iy
  124+9C00 DD E5            push ix
  125+9C02 E5               push hl
  126+9C03 D5               push de
  127+9C04 C5               push bc
  128+9C05 F5               push af
  129+9C06                  ;2/2
  130+9C06 31 2A 80         ld sp,GAME_WINDOW_START+(BUFFER_MIDDLE*3)
  131+9C09 F1               pop af
  132+9C0A C1               pop bc
  133+9C0B D1               pop de
  134+9C0C E1               pop hl
  135+9C0D DD E1            pop ix
  136+9C0F FD E1            pop iy
  137+9C11 31 18 41         ld sp,L1+VMEM_SEG_0+(BUFFER_CHUNK_LENGTH*2)
  138+9C14 FD E5            push iy
  139+9C16 DD E5            push ix
  140+9C18 E5               push hl
  141+9C19 D5               push de
  142+9C1A C5               push bc
  143+9C1B F5               push af
  144+9C1C                  ;Scanline 2
  145+9C1C                  ;1/2
  146+9C1C 31 3A 80         ld sp,BUFFER_SIDE_EXTRA+GAME_WINDOW_START+(BUFFER_MIDDLE*4)
  147+9C1F F1               pop af
  148+9C20 C1               pop bc
  149+9C21 D1               pop de
  150+9C22 E1               pop hl
  151+9C23 DD E1            pop ix
  152+9C25 FD E1            pop iy
  153+9C27 31 0C 42         ld sp,L2+VMEM_SEG_0+BUFFER_CHUNK_LENGTH
  154+9C2A FD E5            push iy
  155+9C2C DD E5            push ix
  156+9C2E E5               push hl
  157+9C2F D5               push de
  158+9C30 C5               push bc
  159+9C31 F5               push af
  160+9C32                  ;2/2
  161+9C32 31 46 80         ld sp,GAME_WINDOW_START+(BUFFER_MIDDLE*5)
  162+9C35 F1               pop af
  163+9C36 C1               pop bc
  164+9C37 D1               pop de
  165+9C38 E1               pop hl
  166+9C39 DD E1            pop ix
  167+9C3B FD E1            pop iy
  168+9C3D 31 18 42         ld sp,L2+VMEM_SEG_0+(BUFFER_CHUNK_LENGTH*2)
  169+9C40 FD E5            push iy
  170+9C42 DD E5            push ix
  171+9C44 E5               push hl
  172+9C45 D5               push de
  173+9C46 C5               push bc
  174+9C47 F5               push af
  175+9C48                  ;Scanline 3
  176+9C48                  ;1/2
  177+9C48 31 56 80         ld sp,BUFFER_SIDE_EXTRA+GAME_WINDOW_START+(BUFFER_MIDDLE*6)
  178+9C4B F1               pop af
  179+9C4C C1               pop bc
  180+9C4D D1               pop de
  181+9C4E E1               pop hl
  182+9C4F DD E1            pop ix
  183+9C51 FD E1            pop iy
  184+9C53 31 0C 43         ld sp,L3+VMEM_SEG_0+BUFFER_CHUNK_LENGTH
  185+9C56 FD E5            push iy
  186+9C58 DD E5            push ix
  187+9C5A E5               push hl
  188+9C5B D5               push de
  189+9C5C C5               push bc
  190+9C5D F5               push af
  191+9C5E                  ;2/2
  192+9C5E 31 62 80         ld sp,GAME_WINDOW_START+(BUFFER_MIDDLE*7)
  193+9C61 F1               pop af
  194+9C62 C1               pop bc
  195+9C63 D1               pop de
  196+9C64 E1               pop hl
  197+9C65 DD E1            pop ix
  198+9C67 FD E1            pop iy
  199+9C69 31 18 43         ld sp,L3+VMEM_SEG_0+(BUFFER_CHUNK_LENGTH*2)
  200+9C6C FD E5            push iy
  201+9C6E DD E5            push ix
  202+9C70 E5               push hl
  203+9C71 D5               push de
  204+9C72 C5               push bc
  205+9C73 F5               push af
  206+9C74                  ;Scanline 4
  207+9C74                  ;1/2
  208+9C74 31 72 80         ld sp,BUFFER_SIDE_EXTRA+GAME_WINDOW_START+(BUFFER_MIDDLE*8)
  209+9C77 F1               pop af
  210+9C78 C1               pop bc
  211+9C79 D1               pop de
  212+9C7A E1               pop hl
  213+9C7B DD E1            pop ix
  214+9C7D FD E1            pop iy
  215+9C7F 31 0C 44         ld sp,L4+VMEM_SEG_0+BUFFER_CHUNK_LENGTH
  216+9C82 FD E5            push iy
  217+9C84 DD E5            push ix
  218+9C86 E5               push hl
  219+9C87 D5               push de
  220+9C88 C5               push bc
  221+9C89 F5               push af
  222+9C8A                  ;2/2
  223+9C8A 31 7E 80         ld sp,GAME_WINDOW_START+(BUFFER_MIDDLE*9)
  224+9C8D F1               pop af
  225+9C8E C1               pop bc
  226+9C8F D1               pop de
  227+9C90 E1               pop hl
  228+9C91 DD E1            pop ix
  229+9C93 FD E1            pop iy
  230+9C95 31 18 44         ld sp,L4+VMEM_SEG_0+(BUFFER_CHUNK_LENGTH*2)
  231+9C98 FD E5            push iy
  232+9C9A DD E5            push ix
  233+9C9C E5               push hl
  234+9C9D D5               push de
  235+9C9E C5               push bc
  236+9C9F F5               push af
  237+9CA0                  ;Scanline 5
  238+9CA0                  ;1/2
  239+9CA0 31 8E 80         ld sp,BUFFER_SIDE_EXTRA+GAME_WINDOW_START+(BUFFER_MIDDLE*10)
  240+9CA3 F1               pop af
  241+9CA4 C1               pop bc
  242+9CA5 D1               pop de
  243+9CA6 E1               pop hl
  244+9CA7 DD E1            pop ix
  245+9CA9 FD E1            pop iy
  246+9CAB 31 0C 45         ld sp,L5+VMEM_SEG_0+BUFFER_CHUNK_LENGTH
  247+9CAE FD E5            push iy
  248+9CB0 DD E5            push ix
  249+9CB2 E5               push hl
  250+9CB3 D5               push de
  251+9CB4 C5               push bc
  252+9CB5 F5               push af
  253+9CB6                  ;2/2
  254+9CB6 31 9A 80         ld sp,GAME_WINDOW_START+(BUFFER_MIDDLE*11)
  255+9CB9 F1               pop af
  256+9CBA C1               pop bc
  257+9CBB D1               pop de
  258+9CBC E1               pop hl
  259+9CBD DD E1            pop ix
  260+9CBF FD E1            pop iy
  261+9CC1 31 18 45         ld sp,L5+VMEM_SEG_0+(BUFFER_CHUNK_LENGTH*2)
  262+9CC4 FD E5            push iy
  263+9CC6 DD E5            push ix
  264+9CC8 E5               push hl
  265+9CC9 D5               push de
  266+9CCA C5               push bc
  267+9CCB F5               push af
  268+9CCC                  ;Scanline 6
  269+9CCC                  ;1/2
  270+9CCC 31 AA 80         ld sp,BUFFER_SIDE_EXTRA+GAME_WINDOW_START+(BUFFER_MIDDLE*12)
  271+9CCF F1               pop af
  272+9CD0 C1               pop bc
  273+9CD1 D1               pop de
  274+9CD2 E1               pop hl
  275+9CD3 DD E1            pop ix
  276+9CD5 FD E1            pop iy
  277+9CD7 31 0C 46         ld sp,L6+VMEM_SEG_0+BUFFER_CHUNK_LENGTH
  278+9CDA FD E5            push iy
  279+9CDC DD E5            push ix
  280+9CDE E5               push hl
  281+9CDF D5               push de
  282+9CE0 C5               push bc
  283+9CE1 F5               push af
  284+9CE2                  ;2/2
  285+9CE2 31 B6 80         ld sp,GAME_WINDOW_START+(BUFFER_MIDDLE*13)
  286+9CE5 F1               pop af
  287+9CE6 C1               pop bc
  288+9CE7 D1               pop de
  289+9CE8 E1               pop hl
  290+9CE9 DD E1            pop ix
  291+9CEB FD E1            pop iy
  292+9CED 31 18 46         ld sp,L6+VMEM_SEG_0+(BUFFER_CHUNK_LENGTH*2)
  293+9CF0 FD E5            push iy
  294+9CF2 DD E5            push ix
  295+9CF4 E5               push hl
  296+9CF5 D5               push de
  297+9CF6 C5               push bc
  298+9CF7 F5               push af
  299+9CF8                  ;Scanline 7
  300+9CF8                  ;1/2
  301+9CF8 31 C6 80         ld sp,BUFFER_SIDE_EXTRA+GAME_WINDOW_START+(BUFFER_MIDDLE*14)
  302+9CFB F1               pop af
  303+9CFC C1               pop bc
  304+9CFD D1               pop de
  305+9CFE E1               pop hl
  306+9CFF DD E1            pop ix
  307+9D01 FD E1            pop iy
  308+9D03 31 0C 47         ld sp,L7+VMEM_SEG_0+BUFFER_CHUNK_LENGTH
  309+9D06 FD E5            push iy
  310+9D08 DD E5            push ix
  311+9D0A E5               push hl
  312+9D0B D5               push de
  313+9D0C C5               push bc
  314+9D0D F5               push af
  315+9D0E                  ;2/2
  316+9D0E 31 D2 80         ld sp,GAME_WINDOW_START+(BUFFER_MIDDLE*15)
  317+9D11 F1               pop af
  318+9D12 C1               pop bc
  319+9D13 D1               pop de
  320+9D14 E1               pop hl
  321+9D15 DD E1            pop ix
  322+9D17 FD E1            pop iy
  323+9D19 31 18 47         ld sp,L7+VMEM_SEG_0+(BUFFER_CHUNK_LENGTH*2)
  324+9D1C FD E5            push iy
  325+9D1E DD E5            push ix
  326+9D20 E5               push hl
  327+9D21 D5               push de
  328+9D22 C5               push bc
  329+9D23 F5               push af
  330+9D24
  331+9D24
  332+9D24
  333+9D24
  334+9D24                  ;Char Row 1
  335+9D24
  336+9D24                  ;Scanline 0
  337+9D24                  ;1/2
  338+9D24 31 E2 80         ld sp,BUFFER_SIDE_EXTRA+GAME_WINDOW_START+(BUFFER_MIDDLE*16)
  339+9D27 F1               pop af
  340+9D28 C1               pop bc
  341+9D29 D1               pop de
  342+9D2A E1               pop hl
  343+9D2B DD E1            pop ix
  344+9D2D FD E1            pop iy
  345+9D2F 31 2C 40         ld sp,C1+VMEM_SEG_0+BUFFER_CHUNK_LENGTH
  346+9D32 FD E5            push iy
  347+9D34 DD E5            push ix
  348+9D36 E5               push hl
  349+9D37 D5               push de
  350+9D38 C5               push bc
  351+9D39 F5               push af
  352+9D3A                  ;2/2
  353+9D3A 31 EE 80         ld sp,GAME_WINDOW_START+(BUFFER_MIDDLE*17)
  354+9D3D F1               pop af
  355+9D3E C1               pop bc
  356+9D3F D1               pop de
  357+9D40 E1               pop hl
  358+9D41 DD E1            pop ix
  359+9D43 FD E1            pop iy
  360+9D45 31 38 40         ld sp,C1+VMEM_SEG_0+(BUFFER_CHUNK_LENGTH*2)
  361+9D48 FD E5            push iy
  362+9D4A DD E5            push ix
  363+9D4C E5               push hl
  364+9D4D D5               push de
  365+9D4E C5               push bc
  366+9D4F F5               push af
  367+9D50                  ;Scanline 1
  368+9D50                  ;1/2
  369+9D50 31 FE 80         ld sp,BUFFER_SIDE_EXTRA+GAME_WINDOW_START+(BUFFER_MIDDLE*18)
  370+9D53 F1               pop af
  371+9D54 C1               pop bc
  372+9D55 D1               pop de
  373+9D56 E1               pop hl
  374+9D57 DD E1            pop ix
  375+9D59 FD E1            pop iy
  376+9D5B 31 2C 41         ld sp,L1+C1+VMEM_SEG_0+BUFFER_CHUNK_LENGTH
  377+9D5E FD E5            push iy
  378+9D60 DD E5            push ix
  379+9D62 E5               push hl
  380+9D63 D5               push de
  381+9D64 C5               push bc
  382+9D65 F5               push af
  383+9D66                  ;2/2
  384+9D66 31 0A 81         ld sp,GAME_WINDOW_START+(BUFFER_MIDDLE*19)
  385+9D69 F1               pop af
  386+9D6A C1               pop bc
  387+9D6B D1               pop de
  388+9D6C E1               pop hl
  389+9D6D DD E1            pop ix
  390+9D6F FD E1            pop iy
  391+9D71 31 38 41         ld sp,L1+C1+VMEM_SEG_0+(BUFFER_CHUNK_LENGTH*2)
  392+9D74 FD E5            push iy
  393+9D76 DD E5            push ix
  394+9D78 E5               push hl
  395+9D79 D5               push de
  396+9D7A C5               push bc
  397+9D7B F5               push af
  398+9D7C                  ;Scanline 2
  399+9D7C                  ;1/2
  400+9D7C 31 1A 81         ld sp,BUFFER_SIDE_EXTRA+GAME_WINDOW_START+(BUFFER_MIDDLE*20)
  401+9D7F F1               pop af
  402+9D80 C1               pop bc
  403+9D81 D1               pop de
  404+9D82 E1               pop hl
  405+9D83 DD E1            pop ix
  406+9D85 FD E1            pop iy
  407+9D87 31 2C 42         ld sp,L2+C1+VMEM_SEG_0+BUFFER_CHUNK_LENGTH
  408+9D8A FD E5            push iy
  409+9D8C DD E5            push ix
  410+9D8E E5               push hl
  411+9D8F D5               push de
  412+9D90 C5               push bc
  413+9D91 F5               push af
  414+9D92                  ;2/2
  415+9D92 31 26 81         ld sp,GAME_WINDOW_START+(BUFFER_MIDDLE*21)
  416+9D95 F1               pop af
  417+9D96 C1               pop bc
  418+9D97 D1               pop de
  419+9D98 E1               pop hl
  420+9D99 DD E1            pop ix
  421+9D9B FD E1            pop iy
  422+9D9D 31 38 42         ld sp,L2+C1+VMEM_SEG_0+(BUFFER_CHUNK_LENGTH*2)
  423+9DA0 FD E5            push iy
  424+9DA2 DD E5            push ix
  425+9DA4 E5               push hl
  426+9DA5 D5               push de
  427+9DA6 C5               push bc
  428+9DA7 F5               push af
  429+9DA8                  ;Scanline 3
  430+9DA8                  ;1/2
  431+9DA8 31 36 81         ld sp,BUFFER_SIDE_EXTRA+GAME_WINDOW_START+(BUFFER_MIDDLE*22)
  432+9DAB F1               pop af
  433+9DAC C1               pop bc
  434+9DAD D1               pop de
  435+9DAE E1               pop hl
  436+9DAF DD E1            pop ix
  437+9DB1 FD E1            pop iy
  438+9DB3 31 2C 43         ld sp,L3+C1+VMEM_SEG_0+BUFFER_CHUNK_LENGTH
  439+9DB6 FD E5            push iy
  440+9DB8 DD E5            push ix
  441+9DBA E5               push hl
  442+9DBB D5               push de
  443+9DBC C5               push bc
  444+9DBD F5               push af
  445+9DBE                  ;2/2
  446+9DBE 31 42 81         ld sp,GAME_WINDOW_START+(BUFFER_MIDDLE*23)
  447+9DC1 F1               pop af
  448+9DC2 C1               pop bc
  449+9DC3 D1               pop de
  450+9DC4 E1               pop hl
  451+9DC5 DD E1            pop ix
  452+9DC7 FD E1            pop iy
  453+9DC9 31 38 43         ld sp,L3+C1+VMEM_SEG_0+(BUFFER_CHUNK_LENGTH*2)
  454+9DCC FD E5            push iy
  455+9DCE DD E5            push ix
  456+9DD0 E5               push hl
  457+9DD1 D5               push de
  458+9DD2 C5               push bc
  459+9DD3 F5               push af
  460+9DD4                  ;Scanline 4
  461+9DD4                  ;1/2
  462+9DD4 31 52 81         ld sp,BUFFER_SIDE_EXTRA+GAME_WINDOW_START+(BUFFER_MIDDLE*24)
  463+9DD7 F1               pop af
  464+9DD8 C1               pop bc
  465+9DD9 D1               pop de
  466+9DDA E1               pop hl
  467+9DDB DD E1            pop ix
  468+9DDD FD E1            pop iy
  469+9DDF 31 2C 44         ld sp,L4+C1+VMEM_SEG_0+BUFFER_CHUNK_LENGTH
  470+9DE2 FD E5            push iy
  471+9DE4 DD E5            push ix
  472+9DE6 E5               push hl
  473+9DE7 D5               push de
  474+9DE8 C5               push bc
  475+9DE9 F5               push af
  476+9DEA                  ;2/2
  477+9DEA 31 5E 81         ld sp,GAME_WINDOW_START+(BUFFER_MIDDLE*25)
  478+9DED F1               pop af
  479+9DEE C1               pop bc
  480+9DEF D1               pop de
  481+9DF0 E1               pop hl
  482+9DF1 DD E1            pop ix
  483+9DF3 FD E1            pop iy
  484+9DF5 31 38 44         ld sp,L4+C1+VMEM_SEG_0+(BUFFER_CHUNK_LENGTH*2)
  485+9DF8 FD E5            push iy
  486+9DFA DD E5            push ix
  487+9DFC E5               push hl
  488+9DFD D5               push de
  489+9DFE C5               push bc
  490+9DFF F5               push af
  491+9E00                  ;Scanline 5
  492+9E00                  ;1/2
  493+9E00 31 6E 81         ld sp,BUFFER_SIDE_EXTRA+GAME_WINDOW_START+(BUFFER_MIDDLE*26)
  494+9E03 F1               pop af
  495+9E04 C1               pop bc
  496+9E05 D1               pop de
  497+9E06 E1               pop hl
  498+9E07 DD E1            pop ix
  499+9E09 FD E1            pop iy
  500+9E0B 31 2C 45         ld sp,L5+C1+VMEM_SEG_0+BUFFER_CHUNK_LENGTH
  501+9E0E FD E5            push iy
  502+9E10 DD E5            push ix
  503+9E12 E5               push hl
  504+9E13 D5               push de
  505+9E14 C5               push bc
  506+9E15 F5               push af
  507+9E16                  ;2/2
  508+9E16 31 7A 81         ld sp,GAME_WINDOW_START+(BUFFER_MIDDLE*27)
  509+9E19 F1               pop af
  510+9E1A C1               pop bc
  511+9E1B D1               pop de
  512+9E1C E1               pop hl
  513+9E1D DD E1            pop ix
  514+9E1F FD E1            pop iy
  515+9E21 31 38 45         ld sp,L5+C1+VMEM_SEG_0+(BUFFER_CHUNK_LENGTH*2)
  516+9E24 FD E5            push iy
  517+9E26 DD E5            push ix
  518+9E28 E5               push hl
  519+9E29 D5               push de
  520+9E2A C5               push bc
  521+9E2B F5               push af
  522+9E2C                  ;Scanline 6
  523+9E2C                  ;1/2
  524+9E2C 31 8A 81         ld sp,BUFFER_SIDE_EXTRA+GAME_WINDOW_START+(BUFFER_MIDDLE*28)
  525+9E2F F1               pop af
  526+9E30 C1               pop bc
  527+9E31 D1               pop de
  528+9E32 E1               pop hl
  529+9E33 DD E1            pop ix
  530+9E35 FD E1            pop iy
  531+9E37 31 2C 46         ld sp,L6+C1+VMEM_SEG_0+BUFFER_CHUNK_LENGTH
  532+9E3A FD E5            push iy
  533+9E3C DD E5            push ix
  534+9E3E E5               push hl
  535+9E3F D5               push de
  536+9E40 C5               push bc
  537+9E41 F5               push af
  538+9E42                  ;2/2
  539+9E42 31 96 81         ld sp,GAME_WINDOW_START+(BUFFER_MIDDLE*29)
  540+9E45 F1               pop af
  541+9E46 C1               pop bc
  542+9E47 D1               pop de
  543+9E48 E1               pop hl
  544+9E49 DD E1            pop ix
  545+9E4B FD E1            pop iy
  546+9E4D 31 38 46         ld sp,L6+C1+VMEM_SEG_0+(BUFFER_CHUNK_LENGTH*2)
  547+9E50 FD E5            push iy
  548+9E52 DD E5            push ix
  549+9E54 E5               push hl
  550+9E55 D5               push de
  551+9E56 C5               push bc
  552+9E57 F5               push af
  553+9E58                  ;Scanline 7
  554+9E58                  ;1/2
  555+9E58 31 A6 81         ld sp,BUFFER_SIDE_EXTRA+GAME_WINDOW_START+(BUFFER_MIDDLE*30)
  556+9E5B F1               pop af
  557+9E5C C1               pop bc
  558+9E5D D1               pop de
  559+9E5E E1               pop hl
  560+9E5F DD E1            pop ix
  561+9E61 FD E1            pop iy
  562+9E63 31 2C 47         ld sp,L7+C1+VMEM_SEG_0+BUFFER_CHUNK_LENGTH
  563+9E66 FD E5            push iy
  564+9E68 DD E5            push ix
  565+9E6A E5               push hl
  566+9E6B D5               push de
  567+9E6C C5               push bc
  568+9E6D F5               push af
  569+9E6E                  ;2/2
  570+9E6E 31 B2 81         ld sp,GAME_WINDOW_START+(BUFFER_MIDDLE*31)
  571+9E71 F1               pop af
  572+9E72 C1               pop bc
  573+9E73 D1               pop de
  574+9E74 E1               pop hl
  575+9E75 DD E1            pop ix
  576+9E77 FD E1            pop iy
  577+9E79 31 38 47         ld sp,L7+C1+VMEM_SEG_0+(BUFFER_CHUNK_LENGTH*2)
  578+9E7C FD E5            push iy
  579+9E7E DD E5            push ix
  580+9E80 E5               push hl
  581+9E81 D5               push de
  582+9E82 C5               push bc
  583+9E83 F5               push af
  584+9E84
  585+9E84
  586+9E84
  587+9E84
  588+9E84                  ;Char Row 2
  589+9E84
  590+9E84                  ;Scanline 0
  591+9E84                  ;1/2
  592+9E84 31 C2 81         ld sp,BUFFER_SIDE_EXTRA+GAME_WINDOW_START+(BUFFER_MIDDLE*32)
  593+9E87 F1               pop af
  594+9E88 C1               pop bc
  595+9E89 D1               pop de
  596+9E8A E1               pop hl
  597+9E8B DD E1            pop ix
  598+9E8D FD E1            pop iy
  599+9E8F 31 4C 40         ld sp,C2+VMEM_SEG_0+BUFFER_CHUNK_LENGTH
  600+9E92 FD E5            push iy
  601+9E94 DD E5            push ix
  602+9E96 E5               push hl
  603+9E97 D5               push de
  604+9E98 C5               push bc
  605+9E99 F5               push af
  606+9E9A                  ;2/2
  607+9E9A 31 CE 81         ld sp,GAME_WINDOW_START+(BUFFER_MIDDLE*33)
  608+9E9D F1               pop af
  609+9E9E C1               pop bc
  610+9E9F D1               pop de
  611+9EA0 E1               pop hl
  612+9EA1 DD E1            pop ix
  613+9EA3 FD E1            pop iy
  614+9EA5 31 58 40         ld sp,C2+VMEM_SEG_0+(BUFFER_CHUNK_LENGTH*2)
  615+9EA8 FD E5            push iy
  616+9EAA DD E5            push ix
  617+9EAC E5               push hl
  618+9EAD D5               push de
  619+9EAE C5               push bc
  620+9EAF F5               push af
  621+9EB0                  ;Scanline 1
  622+9EB0                  ;1/2
  623+9EB0 31 DE 81         ld sp,BUFFER_SIDE_EXTRA+GAME_WINDOW_START+(BUFFER_MIDDLE*34)
  624+9EB3 F1               pop af
  625+9EB4 C1               pop bc
  626+9EB5 D1               pop de
  627+9EB6 E1               pop hl
  628+9EB7 DD E1            pop ix
  629+9EB9 FD E1            pop iy
  630+9EBB 31 4C 41         ld sp,L1+C2+VMEM_SEG_0+BUFFER_CHUNK_LENGTH
  631+9EBE FD E5            push iy
  632+9EC0 DD E5            push ix
  633+9EC2 E5               push hl
  634+9EC3 D5               push de
  635+9EC4 C5               push bc
  636+9EC5 F5               push af
  637+9EC6                  ;2/2
  638+9EC6 31 EA 81         ld sp,GAME_WINDOW_START+(BUFFER_MIDDLE*35)
  639+9EC9 F1               pop af
  640+9ECA C1               pop bc
  641+9ECB D1               pop de
  642+9ECC E1               pop hl
  643+9ECD DD E1            pop ix
  644+9ECF FD E1            pop iy
  645+9ED1 31 58 41         ld sp,L1+C2+VMEM_SEG_0+(BUFFER_CHUNK_LENGTH*2)
  646+9ED4 FD E5            push iy
  647+9ED6 DD E5            push ix
  648+9ED8 E5               push hl
  649+9ED9 D5               push de
  650+9EDA C5               push bc
  651+9EDB F5               push af
  652+9EDC                  ;Scanline 2
  653+9EDC                  ;1/2
  654+9EDC 31 FA 81         ld sp,BUFFER_SIDE_EXTRA+GAME_WINDOW_START+(BUFFER_MIDDLE*36)
  655+9EDF F1               pop af
  656+9EE0 C1               pop bc
  657+9EE1 D1               pop de
  658+9EE2 E1               pop hl
  659+9EE3 DD E1            pop ix
  660+9EE5 FD E1            pop iy
  661+9EE7 31 4C 42         ld sp,L2+C2+VMEM_SEG_0+BUFFER_CHUNK_LENGTH
  662+9EEA FD E5            push iy
  663+9EEC DD E5            push ix
  664+9EEE E5               push hl
  665+9EEF D5               push de
  666+9EF0 C5               push bc
  667+9EF1 F5               push af
  668+9EF2                  ;2/2
  669+9EF2 31 06 82         ld sp,GAME_WINDOW_START+(BUFFER_MIDDLE*37)
  670+9EF5 F1               pop af
  671+9EF6 C1               pop bc
  672+9EF7 D1               pop de
  673+9EF8 E1               pop hl
  674+9EF9 DD E1            pop ix
  675+9EFB FD E1            pop iy
  676+9EFD 31 58 42         ld sp,L2+C2+VMEM_SEG_0+(BUFFER_CHUNK_LENGTH*2)
  677+9F00 FD E5            push iy
  678+9F02 DD E5            push ix
  679+9F04 E5               push hl
  680+9F05 D5               push de
  681+9F06 C5               push bc
  682+9F07 F5               push af
  683+9F08                  ;Scanline 3
  684+9F08                  ;1/2
  685+9F08 31 16 82         ld sp,BUFFER_SIDE_EXTRA+GAME_WINDOW_START+(BUFFER_MIDDLE*38)
  686+9F0B F1               pop af
  687+9F0C C1               pop bc
  688+9F0D D1               pop de
  689+9F0E E1               pop hl
  690+9F0F DD E1            pop ix
  691+9F11 FD E1            pop iy
  692+9F13 31 4C 43         ld sp,L3+C2+VMEM_SEG_0+BUFFER_CHUNK_LENGTH
  693+9F16 FD E5            push iy
  694+9F18 DD E5            push ix
  695+9F1A E5               push hl
  696+9F1B D5               push de
  697+9F1C C5               push bc
  698+9F1D F5               push af
  699+9F1E                  ;2/2
  700+9F1E 31 22 82         ld sp,GAME_WINDOW_START+(BUFFER_MIDDLE*39)
  701+9F21 F1               pop af
  702+9F22 C1               pop bc
  703+9F23 D1               pop de
  704+9F24 E1               pop hl
  705+9F25 DD E1            pop ix
  706+9F27 FD E1            pop iy
  707+9F29 31 58 43         ld sp,L3+C2+VMEM_SEG_0+(BUFFER_CHUNK_LENGTH*2)
  708+9F2C FD E5            push iy
  709+9F2E DD E5            push ix
  710+9F30 E5               push hl
  711+9F31 D5               push de
  712+9F32 C5               push bc
  713+9F33 F5               push af
  714+9F34                  ;Scanline 4
  715+9F34                  ;1/2
  716+9F34 31 32 82         ld sp,BUFFER_SIDE_EXTRA+GAME_WINDOW_START+(BUFFER_MIDDLE*40)
  717+9F37 F1               pop af
  718+9F38 C1               pop bc
  719+9F39 D1               pop de
  720+9F3A E1               pop hl
  721+9F3B DD E1            pop ix
  722+9F3D FD E1            pop iy
  723+9F3F 31 4C 44         ld sp,L4+C2+VMEM_SEG_0+BUFFER_CHUNK_LENGTH
  724+9F42 FD E5            push iy
  725+9F44 DD E5            push ix
  726+9F46 E5               push hl
  727+9F47 D5               push de
  728+9F48 C5               push bc
  729+9F49 F5               push af
  730+9F4A                  ;2/2
  731+9F4A 31 3E 82         ld sp,GAME_WINDOW_START+(BUFFER_MIDDLE*41)
  732+9F4D F1               pop af
  733+9F4E C1               pop bc
  734+9F4F D1               pop de
  735+9F50 E1               pop hl
  736+9F51 DD E1            pop ix
  737+9F53 FD E1            pop iy
  738+9F55 31 58 44         ld sp,L4+C2+VMEM_SEG_0+(BUFFER_CHUNK_LENGTH*2)
  739+9F58 FD E5            push iy
  740+9F5A DD E5            push ix
  741+9F5C E5               push hl
  742+9F5D D5               push de
  743+9F5E C5               push bc
  744+9F5F F5               push af
  745+9F60                  ;Scanline 5
  746+9F60                  ;1/2
  747+9F60 31 4E 82         ld sp,BUFFER_SIDE_EXTRA+GAME_WINDOW_START+(BUFFER_MIDDLE*42)
  748+9F63 F1               pop af
  749+9F64 C1               pop bc
  750+9F65 D1               pop de
  751+9F66 E1               pop hl
  752+9F67 DD E1            pop ix
  753+9F69 FD E1            pop iy
  754+9F6B 31 4C 45         ld sp,L5+C2+VMEM_SEG_0+BUFFER_CHUNK_LENGTH
  755+9F6E FD E5            push iy
  756+9F70 DD E5            push ix
  757+9F72 E5               push hl
  758+9F73 D5               push de
  759+9F74 C5               push bc
  760+9F75 F5               push af
  761+9F76                  ;2/2
  762+9F76 31 5A 82         ld sp,GAME_WINDOW_START+(BUFFER_MIDDLE*43)
  763+9F79 F1               pop af
  764+9F7A C1               pop bc
  765+9F7B D1               pop de
  766+9F7C E1               pop hl
  767+9F7D DD E1            pop ix
  768+9F7F FD E1            pop iy
  769+9F81 31 58 45         ld sp,L5+C2+VMEM_SEG_0+(BUFFER_CHUNK_LENGTH*2)
  770+9F84 FD E5            push iy
  771+9F86 DD E5            push ix
  772+9F88 E5               push hl
  773+9F89 D5               push de
  774+9F8A C5               push bc
  775+9F8B F5               push af
  776+9F8C                  ;Scanline 6
  777+9F8C                  ;1/2
  778+9F8C 31 6A 82         ld sp,BUFFER_SIDE_EXTRA+GAME_WINDOW_START+(BUFFER_MIDDLE*44)
  779+9F8F F1               pop af
  780+9F90 C1               pop bc
  781+9F91 D1               pop de
  782+9F92 E1               pop hl
  783+9F93 DD E1            pop ix
  784+9F95 FD E1            pop iy
  785+9F97 31 4C 46         ld sp,L6+C2+VMEM_SEG_0+BUFFER_CHUNK_LENGTH
  786+9F9A FD E5            push iy
  787+9F9C DD E5            push ix
  788+9F9E E5               push hl
  789+9F9F D5               push de
  790+9FA0 C5               push bc
  791+9FA1 F5               push af
  792+9FA2                  ;2/2
  793+9FA2 31 76 82         ld sp,GAME_WINDOW_START+(BUFFER_MIDDLE*45)
  794+9FA5 F1               pop af
  795+9FA6 C1               pop bc
  796+9FA7 D1               pop de
  797+9FA8 E1               pop hl
  798+9FA9 DD E1            pop ix
  799+9FAB FD E1            pop iy
  800+9FAD 31 58 46         ld sp,L6+C2+VMEM_SEG_0+(BUFFER_CHUNK_LENGTH*2)
  801+9FB0 FD E5            push iy
  802+9FB2 DD E5            push ix
  803+9FB4 E5               push hl
  804+9FB5 D5               push de
  805+9FB6 C5               push bc
  806+9FB7 F5               push af
  807+9FB8                  ;Scanline 7
  808+9FB8                  ;1/2
  809+9FB8 31 86 82         ld sp,BUFFER_SIDE_EXTRA+GAME_WINDOW_START+(BUFFER_MIDDLE*46)
  810+9FBB F1               pop af
  811+9FBC C1               pop bc
  812+9FBD D1               pop de
  813+9FBE E1               pop hl
  814+9FBF DD E1            pop ix
  815+9FC1 FD E1            pop iy
  816+9FC3 31 4C 47         ld sp,L7+C2+VMEM_SEG_0+BUFFER_CHUNK_LENGTH
  817+9FC6 FD E5            push iy
  818+9FC8 DD E5            push ix
  819+9FCA E5               push hl
  820+9FCB D5               push de
  821+9FCC C5               push bc
  822+9FCD F5               push af
  823+9FCE                  ;2/2
  824+9FCE 31 92 82         ld sp,GAME_WINDOW_START+(BUFFER_MIDDLE*47)
  825+9FD1 F1               pop af
  826+9FD2 C1               pop bc
  827+9FD3 D1               pop de
  828+9FD4 E1               pop hl
  829+9FD5 DD E1            pop ix
  830+9FD7 FD E1            pop iy
  831+9FD9 31 58 47         ld sp,L7+C2+VMEM_SEG_0+(BUFFER_CHUNK_LENGTH*2)
  832+9FDC FD E5            push iy
  833+9FDE DD E5            push ix
  834+9FE0 E5               push hl
  835+9FE1 D5               push de
  836+9FE2 C5               push bc
  837+9FE3 F5               push af
  838+9FE4
  839+9FE4
  840+9FE4
  841+9FE4                  ;Char Row 3
  842+9FE4
  843+9FE4                  ;Scanline 0
  844+9FE4                  ;1/2
  845+9FE4 31 A2 82         ld sp,BUFFER_SIDE_EXTRA+GAME_WINDOW_START+(BUFFER_MIDDLE*48)
  846+9FE7 F1               pop af
  847+9FE8 C1               pop bc
  848+9FE9 D1               pop de
  849+9FEA E1               pop hl
  850+9FEB DD E1            pop ix
  851+9FED FD E1            pop iy
  852+9FEF 31 6C 40         ld sp,C3+VMEM_SEG_0+BUFFER_CHUNK_LENGTH
  853+9FF2 FD E5            push iy
  854+9FF4 DD E5            push ix
  855+9FF6 E5               push hl
  856+9FF7 D5               push de
  857+9FF8 C5               push bc
  858+9FF9 F5               push af
  859+9FFA                  ;2/2
  860+9FFA 31 AE 82         ld sp,GAME_WINDOW_START+(BUFFER_MIDDLE*49)
  861+9FFD F1               pop af
  862+9FFE C1               pop bc
  863+9FFF D1               pop de
  864+A000 E1               pop hl
  865+A001 DD E1            pop ix
  866+A003 FD E1            pop iy
  867+A005 31 78 40         ld sp,C3+VMEM_SEG_0+(BUFFER_CHUNK_LENGTH*2)
  868+A008 FD E5            push iy
  869+A00A DD E5            push ix
  870+A00C E5               push hl
  871+A00D D5               push de
  872+A00E C5               push bc
  873+A00F F5               push af
  874+A010                  ;Scanline 1
  875+A010                  ;1/2
  876+A010 31 BE 82         ld sp,BUFFER_SIDE_EXTRA+GAME_WINDOW_START+(BUFFER_MIDDLE*50)
  877+A013 F1               pop af
  878+A014 C1               pop bc
  879+A015 D1               pop de
  880+A016 E1               pop hl
  881+A017 DD E1            pop ix
  882+A019 FD E1            pop iy
  883+A01B 31 6C 41         ld sp,L1+C3+VMEM_SEG_0+BUFFER_CHUNK_LENGTH
  884+A01E FD E5            push iy
  885+A020 DD E5            push ix
  886+A022 E5               push hl
  887+A023 D5               push de
  888+A024 C5               push bc
  889+A025 F5               push af
  890+A026                  ;2/2
  891+A026 31 CA 82         ld sp,GAME_WINDOW_START+(BUFFER_MIDDLE*51)
  892+A029 F1               pop af
  893+A02A C1               pop bc
  894+A02B D1               pop de
  895+A02C E1               pop hl
  896+A02D DD E1            pop ix
  897+A02F FD E1            pop iy
  898+A031 31 78 41         ld sp,L1+C3+VMEM_SEG_0+(BUFFER_CHUNK_LENGTH*2)
  899+A034 FD E5            push iy
  900+A036 DD E5            push ix
  901+A038 E5               push hl
  902+A039 D5               push de
  903+A03A C5               push bc
  904+A03B F5               push af
  905+A03C                  ;Scanline 2
  906+A03C                  ;1/2
  907+A03C 31 DA 82         ld sp,BUFFER_SIDE_EXTRA+GAME_WINDOW_START+(BUFFER_MIDDLE*52)
  908+A03F F1               pop af
  909+A040 C1               pop bc
  910+A041 D1               pop de
  911+A042 E1               pop hl
  912+A043 DD E1            pop ix
  913+A045 FD E1            pop iy
  914+A047 31 6C 42         ld sp,L2+C3+VMEM_SEG_0+BUFFER_CHUNK_LENGTH
  915+A04A FD E5            push iy
  916+A04C DD E5            push ix
  917+A04E E5               push hl
  918+A04F D5               push de
  919+A050 C5               push bc
  920+A051 F5               push af
  921+A052                  ;2/2
  922+A052 31 E6 82         ld sp,GAME_WINDOW_START+(BUFFER_MIDDLE*53)
  923+A055 F1               pop af
  924+A056 C1               pop bc
  925+A057 D1               pop de
  926+A058 E1               pop hl
  927+A059 DD E1            pop ix
  928+A05B FD E1            pop iy
  929+A05D 31 78 42         ld sp,L2+C3+VMEM_SEG_0+(BUFFER_CHUNK_LENGTH*2)
  930+A060 FD E5            push iy
  931+A062 DD E5            push ix
  932+A064 E5               push hl
  933+A065 D5               push de
  934+A066 C5               push bc
  935+A067 F5               push af
  936+A068                  ;Scanline 3
  937+A068                  ;1/2
  938+A068 31 F6 82         ld sp,BUFFER_SIDE_EXTRA+GAME_WINDOW_START+(BUFFER_MIDDLE*54)
  939+A06B F1               pop af
  940+A06C C1               pop bc
  941+A06D D1               pop de
  942+A06E E1               pop hl
  943+A06F DD E1            pop ix
  944+A071 FD E1            pop iy
  945+A073 31 6C 43         ld sp,L3+C3+VMEM_SEG_0+BUFFER_CHUNK_LENGTH
  946+A076 FD E5            push iy
  947+A078 DD E5            push ix
  948+A07A E5               push hl
  949+A07B D5               push de
  950+A07C C5               push bc
  951+A07D F5               push af
  952+A07E                  ;2/2
  953+A07E 31 02 83         ld sp,GAME_WINDOW_START+(BUFFER_MIDDLE*55)
  954+A081 F1               pop af
  955+A082 C1               pop bc
  956+A083 D1               pop de
  957+A084 E1               pop hl
  958+A085 DD E1            pop ix
  959+A087 FD E1            pop iy
  960+A089 31 78 43         ld sp,L3+C3+VMEM_SEG_0+(BUFFER_CHUNK_LENGTH*2)
  961+A08C FD E5            push iy
  962+A08E DD E5            push ix
  963+A090 E5               push hl
  964+A091 D5               push de
  965+A092 C5               push bc
  966+A093 F5               push af
  967+A094                  ;Scanline 4
  968+A094                  ;1/2
  969+A094 31 12 83         ld sp,BUFFER_SIDE_EXTRA+GAME_WINDOW_START+(BUFFER_MIDDLE*56)
  970+A097 F1               pop af
  971+A098 C1               pop bc
  972+A099 D1               pop de
  973+A09A E1               pop hl
  974+A09B DD E1            pop ix
  975+A09D FD E1            pop iy
  976+A09F 31 6C 44         ld sp,L4+C3+VMEM_SEG_0+BUFFER_CHUNK_LENGTH
  977+A0A2 FD E5            push iy
  978+A0A4 DD E5            push ix
  979+A0A6 E5               push hl
  980+A0A7 D5               push de
  981+A0A8 C5               push bc
  982+A0A9 F5               push af
  983+A0AA                  ;2/2
  984+A0AA 31 1E 83         ld sp,GAME_WINDOW_START+(BUFFER_MIDDLE*57)
  985+A0AD F1               pop af
  986+A0AE C1               pop bc
  987+A0AF D1               pop de
  988+A0B0 E1               pop hl
  989+A0B1 DD E1            pop ix
  990+A0B3 FD E1            pop iy
  991+A0B5 31 78 44         ld sp,L4+C3+VMEM_SEG_0+(BUFFER_CHUNK_LENGTH*2)
  992+A0B8 FD E5            push iy
  993+A0BA DD E5            push ix
  994+A0BC E5               push hl
  995+A0BD D5               push de
  996+A0BE C5               push bc
  997+A0BF F5               push af
  998+A0C0                  ;Scanline 5
  999+A0C0                  ;1/2
 1000+A0C0 31 2E 83         ld sp,BUFFER_SIDE_EXTRA+GAME_WINDOW_START+(BUFFER_MIDDLE*58)
 1001+A0C3 F1               pop af
 1002+A0C4 C1               pop bc
 1003+A0C5 D1               pop de
 1004+A0C6 E1               pop hl
 1005+A0C7 DD E1            pop ix
 1006+A0C9 FD E1            pop iy
 1007+A0CB 31 6C 45         ld sp,L5+C3+VMEM_SEG_0+BUFFER_CHUNK_LENGTH
 1008+A0CE FD E5            push iy
 1009+A0D0 DD E5            push ix
 1010+A0D2 E5               push hl
 1011+A0D3 D5               push de
 1012+A0D4 C5               push bc
 1013+A0D5 F5               push af
 1014+A0D6                  ;2/2
 1015+A0D6 31 3A 83         ld sp,GAME_WINDOW_START+(BUFFER_MIDDLE*59)
 1016+A0D9 F1               pop af
 1017+A0DA C1               pop bc
 1018+A0DB D1               pop de
 1019+A0DC E1               pop hl
 1020+A0DD DD E1            pop ix
 1021+A0DF FD E1            pop iy
 1022+A0E1 31 78 45         ld sp,L5+C3+VMEM_SEG_0+(BUFFER_CHUNK_LENGTH*2)
 1023+A0E4 FD E5            push iy
 1024+A0E6 DD E5            push ix
 1025+A0E8 E5               push hl
 1026+A0E9 D5               push de
 1027+A0EA C5               push bc
 1028+A0EB F5               push af
 1029+A0EC                  ;Scanline 6
 1030+A0EC                  ;1/2
 1031+A0EC 31 4A 83         ld sp,BUFFER_SIDE_EXTRA+GAME_WINDOW_START+(BUFFER_MIDDLE*60)
 1032+A0EF F1               pop af
 1033+A0F0 C1               pop bc
 1034+A0F1 D1               pop de
 1035+A0F2 E1               pop hl
 1036+A0F3 DD E1            pop ix
 1037+A0F5 FD E1            pop iy
 1038+A0F7 31 6C 46         ld sp,L6+C3+VMEM_SEG_0+BUFFER_CHUNK_LENGTH
 1039+A0FA FD E5            push iy
 1040+A0FC DD E5            push ix
 1041+A0FE E5               push hl
 1042+A0FF D5               push de
 1043+A100 C5               push bc
 1044+A101 F5               push af
 1045+A102                  ;2/2
 1046+A102 31 56 83         ld sp,GAME_WINDOW_START+(BUFFER_MIDDLE*61)
 1047+A105 F1               pop af
 1048+A106 C1               pop bc
 1049+A107 D1               pop de
 1050+A108 E1               pop hl
 1051+A109 DD E1            pop ix
 1052+A10B FD E1            pop iy
 1053+A10D 31 78 46         ld sp,L6+C3+VMEM_SEG_0+(BUFFER_CHUNK_LENGTH*2)
 1054+A110 FD E5            push iy
 1055+A112 DD E5            push ix
 1056+A114 E5               push hl
 1057+A115 D5               push de
 1058+A116 C5               push bc
 1059+A117 F5               push af
 1060+A118                  ;Scanline 7
 1061+A118                  ;1/2
 1062+A118 31 66 83         ld sp,BUFFER_SIDE_EXTRA+GAME_WINDOW_START+(BUFFER_MIDDLE*62)
 1063+A11B F1               pop af
 1064+A11C C1               pop bc
 1065+A11D D1               pop de
 1066+A11E E1               pop hl
 1067+A11F DD E1            pop ix
 1068+A121 FD E1            pop iy
 1069+A123 31 6C 47         ld sp,L7+C3+VMEM_SEG_0+BUFFER_CHUNK_LENGTH
 1070+A126 FD E5            push iy
 1071+A128 DD E5            push ix
 1072+A12A E5               push hl
 1073+A12B D5               push de
 1074+A12C C5               push bc
 1075+A12D F5               push af
 1076+A12E                  ;2/2
 1077+A12E 31 72 83         ld sp,GAME_WINDOW_START+(BUFFER_MIDDLE*63)
 1078+A131 F1               pop af
 1079+A132 C1               pop bc
 1080+A133 D1               pop de
 1081+A134 E1               pop hl
 1082+A135 DD E1            pop ix
 1083+A137 FD E1            pop iy
 1084+A139 31 78 47         ld sp,L7+C3+VMEM_SEG_0+(BUFFER_CHUNK_LENGTH*2)
 1085+A13C FD E5            push iy
 1086+A13E DD E5            push ix
 1087+A140 E5               push hl
 1088+A141 D5               push de
 1089+A142 C5               push bc
 1090+A143 F5               push af
 1091+A144
 1092+A144
 1093+A144
 1094+A144
 1095+A144                  ;Char Row 4
 1096+A144
 1097+A144                  ;Scanline 0
 1098+A144                  ;1/2
 1099+A144 31 82 83         ld sp,BUFFER_SIDE_EXTRA+GAME_WINDOW_START+(BUFFER_MIDDLE*64)
 1100+A147 F1               pop af
 1101+A148 C1               pop bc
 1102+A149 D1               pop de
 1103+A14A E1               pop hl
 1104+A14B DD E1            pop ix
 1105+A14D FD E1            pop iy
 1106+A14F 31 8C 40         ld sp,C4+VMEM_SEG_0+BUFFER_CHUNK_LENGTH
 1107+A152 FD E5            push iy
 1108+A154 DD E5            push ix
 1109+A156 E5               push hl
 1110+A157 D5               push de
 1111+A158 C5               push bc
 1112+A159 F5               push af
 1113+A15A                  ;2/2
 1114+A15A 31 8E 83         ld sp,GAME_WINDOW_START+(BUFFER_MIDDLE*65)
 1115+A15D F1               pop af
 1116+A15E C1               pop bc
 1117+A15F D1               pop de
 1118+A160 E1               pop hl
 1119+A161 DD E1            pop ix
 1120+A163 FD E1            pop iy
 1121+A165 31 98 40         ld sp,C4+VMEM_SEG_0+(BUFFER_CHUNK_LENGTH*2)
 1122+A168 FD E5            push iy
 1123+A16A DD E5            push ix
 1124+A16C E5               push hl
 1125+A16D D5               push de
 1126+A16E C5               push bc
 1127+A16F F5               push af
 1128+A170                  ;Scanline 1
 1129+A170                  ;1/2
 1130+A170 31 9E 83         ld sp,BUFFER_SIDE_EXTRA+GAME_WINDOW_START+(BUFFER_MIDDLE*66)
 1131+A173 F1               pop af
 1132+A174 C1               pop bc
 1133+A175 D1               pop de
 1134+A176 E1               pop hl
 1135+A177 DD E1            pop ix
 1136+A179 FD E1            pop iy
 1137+A17B 31 8C 41         ld sp,L1+C4+VMEM_SEG_0+BUFFER_CHUNK_LENGTH
 1138+A17E FD E5            push iy
 1139+A180 DD E5            push ix
 1140+A182 E5               push hl
 1141+A183 D5               push de
 1142+A184 C5               push bc
 1143+A185 F5               push af
 1144+A186                  ;2/2
 1145+A186 31 AA 83         ld sp,GAME_WINDOW_START+(BUFFER_MIDDLE*67)
 1146+A189 F1               pop af
 1147+A18A C1               pop bc
 1148+A18B D1               pop de
 1149+A18C E1               pop hl
 1150+A18D DD E1            pop ix
 1151+A18F FD E1            pop iy
 1152+A191 31 98 41         ld sp,L1+C4+VMEM_SEG_0+(BUFFER_CHUNK_LENGTH*2)
 1153+A194 FD E5            push iy
 1154+A196 DD E5            push ix
 1155+A198 E5               push hl
 1156+A199 D5               push de
 1157+A19A C5               push bc
 1158+A19B F5               push af
 1159+A19C                  ;Scanline 2
 1160+A19C                  ;1/2
 1161+A19C 31 BA 83         ld sp,BUFFER_SIDE_EXTRA+GAME_WINDOW_START+(BUFFER_MIDDLE*68)
 1162+A19F F1               pop af
 1163+A1A0 C1               pop bc
 1164+A1A1 D1               pop de
 1165+A1A2 E1               pop hl
 1166+A1A3 DD E1            pop ix
 1167+A1A5 FD E1            pop iy
 1168+A1A7 31 8C 42         ld sp,L2+C4+VMEM_SEG_0+BUFFER_CHUNK_LENGTH
 1169+A1AA FD E5            push iy
 1170+A1AC DD E5            push ix
 1171+A1AE E5               push hl
 1172+A1AF D5               push de
 1173+A1B0 C5               push bc
 1174+A1B1 F5               push af
 1175+A1B2                  ;2/2
 1176+A1B2 31 C6 83         ld sp,GAME_WINDOW_START+(BUFFER_MIDDLE*69)
 1177+A1B5 F1               pop af
 1178+A1B6 C1               pop bc
 1179+A1B7 D1               pop de
 1180+A1B8 E1               pop hl
 1181+A1B9 DD E1            pop ix
 1182+A1BB FD E1            pop iy
 1183+A1BD 31 98 42         ld sp,L2+C4+VMEM_SEG_0+(BUFFER_CHUNK_LENGTH*2)
 1184+A1C0 FD E5            push iy
 1185+A1C2 DD E5            push ix
 1186+A1C4 E5               push hl
 1187+A1C5 D5               push de
 1188+A1C6 C5               push bc
 1189+A1C7 F5               push af
 1190+A1C8                  ;Scanline 3
 1191+A1C8                  ;1/2
 1192+A1C8 31 D6 83         ld sp,BUFFER_SIDE_EXTRA+GAME_WINDOW_START+(BUFFER_MIDDLE*70)
 1193+A1CB F1               pop af
 1194+A1CC C1               pop bc
 1195+A1CD D1               pop de
 1196+A1CE E1               pop hl
 1197+A1CF DD E1            pop ix
 1198+A1D1 FD E1            pop iy
 1199+A1D3 31 8C 43         ld sp,L3+C4+VMEM_SEG_0+BUFFER_CHUNK_LENGTH
 1200+A1D6 FD E5            push iy
 1201+A1D8 DD E5            push ix
 1202+A1DA E5               push hl
 1203+A1DB D5               push de
 1204+A1DC C5               push bc
 1205+A1DD F5               push af
 1206+A1DE                  ;2/2
 1207+A1DE 31 E2 83         ld sp,GAME_WINDOW_START+(BUFFER_MIDDLE*71)
 1208+A1E1 F1               pop af
 1209+A1E2 C1               pop bc
 1210+A1E3 D1               pop de
 1211+A1E4 E1               pop hl
 1212+A1E5 DD E1            pop ix
 1213+A1E7 FD E1            pop iy
 1214+A1E9 31 98 43         ld sp,L3+C4+VMEM_SEG_0+(BUFFER_CHUNK_LENGTH*2)
 1215+A1EC FD E5            push iy
 1216+A1EE DD E5            push ix
 1217+A1F0 E5               push hl
 1218+A1F1 D5               push de
 1219+A1F2 C5               push bc
 1220+A1F3 F5               push af
 1221+A1F4                  ;Scanline 4
 1222+A1F4                  ;1/2
 1223+A1F4 31 F2 83         ld sp,BUFFER_SIDE_EXTRA+GAME_WINDOW_START+(BUFFER_MIDDLE*72)
 1224+A1F7 F1               pop af
 1225+A1F8 C1               pop bc
 1226+A1F9 D1               pop de
 1227+A1FA E1               pop hl
 1228+A1FB DD E1            pop ix
 1229+A1FD FD E1            pop iy
 1230+A1FF 31 8C 44         ld sp,L4+C4+VMEM_SEG_0+BUFFER_CHUNK_LENGTH
 1231+A202 FD E5            push iy
 1232+A204 DD E5            push ix
 1233+A206 E5               push hl
 1234+A207 D5               push de
 1235+A208 C5               push bc
 1236+A209 F5               push af
 1237+A20A                  ;2/2
 1238+A20A 31 FE 83         ld sp,GAME_WINDOW_START+(BUFFER_MIDDLE*73)
 1239+A20D F1               pop af
 1240+A20E C1               pop bc
 1241+A20F D1               pop de
 1242+A210 E1               pop hl
 1243+A211 DD E1            pop ix
 1244+A213 FD E1            pop iy
 1245+A215 31 98 44         ld sp,L4+C4+VMEM_SEG_0+(BUFFER_CHUNK_LENGTH*2)
 1246+A218 FD E5            push iy
 1247+A21A DD E5            push ix
 1248+A21C E5               push hl
 1249+A21D D5               push de
 1250+A21E C5               push bc
 1251+A21F F5               push af
 1252+A220                  ;Scanline 5
 1253+A220                  ;1/2
 1254+A220 31 0E 84         ld sp,BUFFER_SIDE_EXTRA+GAME_WINDOW_START+(BUFFER_MIDDLE*74)
 1255+A223 F1               pop af
 1256+A224 C1               pop bc
 1257+A225 D1               pop de
 1258+A226 E1               pop hl
 1259+A227 DD E1            pop ix
 1260+A229 FD E1            pop iy
 1261+A22B 31 8C 45         ld sp,L5+C4+VMEM_SEG_0+BUFFER_CHUNK_LENGTH
 1262+A22E FD E5            push iy
 1263+A230 DD E5            push ix
 1264+A232 E5               push hl
 1265+A233 D5               push de
 1266+A234 C5               push bc
 1267+A235 F5               push af
 1268+A236                  ;2/2
 1269+A236 31 1A 84         ld sp,GAME_WINDOW_START+(BUFFER_MIDDLE*75)
 1270+A239 F1               pop af
 1271+A23A C1               pop bc
 1272+A23B D1               pop de
 1273+A23C E1               pop hl
 1274+A23D DD E1            pop ix
 1275+A23F FD E1            pop iy
 1276+A241 31 98 45         ld sp,L5+C4+VMEM_SEG_0+(BUFFER_CHUNK_LENGTH*2)
 1277+A244 FD E5            push iy
 1278+A246 DD E5            push ix
 1279+A248 E5               push hl
 1280+A249 D5               push de
 1281+A24A C5               push bc
 1282+A24B F5               push af
 1283+A24C                  ;Scanline 6
 1284+A24C                  ;1/2
 1285+A24C 31 2A 84         ld sp,BUFFER_SIDE_EXTRA+GAME_WINDOW_START+(BUFFER_MIDDLE*76)
 1286+A24F F1               pop af
 1287+A250 C1               pop bc
 1288+A251 D1               pop de
 1289+A252 E1               pop hl
 1290+A253 DD E1            pop ix
 1291+A255 FD E1            pop iy
 1292+A257 31 8C 46         ld sp,L6+C4+VMEM_SEG_0+BUFFER_CHUNK_LENGTH
 1293+A25A FD E5            push iy
 1294+A25C DD E5            push ix
 1295+A25E E5               push hl
 1296+A25F D5               push de
 1297+A260 C5               push bc
 1298+A261 F5               push af
 1299+A262                  ;2/2
 1300+A262 31 36 84         ld sp,GAME_WINDOW_START+(BUFFER_MIDDLE*77)
 1301+A265 F1               pop af
 1302+A266 C1               pop bc
 1303+A267 D1               pop de
 1304+A268 E1               pop hl
 1305+A269 DD E1            pop ix
 1306+A26B FD E1            pop iy
 1307+A26D 31 98 46         ld sp,L6+C4+VMEM_SEG_0+(BUFFER_CHUNK_LENGTH*2)
 1308+A270 FD E5            push iy
 1309+A272 DD E5            push ix
 1310+A274 E5               push hl
 1311+A275 D5               push de
 1312+A276 C5               push bc
 1313+A277 F5               push af
 1314+A278                  ;Scanline 7
 1315+A278                  ;1/2
 1316+A278 31 46 84         ld sp,BUFFER_SIDE_EXTRA+GAME_WINDOW_START+(BUFFER_MIDDLE*78)
 1317+A27B F1               pop af
 1318+A27C C1               pop bc
 1319+A27D D1               pop de
 1320+A27E E1               pop hl
 1321+A27F DD E1            pop ix
 1322+A281 FD E1            pop iy
 1323+A283 31 8C 47         ld sp,L7+C4+VMEM_SEG_0+BUFFER_CHUNK_LENGTH
 1324+A286 FD E5            push iy
 1325+A288 DD E5            push ix
 1326+A28A E5               push hl
 1327+A28B D5               push de
 1328+A28C C5               push bc
 1329+A28D F5               push af
 1330+A28E                  ;2/2
 1331+A28E 31 52 84         ld sp,GAME_WINDOW_START+(BUFFER_MIDDLE*79)
 1332+A291 F1               pop af
 1333+A292 C1               pop bc
 1334+A293 D1               pop de
 1335+A294 E1               pop hl
 1336+A295 DD E1            pop ix
 1337+A297 FD E1            pop iy
 1338+A299 31 98 47         ld sp,L7+C4+VMEM_SEG_0+(BUFFER_CHUNK_LENGTH*2)
 1339+A29C FD E5            push iy
 1340+A29E DD E5            push ix
 1341+A2A0 E5               push hl
 1342+A2A1 D5               push de
 1343+A2A2 C5               push bc
 1344+A2A3 F5               push af
 1345+A2A4
 1346+A2A4
 1347+A2A4
 1348+A2A4
 1349+A2A4
 1350+A2A4                  ;Char Row 5
 1351+A2A4
 1352+A2A4                  ;Scanline 0
 1353+A2A4                  ;1/2
 1354+A2A4 31 62 84         ld sp,BUFFER_SIDE_EXTRA+GAME_WINDOW_START+(BUFFER_MIDDLE*80)
 1355+A2A7 F1               pop af
 1356+A2A8 C1               pop bc
 1357+A2A9 D1               pop de
 1358+A2AA E1               pop hl
 1359+A2AB DD E1            pop ix
 1360+A2AD FD E1            pop iy
 1361+A2AF 31 AC 40         ld sp,C5+VMEM_SEG_0+BUFFER_CHUNK_LENGTH
 1362+A2B2 FD E5            push iy
 1363+A2B4 DD E5            push ix
 1364+A2B6 E5               push hl
 1365+A2B7 D5               push de
 1366+A2B8 C5               push bc
 1367+A2B9 F5               push af
 1368+A2BA                  ;2/2
 1369+A2BA 31 6E 84         ld sp,GAME_WINDOW_START+(BUFFER_MIDDLE*81)
 1370+A2BD F1               pop af
 1371+A2BE C1               pop bc
 1372+A2BF D1               pop de
 1373+A2C0 E1               pop hl
 1374+A2C1 DD E1            pop ix
 1375+A2C3 FD E1            pop iy
 1376+A2C5 31 B8 40         ld sp,C5+VMEM_SEG_0+(BUFFER_CHUNK_LENGTH*2)
 1377+A2C8 FD E5            push iy
 1378+A2CA DD E5            push ix
 1379+A2CC E5               push hl
 1380+A2CD D5               push de
 1381+A2CE C5               push bc
 1382+A2CF F5               push af
 1383+A2D0                  ;Scanline 1
 1384+A2D0                  ;1/2
 1385+A2D0 31 7E 84         ld sp,BUFFER_SIDE_EXTRA+GAME_WINDOW_START+(BUFFER_MIDDLE*82)
 1386+A2D3 F1               pop af
 1387+A2D4 C1               pop bc
 1388+A2D5 D1               pop de
 1389+A2D6 E1               pop hl
 1390+A2D7 DD E1            pop ix
 1391+A2D9 FD E1            pop iy
 1392+A2DB 31 AC 41         ld sp,L1+C5+VMEM_SEG_0+BUFFER_CHUNK_LENGTH
 1393+A2DE FD E5            push iy
 1394+A2E0 DD E5            push ix
 1395+A2E2 E5               push hl
 1396+A2E3 D5               push de
 1397+A2E4 C5               push bc
 1398+A2E5 F5               push af
 1399+A2E6                  ;2/2
 1400+A2E6 31 8A 84         ld sp,GAME_WINDOW_START+(BUFFER_MIDDLE*83)
 1401+A2E9 F1               pop af
 1402+A2EA C1               pop bc
 1403+A2EB D1               pop de
 1404+A2EC E1               pop hl
 1405+A2ED DD E1            pop ix
 1406+A2EF FD E1            pop iy
 1407+A2F1 31 B8 41         ld sp,L1+C5+VMEM_SEG_0+(BUFFER_CHUNK_LENGTH*2)
 1408+A2F4 FD E5            push iy
 1409+A2F6 DD E5            push ix
 1410+A2F8 E5               push hl
 1411+A2F9 D5               push de
 1412+A2FA C5               push bc
 1413+A2FB F5               push af
 1414+A2FC                  ;Scanline 2
 1415+A2FC                  ;1/2
 1416+A2FC 31 9A 84         ld sp,BUFFER_SIDE_EXTRA+GAME_WINDOW_START+(BUFFER_MIDDLE*84)
 1417+A2FF F1               pop af
 1418+A300 C1               pop bc
 1419+A301 D1               pop de
 1420+A302 E1               pop hl
 1421+A303 DD E1            pop ix
 1422+A305 FD E1            pop iy
 1423+A307 31 AC 42         ld sp,L2+C5+VMEM_SEG_0+BUFFER_CHUNK_LENGTH
 1424+A30A FD E5            push iy
 1425+A30C DD E5            push ix
 1426+A30E E5               push hl
 1427+A30F D5               push de
 1428+A310 C5               push bc
 1429+A311 F5               push af
 1430+A312                  ;2/2
 1431+A312 31 A6 84         ld sp,GAME_WINDOW_START+(BUFFER_MIDDLE*85)
 1432+A315 F1               pop af
 1433+A316 C1               pop bc
 1434+A317 D1               pop de
 1435+A318 E1               pop hl
 1436+A319 DD E1            pop ix
 1437+A31B FD E1            pop iy
 1438+A31D 31 B8 42         ld sp,L2+C5+VMEM_SEG_0+(BUFFER_CHUNK_LENGTH*2)
 1439+A320 FD E5            push iy
 1440+A322 DD E5            push ix
 1441+A324 E5               push hl
 1442+A325 D5               push de
 1443+A326 C5               push bc
 1444+A327 F5               push af
 1445+A328                  ;Scanline 3
 1446+A328                  ;1/2
 1447+A328 31 B6 84         ld sp,BUFFER_SIDE_EXTRA+GAME_WINDOW_START+(BUFFER_MIDDLE*86)
 1448+A32B F1               pop af
 1449+A32C C1               pop bc
 1450+A32D D1               pop de
 1451+A32E E1               pop hl
 1452+A32F DD E1            pop ix
 1453+A331 FD E1            pop iy
 1454+A333 31 AC 43         ld sp,L3+C5+VMEM_SEG_0+BUFFER_CHUNK_LENGTH
 1455+A336 FD E5            push iy
 1456+A338 DD E5            push ix
 1457+A33A E5               push hl
 1458+A33B D5               push de
 1459+A33C C5               push bc
 1460+A33D F5               push af
 1461+A33E                  ;2/2
 1462+A33E 31 C2 84         ld sp,GAME_WINDOW_START+(BUFFER_MIDDLE*87)
 1463+A341 F1               pop af
 1464+A342 C1               pop bc
 1465+A343 D1               pop de
 1466+A344 E1               pop hl
 1467+A345 DD E1            pop ix
 1468+A347 FD E1            pop iy
 1469+A349 31 B8 43         ld sp,L3+C5+VMEM_SEG_0+(BUFFER_CHUNK_LENGTH*2)
 1470+A34C FD E5            push iy
 1471+A34E DD E5            push ix
 1472+A350 E5               push hl
 1473+A351 D5               push de
 1474+A352 C5               push bc
 1475+A353 F5               push af
 1476+A354                  ;Scanline 4
 1477+A354                  ;1/2
 1478+A354 31 D2 84         ld sp,BUFFER_SIDE_EXTRA+GAME_WINDOW_START+(BUFFER_MIDDLE*88)
 1479+A357 F1               pop af
 1480+A358 C1               pop bc
 1481+A359 D1               pop de
 1482+A35A E1               pop hl
 1483+A35B DD E1            pop ix
 1484+A35D FD E1            pop iy
 1485+A35F 31 AC 44         ld sp,L4+C5+VMEM_SEG_0+BUFFER_CHUNK_LENGTH
 1486+A362 FD E5            push iy
 1487+A364 DD E5            push ix
 1488+A366 E5               push hl
 1489+A367 D5               push de
 1490+A368 C5               push bc
 1491+A369 F5               push af
 1492+A36A                  ;2/2
 1493+A36A 31 DE 84         ld sp,GAME_WINDOW_START+(BUFFER_MIDDLE*89)
 1494+A36D F1               pop af
 1495+A36E C1               pop bc
 1496+A36F D1               pop de
 1497+A370 E1               pop hl
 1498+A371 DD E1            pop ix
 1499+A373 FD E1            pop iy
 1500+A375 31 B8 44         ld sp,L4+C5+VMEM_SEG_0+(BUFFER_CHUNK_LENGTH*2)
 1501+A378 FD E5            push iy
 1502+A37A DD E5            push ix
 1503+A37C E5               push hl
 1504+A37D D5               push de
 1505+A37E C5               push bc
 1506+A37F F5               push af
 1507+A380                  ;Scanline 5
 1508+A380                  ;1/2
 1509+A380 31 EE 84         ld sp,BUFFER_SIDE_EXTRA+GAME_WINDOW_START+(BUFFER_MIDDLE*90)
 1510+A383 F1               pop af
 1511+A384 C1               pop bc
 1512+A385 D1               pop de
 1513+A386 E1               pop hl
 1514+A387 DD E1            pop ix
 1515+A389 FD E1            pop iy
 1516+A38B 31 AC 45         ld sp,L5+C5+VMEM_SEG_0+BUFFER_CHUNK_LENGTH
 1517+A38E FD E5            push iy
 1518+A390 DD E5            push ix
 1519+A392 E5               push hl
 1520+A393 D5               push de
 1521+A394 C5               push bc
 1522+A395 F5               push af
 1523+A396                  ;2/2
 1524+A396 31 FA 84         ld sp,GAME_WINDOW_START+(BUFFER_MIDDLE*91)
 1525+A399 F1               pop af
 1526+A39A C1               pop bc
 1527+A39B D1               pop de
 1528+A39C E1               pop hl
 1529+A39D DD E1            pop ix
 1530+A39F FD E1            pop iy
 1531+A3A1 31 B8 45         ld sp,L5+C5+VMEM_SEG_0+(BUFFER_CHUNK_LENGTH*2)
 1532+A3A4 FD E5            push iy
 1533+A3A6 DD E5            push ix
 1534+A3A8 E5               push hl
 1535+A3A9 D5               push de
 1536+A3AA C5               push bc
 1537+A3AB F5               push af
 1538+A3AC                  ;Scanline 6
 1539+A3AC                  ;1/2
 1540+A3AC 31 0A 85         ld sp,BUFFER_SIDE_EXTRA+GAME_WINDOW_START+(BUFFER_MIDDLE*92)
 1541+A3AF F1               pop af
 1542+A3B0 C1               pop bc
 1543+A3B1 D1               pop de
 1544+A3B2 E1               pop hl
 1545+A3B3 DD E1            pop ix
 1546+A3B5 FD E1            pop iy
 1547+A3B7 31 AC 46         ld sp,L6+C5+VMEM_SEG_0+BUFFER_CHUNK_LENGTH
 1548+A3BA FD E5            push iy
 1549+A3BC DD E5            push ix
 1550+A3BE E5               push hl
 1551+A3BF D5               push de
 1552+A3C0 C5               push bc
 1553+A3C1 F5               push af
 1554+A3C2                  ;2/2
 1555+A3C2 31 16 85         ld sp,GAME_WINDOW_START+(BUFFER_MIDDLE*93)
 1556+A3C5 F1               pop af
 1557+A3C6 C1               pop bc
 1558+A3C7 D1               pop de
 1559+A3C8 E1               pop hl
 1560+A3C9 DD E1            pop ix
 1561+A3CB FD E1            pop iy
 1562+A3CD 31 B8 46         ld sp,L6+C5+VMEM_SEG_0+(BUFFER_CHUNK_LENGTH*2)
 1563+A3D0 FD E5            push iy
 1564+A3D2 DD E5            push ix
 1565+A3D4 E5               push hl
 1566+A3D5 D5               push de
 1567+A3D6 C5               push bc
 1568+A3D7 F5               push af
 1569+A3D8                  ;Scanline 7
 1570+A3D8                  ;1/2
 1571+A3D8 31 26 85         ld sp,BUFFER_SIDE_EXTRA+GAME_WINDOW_START+(BUFFER_MIDDLE*94)
 1572+A3DB F1               pop af
 1573+A3DC C1               pop bc
 1574+A3DD D1               pop de
 1575+A3DE E1               pop hl
 1576+A3DF DD E1            pop ix
 1577+A3E1 FD E1            pop iy
 1578+A3E3 31 AC 47         ld sp,L7+C5+VMEM_SEG_0+BUFFER_CHUNK_LENGTH
 1579+A3E6 FD E5            push iy
 1580+A3E8 DD E5            push ix
 1581+A3EA E5               push hl
 1582+A3EB D5               push de
 1583+A3EC C5               push bc
 1584+A3ED F5               push af
 1585+A3EE                  ;2/2
 1586+A3EE 31 32 85         ld sp,GAME_WINDOW_START+(BUFFER_MIDDLE*95)
 1587+A3F1 F1               pop af
 1588+A3F2 C1               pop bc
 1589+A3F3 D1               pop de
 1590+A3F4 E1               pop hl
 1591+A3F5 DD E1            pop ix
 1592+A3F7 FD E1            pop iy
 1593+A3F9 31 B8 47         ld sp,L7+C5+VMEM_SEG_0+(BUFFER_CHUNK_LENGTH*2)
 1594+A3FC FD E5            push iy
 1595+A3FE DD E5            push ix
 1596+A400 E5               push hl
 1597+A401 D5               push de
 1598+A402 C5               push bc
 1599+A403 F5               push af
 1600+A404
 1601+A404
 1602+A404
 1603+A404                  ;Char Row 6
 1604+A404
 1605+A404                  ;Scanline 0
 1606+A404                  ;1/2
 1607+A404 31 42 85         ld sp,BUFFER_SIDE_EXTRA+GAME_WINDOW_START+(BUFFER_MIDDLE*96)
 1608+A407 F1               pop af
 1609+A408 C1               pop bc
 1610+A409 D1               pop de
 1611+A40A E1               pop hl
 1612+A40B DD E1            pop ix
 1613+A40D FD E1            pop iy
 1614+A40F 31 CC 40         ld sp,C6+VMEM_SEG_0+BUFFER_CHUNK_LENGTH
 1615+A412 FD E5            push iy
 1616+A414 DD E5            push ix
 1617+A416 E5               push hl
 1618+A417 D5               push de
 1619+A418 C5               push bc
 1620+A419 F5               push af
 1621+A41A                  ;2/2
 1622+A41A 31 4E 85         ld sp,GAME_WINDOW_START+(BUFFER_MIDDLE*97)
 1623+A41D F1               pop af
 1624+A41E C1               pop bc
 1625+A41F D1               pop de
 1626+A420 E1               pop hl
 1627+A421 DD E1            pop ix
 1628+A423 FD E1            pop iy
 1629+A425 31 D8 40         ld sp,C6+VMEM_SEG_0+(BUFFER_CHUNK_LENGTH*2)
 1630+A428 FD E5            push iy
 1631+A42A DD E5            push ix
 1632+A42C E5               push hl
 1633+A42D D5               push de
 1634+A42E C5               push bc
 1635+A42F F5               push af
 1636+A430                  ;Scanline 1
 1637+A430                  ;1/2
 1638+A430 31 5E 85         ld sp,BUFFER_SIDE_EXTRA+GAME_WINDOW_START+(BUFFER_MIDDLE*98)
 1639+A433 F1               pop af
 1640+A434 C1               pop bc
 1641+A435 D1               pop de
 1642+A436 E1               pop hl
 1643+A437 DD E1            pop ix
 1644+A439 FD E1            pop iy
 1645+A43B 31 CC 41         ld sp,L1+C6+VMEM_SEG_0+BUFFER_CHUNK_LENGTH
 1646+A43E FD E5            push iy
 1647+A440 DD E5            push ix
 1648+A442 E5               push hl
 1649+A443 D5               push de
 1650+A444 C5               push bc
 1651+A445 F5               push af
 1652+A446                  ;2/2
 1653+A446 31 6A 85         ld sp,GAME_WINDOW_START+(BUFFER_MIDDLE*99)
 1654+A449 F1               pop af
 1655+A44A C1               pop bc
 1656+A44B D1               pop de
 1657+A44C E1               pop hl
 1658+A44D DD E1            pop ix
 1659+A44F FD E1            pop iy
 1660+A451 31 D8 41         ld sp,L1+C6+VMEM_SEG_0+(BUFFER_CHUNK_LENGTH*2)
 1661+A454 FD E5            push iy
 1662+A456 DD E5            push ix
 1663+A458 E5               push hl
 1664+A459 D5               push de
 1665+A45A C5               push bc
 1666+A45B F5               push af
 1667+A45C                  ;Scanline 2
 1668+A45C                  ;1/2
 1669+A45C 31 7A 85         ld sp,BUFFER_SIDE_EXTRA+GAME_WINDOW_START+(BUFFER_MIDDLE*100)
 1670+A45F F1               pop af
 1671+A460 C1               pop bc
 1672+A461 D1               pop de
 1673+A462 E1               pop hl
 1674+A463 DD E1            pop ix
 1675+A465 FD E1            pop iy
 1676+A467 31 CC 42         ld sp,L2+C6+VMEM_SEG_0+BUFFER_CHUNK_LENGTH
 1677+A46A FD E5            push iy
 1678+A46C DD E5            push ix
 1679+A46E E5               push hl
 1680+A46F D5               push de
 1681+A470 C5               push bc
 1682+A471 F5               push af
 1683+A472                  ;2/2
 1684+A472 31 86 85         ld sp,GAME_WINDOW_START+(BUFFER_MIDDLE*101)
 1685+A475 F1               pop af
 1686+A476 C1               pop bc
 1687+A477 D1               pop de
 1688+A478 E1               pop hl
 1689+A479 DD E1            pop ix
 1690+A47B FD E1            pop iy
 1691+A47D 31 D8 42         ld sp,L2+C6+VMEM_SEG_0+(BUFFER_CHUNK_LENGTH*2)
 1692+A480 FD E5            push iy
 1693+A482 DD E5            push ix
 1694+A484 E5               push hl
 1695+A485 D5               push de
 1696+A486 C5               push bc
 1697+A487 F5               push af
 1698+A488                  ;Scanline 3
 1699+A488                  ;1/2
 1700+A488 31 96 85         ld sp,BUFFER_SIDE_EXTRA+GAME_WINDOW_START+(BUFFER_MIDDLE*102)
 1701+A48B F1               pop af
 1702+A48C C1               pop bc
 1703+A48D D1               pop de
 1704+A48E E1               pop hl
 1705+A48F DD E1            pop ix
 1706+A491 FD E1            pop iy
 1707+A493 31 CC 43         ld sp,L3+C6+VMEM_SEG_0+BUFFER_CHUNK_LENGTH
 1708+A496 FD E5            push iy
 1709+A498 DD E5            push ix
 1710+A49A E5               push hl
 1711+A49B D5               push de
 1712+A49C C5               push bc
 1713+A49D F5               push af
 1714+A49E                  ;2/2
 1715+A49E 31 A2 85         ld sp,GAME_WINDOW_START+(BUFFER_MIDDLE*103)
 1716+A4A1 F1               pop af
 1717+A4A2 C1               pop bc
 1718+A4A3 D1               pop de
 1719+A4A4 E1               pop hl
 1720+A4A5 DD E1            pop ix
 1721+A4A7 FD E1            pop iy
 1722+A4A9 31 D8 43         ld sp,L3+C6+VMEM_SEG_0+(BUFFER_CHUNK_LENGTH*2)
 1723+A4AC FD E5            push iy
 1724+A4AE DD E5            push ix
 1725+A4B0 E5               push hl
 1726+A4B1 D5               push de
 1727+A4B2 C5               push bc
 1728+A4B3 F5               push af
 1729+A4B4                  ;Scanline 4
 1730+A4B4                  ;1/2
 1731+A4B4 31 B2 85         ld sp,BUFFER_SIDE_EXTRA+GAME_WINDOW_START+(BUFFER_MIDDLE*104)
 1732+A4B7 F1               pop af
 1733+A4B8 C1               pop bc
 1734+A4B9 D1               pop de
 1735+A4BA E1               pop hl
 1736+A4BB DD E1            pop ix
 1737+A4BD FD E1            pop iy
 1738+A4BF 31 CC 44         ld sp,L4+C6+VMEM_SEG_0+BUFFER_CHUNK_LENGTH
 1739+A4C2 FD E5            push iy
 1740+A4C4 DD E5            push ix
 1741+A4C6 E5               push hl
 1742+A4C7 D5               push de
 1743+A4C8 C5               push bc
 1744+A4C9 F5               push af
 1745+A4CA                  ;2/2
 1746+A4CA 31 BE 85         ld sp,GAME_WINDOW_START+(BUFFER_MIDDLE*105)
 1747+A4CD F1               pop af
 1748+A4CE C1               pop bc
 1749+A4CF D1               pop de
 1750+A4D0 E1               pop hl
 1751+A4D1 DD E1            pop ix
 1752+A4D3 FD E1            pop iy
 1753+A4D5 31 D8 44         ld sp,L4+C6+VMEM_SEG_0+(BUFFER_CHUNK_LENGTH*2)
 1754+A4D8 FD E5            push iy
 1755+A4DA DD E5            push ix
 1756+A4DC E5               push hl
 1757+A4DD D5               push de
 1758+A4DE C5               push bc
 1759+A4DF F5               push af
 1760+A4E0                  ;Scanline 5
 1761+A4E0                  ;1/2
 1762+A4E0 31 CE 85         ld sp,BUFFER_SIDE_EXTRA+GAME_WINDOW_START+(BUFFER_MIDDLE*106)
 1763+A4E3 F1               pop af
 1764+A4E4 C1               pop bc
 1765+A4E5 D1               pop de
 1766+A4E6 E1               pop hl
 1767+A4E7 DD E1            pop ix
 1768+A4E9 FD E1            pop iy
 1769+A4EB 31 CC 45         ld sp,L5+C6+VMEM_SEG_0+BUFFER_CHUNK_LENGTH
 1770+A4EE FD E5            push iy
 1771+A4F0 DD E5            push ix
 1772+A4F2 E5               push hl
 1773+A4F3 D5               push de
 1774+A4F4 C5               push bc
 1775+A4F5 F5               push af
 1776+A4F6                  ;2/2
 1777+A4F6 31 DA 85         ld sp,GAME_WINDOW_START+(BUFFER_MIDDLE*107)
 1778+A4F9 F1               pop af
 1779+A4FA C1               pop bc
 1780+A4FB D1               pop de
 1781+A4FC E1               pop hl
 1782+A4FD DD E1            pop ix
 1783+A4FF FD E1            pop iy
 1784+A501 31 D8 45         ld sp,L5+C6+VMEM_SEG_0+(BUFFER_CHUNK_LENGTH*2)
 1785+A504 FD E5            push iy
 1786+A506 DD E5            push ix
 1787+A508 E5               push hl
 1788+A509 D5               push de
 1789+A50A C5               push bc
 1790+A50B F5               push af
 1791+A50C                  ;Scanline 6
 1792+A50C                  ;1/2
 1793+A50C 31 EA 85         ld sp,BUFFER_SIDE_EXTRA+GAME_WINDOW_START+(BUFFER_MIDDLE*108)
 1794+A50F F1               pop af
 1795+A510 C1               pop bc
 1796+A511 D1               pop de
 1797+A512 E1               pop hl
 1798+A513 DD E1            pop ix
 1799+A515 FD E1            pop iy
 1800+A517 31 CC 46         ld sp,L6+C6+VMEM_SEG_0+BUFFER_CHUNK_LENGTH
 1801+A51A FD E5            push iy
 1802+A51C DD E5            push ix
 1803+A51E E5               push hl
 1804+A51F D5               push de
 1805+A520 C5               push bc
 1806+A521 F5               push af
 1807+A522                  ;2/2
 1808+A522 31 F6 85         ld sp,GAME_WINDOW_START+(BUFFER_MIDDLE*109)
 1809+A525 F1               pop af
 1810+A526 C1               pop bc
 1811+A527 D1               pop de
 1812+A528 E1               pop hl
 1813+A529 DD E1            pop ix
 1814+A52B FD E1            pop iy
 1815+A52D 31 D8 46         ld sp,L6+C6+VMEM_SEG_0+(BUFFER_CHUNK_LENGTH*2)
 1816+A530 FD E5            push iy
 1817+A532 DD E5            push ix
 1818+A534 E5               push hl
 1819+A535 D5               push de
 1820+A536 C5               push bc
 1821+A537 F5               push af
 1822+A538                  ;Scanline 7
 1823+A538                  ;1/2
 1824+A538 31 06 86         ld sp,BUFFER_SIDE_EXTRA+GAME_WINDOW_START+(BUFFER_MIDDLE*110)
 1825+A53B F1               pop af
 1826+A53C C1               pop bc
 1827+A53D D1               pop de
 1828+A53E E1               pop hl
 1829+A53F DD E1            pop ix
 1830+A541 FD E1            pop iy
 1831+A543 31 CC 47         ld sp,L7+C6+VMEM_SEG_0+BUFFER_CHUNK_LENGTH
 1832+A546 FD E5            push iy
 1833+A548 DD E5            push ix
 1834+A54A E5               push hl
 1835+A54B D5               push de
 1836+A54C C5               push bc
 1837+A54D F5               push af
 1838+A54E                  ;2/2
 1839+A54E 31 12 86         ld sp,GAME_WINDOW_START+(BUFFER_MIDDLE*111)
 1840+A551 F1               pop af
 1841+A552 C1               pop bc
 1842+A553 D1               pop de
 1843+A554 E1               pop hl
 1844+A555 DD E1            pop ix
 1845+A557 FD E1            pop iy
 1846+A559 31 D8 47         ld sp,L7+C6+VMEM_SEG_0+(BUFFER_CHUNK_LENGTH*2)
 1847+A55C FD E5            push iy
 1848+A55E DD E5            push ix
 1849+A560 E5               push hl
 1850+A561 D5               push de
 1851+A562 C5               push bc
 1852+A563 F5               push af
 1853+A564
 1854+A564
 1855+A564
 1856+A564                  ;Char Row 7
 1857+A564
 1858+A564                  ;Scanline 0
 1859+A564                  ;1/2
 1860+A564 31 22 86         ld sp,BUFFER_SIDE_EXTRA+GAME_WINDOW_START+(BUFFER_MIDDLE*112)
 1861+A567 F1               pop af
 1862+A568 C1               pop bc
 1863+A569 D1               pop de
 1864+A56A E1               pop hl
 1865+A56B DD E1            pop ix
 1866+A56D FD E1            pop iy
 1867+A56F 31 EC 40         ld sp,C7+VMEM_SEG_0+BUFFER_CHUNK_LENGTH
 1868+A572 FD E5            push iy
 1869+A574 DD E5            push ix
 1870+A576 E5               push hl
 1871+A577 D5               push de
 1872+A578 C5               push bc
 1873+A579 F5               push af
 1874+A57A                  ;2/2
 1875+A57A 31 2E 86         ld sp,GAME_WINDOW_START+(BUFFER_MIDDLE*113)
 1876+A57D F1               pop af
 1877+A57E C1               pop bc
 1878+A57F D1               pop de
 1879+A580 E1               pop hl
 1880+A581 DD E1            pop ix
 1881+A583 FD E1            pop iy
 1882+A585 31 F8 40         ld sp,C7+VMEM_SEG_0+(BUFFER_CHUNK_LENGTH*2)
 1883+A588 FD E5            push iy
 1884+A58A DD E5            push ix
 1885+A58C E5               push hl
 1886+A58D D5               push de
 1887+A58E C5               push bc
 1888+A58F F5               push af
 1889+A590                  ;Scanline 1
 1890+A590                  ;1/2
 1891+A590 31 3E 86         ld sp,BUFFER_SIDE_EXTRA+GAME_WINDOW_START+(BUFFER_MIDDLE*114)
 1892+A593 F1               pop af
 1893+A594 C1               pop bc
 1894+A595 D1               pop de
 1895+A596 E1               pop hl
 1896+A597 DD E1            pop ix
 1897+A599 FD E1            pop iy
 1898+A59B 31 EC 41         ld sp,L1+C7+VMEM_SEG_0+BUFFER_CHUNK_LENGTH
 1899+A59E FD E5            push iy
 1900+A5A0 DD E5            push ix
 1901+A5A2 E5               push hl
 1902+A5A3 D5               push de
 1903+A5A4 C5               push bc
 1904+A5A5 F5               push af
 1905+A5A6                  ;2/2
 1906+A5A6 31 4A 86         ld sp,GAME_WINDOW_START+(BUFFER_MIDDLE*115)
 1907+A5A9 F1               pop af
 1908+A5AA C1               pop bc
 1909+A5AB D1               pop de
 1910+A5AC E1               pop hl
 1911+A5AD DD E1            pop ix
 1912+A5AF FD E1            pop iy
 1913+A5B1 31 F8 41         ld sp,L1+C7+VMEM_SEG_0+(BUFFER_CHUNK_LENGTH*2)
 1914+A5B4 FD E5            push iy
 1915+A5B6 DD E5            push ix
 1916+A5B8 E5               push hl
 1917+A5B9 D5               push de
 1918+A5BA C5               push bc
 1919+A5BB F5               push af
 1920+A5BC                  ;Scanline 2
 1921+A5BC                  ;1/2
 1922+A5BC 31 5A 86         ld sp,BUFFER_SIDE_EXTRA+GAME_WINDOW_START+(BUFFER_MIDDLE*116)
 1923+A5BF F1               pop af
 1924+A5C0 C1               pop bc
 1925+A5C1 D1               pop de
 1926+A5C2 E1               pop hl
 1927+A5C3 DD E1            pop ix
 1928+A5C5 FD E1            pop iy
 1929+A5C7 31 EC 42         ld sp,L2+C7+VMEM_SEG_0+BUFFER_CHUNK_LENGTH
 1930+A5CA FD E5            push iy
 1931+A5CC DD E5            push ix
 1932+A5CE E5               push hl
 1933+A5CF D5               push de
 1934+A5D0 C5               push bc
 1935+A5D1 F5               push af
 1936+A5D2                  ;2/2
 1937+A5D2 31 66 86         ld sp,GAME_WINDOW_START+(BUFFER_MIDDLE*117)
 1938+A5D5 F1               pop af
 1939+A5D6 C1               pop bc
 1940+A5D7 D1               pop de
 1941+A5D8 E1               pop hl
 1942+A5D9 DD E1            pop ix
 1943+A5DB FD E1            pop iy
 1944+A5DD 31 F8 42         ld sp,L2+C7+VMEM_SEG_0+(BUFFER_CHUNK_LENGTH*2)
 1945+A5E0 FD E5            push iy
 1946+A5E2 DD E5            push ix
 1947+A5E4 E5               push hl
 1948+A5E5 D5               push de
 1949+A5E6 C5               push bc
 1950+A5E7 F5               push af
 1951+A5E8                  ;Scanline 3
 1952+A5E8                  ;1/2
 1953+A5E8 31 76 86         ld sp,BUFFER_SIDE_EXTRA+GAME_WINDOW_START+(BUFFER_MIDDLE*118)
 1954+A5EB F1               pop af
 1955+A5EC C1               pop bc
 1956+A5ED D1               pop de
 1957+A5EE E1               pop hl
 1958+A5EF DD E1            pop ix
 1959+A5F1 FD E1            pop iy
 1960+A5F3 31 EC 43         ld sp,L3+C7+VMEM_SEG_0+BUFFER_CHUNK_LENGTH
 1961+A5F6 FD E5            push iy
 1962+A5F8 DD E5            push ix
 1963+A5FA E5               push hl
 1964+A5FB D5               push de
 1965+A5FC C5               push bc
 1966+A5FD F5               push af
 1967+A5FE                  ;2/2
 1968+A5FE 31 82 86         ld sp,GAME_WINDOW_START+(BUFFER_MIDDLE*119)
 1969+A601 F1               pop af
 1970+A602 C1               pop bc
 1971+A603 D1               pop de
 1972+A604 E1               pop hl
 1973+A605 DD E1            pop ix
 1974+A607 FD E1            pop iy
 1975+A609 31 F8 43         ld sp,L3+C7+VMEM_SEG_0+(BUFFER_CHUNK_LENGTH*2)
 1976+A60C FD E5            push iy
 1977+A60E DD E5            push ix
 1978+A610 E5               push hl
 1979+A611 D5               push de
 1980+A612 C5               push bc
 1981+A613 F5               push af
 1982+A614                  ;Scanline 4
 1983+A614                  ;1/2
 1984+A614 31 92 86         ld sp,BUFFER_SIDE_EXTRA+GAME_WINDOW_START+(BUFFER_MIDDLE*120)
 1985+A617 F1               pop af
 1986+A618 C1               pop bc
 1987+A619 D1               pop de
 1988+A61A E1               pop hl
 1989+A61B DD E1            pop ix
 1990+A61D FD E1            pop iy
 1991+A61F 31 EC 44         ld sp,L4+C7+VMEM_SEG_0+BUFFER_CHUNK_LENGTH
 1992+A622 FD E5            push iy
 1993+A624 DD E5            push ix
 1994+A626 E5               push hl
 1995+A627 D5               push de
 1996+A628 C5               push bc
 1997+A629 F5               push af
 1998+A62A                  ;2/2
 1999+A62A 31 9E 86         ld sp,GAME_WINDOW_START+(BUFFER_MIDDLE*121)
 2000+A62D F1               pop af
 2001+A62E C1               pop bc
 2002+A62F D1               pop de
 2003+A630 E1               pop hl
 2004+A631 DD E1            pop ix
 2005+A633 FD E1            pop iy
 2006+A635 31 F8 44         ld sp,L4+C7+VMEM_SEG_0+(BUFFER_CHUNK_LENGTH*2)
 2007+A638 FD E5            push iy
 2008+A63A DD E5            push ix
 2009+A63C E5               push hl
 2010+A63D D5               push de
 2011+A63E C5               push bc
 2012+A63F F5               push af
 2013+A640                  ;Scanline 5
 2014+A640                  ;1/2
 2015+A640 31 AE 86         ld sp,BUFFER_SIDE_EXTRA+GAME_WINDOW_START+(BUFFER_MIDDLE*122)
 2016+A643 F1               pop af
 2017+A644 C1               pop bc
 2018+A645 D1               pop de
 2019+A646 E1               pop hl
 2020+A647 DD E1            pop ix
 2021+A649 FD E1            pop iy
 2022+A64B 31 EC 45         ld sp,L5+C7+VMEM_SEG_0+BUFFER_CHUNK_LENGTH
 2023+A64E FD E5            push iy
 2024+A650 DD E5            push ix
 2025+A652 E5               push hl
 2026+A653 D5               push de
 2027+A654 C5               push bc
 2028+A655 F5               push af
 2029+A656                  ;2/2
 2030+A656 31 BA 86         ld sp,GAME_WINDOW_START+(BUFFER_MIDDLE*123)
 2031+A659 F1               pop af
 2032+A65A C1               pop bc
 2033+A65B D1               pop de
 2034+A65C E1               pop hl
 2035+A65D DD E1            pop ix
 2036+A65F FD E1            pop iy
 2037+A661 31 F8 45         ld sp,L5+C7+VMEM_SEG_0+(BUFFER_CHUNK_LENGTH*2)
 2038+A664 FD E5            push iy
 2039+A666 DD E5            push ix
 2040+A668 E5               push hl
 2041+A669 D5               push de
 2042+A66A C5               push bc
 2043+A66B F5               push af
 2044+A66C                  ;Scanline 6
 2045+A66C                  ;1/2
 2046+A66C 31 CA 86         ld sp,BUFFER_SIDE_EXTRA+GAME_WINDOW_START+(BUFFER_MIDDLE*124)
 2047+A66F F1               pop af
 2048+A670 C1               pop bc
 2049+A671 D1               pop de
 2050+A672 E1               pop hl
 2051+A673 DD E1            pop ix
 2052+A675 FD E1            pop iy
 2053+A677 31 EC 46         ld sp,L6+C7+VMEM_SEG_0+BUFFER_CHUNK_LENGTH
 2054+A67A FD E5            push iy
 2055+A67C DD E5            push ix
 2056+A67E E5               push hl
 2057+A67F D5               push de
 2058+A680 C5               push bc
 2059+A681 F5               push af
 2060+A682                  ;2/2
 2061+A682 31 D6 86         ld sp,GAME_WINDOW_START+(BUFFER_MIDDLE*125)
 2062+A685 F1               pop af
 2063+A686 C1               pop bc
 2064+A687 D1               pop de
 2065+A688 E1               pop hl
 2066+A689 DD E1            pop ix
 2067+A68B FD E1            pop iy
 2068+A68D 31 F8 46         ld sp,L6+C7+VMEM_SEG_0+(BUFFER_CHUNK_LENGTH*2)
 2069+A690 FD E5            push iy
 2070+A692 DD E5            push ix
 2071+A694 E5               push hl
 2072+A695 D5               push de
 2073+A696 C5               push bc
 2074+A697 F5               push af
 2075+A698                  ;Scanline 7
 2076+A698                  ;1/2
 2077+A698 31 E6 86         ld sp,BUFFER_SIDE_EXTRA+GAME_WINDOW_START+(BUFFER_MIDDLE*126)
 2078+A69B F1               pop af
 2079+A69C C1               pop bc
 2080+A69D D1               pop de
 2081+A69E E1               pop hl
 2082+A69F DD E1            pop ix
 2083+A6A1 FD E1            pop iy
 2084+A6A3 31 EC 47         ld sp,L7+C7+VMEM_SEG_0+BUFFER_CHUNK_LENGTH
 2085+A6A6 FD E5            push iy
 2086+A6A8 DD E5            push ix
 2087+A6AA E5               push hl
 2088+A6AB D5               push de
 2089+A6AC C5               push bc
 2090+A6AD F5               push af
 2091+A6AE                  ;2/2
 2092+A6AE 31 F2 86         ld sp,GAME_WINDOW_START+(BUFFER_MIDDLE*127)
 2093+A6B1 F1               pop af
 2094+A6B2 C1               pop bc
 2095+A6B3 D1               pop de
 2096+A6B4 E1               pop hl
 2097+A6B5 DD E1            pop ix
 2098+A6B7 FD E1            pop iy
 2099+A6B9 31 F8 47         ld sp,L7+C7+VMEM_SEG_0+(BUFFER_CHUNK_LENGTH*2)
 2100+A6BC FD E5            push iy
 2101+A6BE DD E5            push ix
 2102+A6C0 E5               push hl
 2103+A6C1 D5               push de
 2104+A6C2 C5               push bc
 2105+A6C3 F5               push af
 2106+A6C4
 2107+A6C4
 2108+A6C4
 2109+A6C4
 2110+A6C4
 2111+A6C4
 2112+A6C4
 2113+A6C4
 2114+A6C4
 2115+A6C4
 2116+A6C4
 2117+A6C4
 2118+A6C4
 2119+A6C4
 2120+A6C4
 2121+A6C4
 2122+A6C4
 2123+A6C4
 2124+A6C4
 2125+A6C4
 2126+A6C4
 2127+A6C4
 2128+A6C4
 2129+A6C4
 2130+A6C4
 2131+A6C4
 2132+A6C4
 2133+A6C4
 2134+A6C4
 2135+A6C4
 2136+A6C4
 2137+A6C4
 2138+A6C4
 2139+A6C4
 2140+A6C4
 2141+A6C4                  ;SEG1
 2142+A6C4
 2143+A6C4                  ;Char Row 0
 2144+A6C4
 2145+A6C4                  ;Scanline 0
 2146+A6C4                  ;1/2
 2147+A6C4 31 02 87         ld sp,BUFFER_SIDE_EXTRA+SEG_SIZE+GAME_WINDOW_START+(BUFFER_MIDDLE*0)
 2148+A6C7 F1               pop af
 2149+A6C8 C1               pop bc
 2150+A6C9 D1               pop de
 2151+A6CA E1               pop hl
 2152+A6CB DD E1            pop ix
 2153+A6CD FD E1            pop iy
 2154+A6CF 31 0C 48         ld sp,VMEM_SEG_1+BUFFER_CHUNK_LENGTH
 2155+A6D2 FD E5            push iy
 2156+A6D4 DD E5            push ix
 2157+A6D6 E5               push hl
 2158+A6D7 D5               push de
 2159+A6D8 C5               push bc
 2160+A6D9 F5               push af
 2161+A6DA                  ;2/2
 2162+A6DA 31 0E 87         ld sp,SEG_SIZE+GAME_WINDOW_START+(BUFFER_MIDDLE*1)
 2163+A6DD F1               pop af
 2164+A6DE C1               pop bc
 2165+A6DF D1               pop de
 2166+A6E0 E1               pop hl
 2167+A6E1 DD E1            pop ix
 2168+A6E3 FD E1            pop iy
 2169+A6E5 31 18 48         ld sp,VMEM_SEG_1+(BUFFER_CHUNK_LENGTH*2)
 2170+A6E8 FD E5            push iy
 2171+A6EA DD E5            push ix
 2172+A6EC E5               push hl
 2173+A6ED D5               push de
 2174+A6EE C5               push bc
 2175+A6EF F5               push af
 2176+A6F0                  ;Scanline 1
 2177+A6F0                  ;1/2
 2178+A6F0 31 1E 87         ld sp,BUFFER_SIDE_EXTRA+SEG_SIZE+GAME_WINDOW_START+(BUFFER_MIDDLE*2)
 2179+A6F3 F1               pop af
 2180+A6F4 C1               pop bc
 2181+A6F5 D1               pop de
 2182+A6F6 E1               pop hl
 2183+A6F7 DD E1            pop ix
 2184+A6F9 FD E1            pop iy
 2185+A6FB 31 0C 49         ld sp,L1+VMEM_SEG_1+BUFFER_CHUNK_LENGTH
 2186+A6FE FD E5            push iy
 2187+A700 DD E5            push ix
 2188+A702 E5               push hl
 2189+A703 D5               push de
 2190+A704 C5               push bc
 2191+A705 F5               push af
 2192+A706                  ;2/2
 2193+A706 31 2A 87         ld sp,SEG_SIZE+GAME_WINDOW_START+(BUFFER_MIDDLE*3)
 2194+A709 F1               pop af
 2195+A70A C1               pop bc
 2196+A70B D1               pop de
 2197+A70C E1               pop hl
 2198+A70D DD E1            pop ix
 2199+A70F FD E1            pop iy
 2200+A711 31 18 49         ld sp,L1+VMEM_SEG_1+(BUFFER_CHUNK_LENGTH*2)
 2201+A714 FD E5            push iy
 2202+A716 DD E5            push ix
 2203+A718 E5               push hl
 2204+A719 D5               push de
 2205+A71A C5               push bc
 2206+A71B F5               push af
 2207+A71C                  ;Scanline 2
 2208+A71C                  ;1/2
 2209+A71C 31 3A 87         ld sp,BUFFER_SIDE_EXTRA+SEG_SIZE+GAME_WINDOW_START+(BUFFER_MIDDLE*4)
 2210+A71F F1               pop af
 2211+A720 C1               pop bc
 2212+A721 D1               pop de
 2213+A722 E1               pop hl
 2214+A723 DD E1            pop ix
 2215+A725 FD E1            pop iy
 2216+A727 31 0C 4A         ld sp,L2+VMEM_SEG_1+BUFFER_CHUNK_LENGTH
 2217+A72A FD E5            push iy
 2218+A72C DD E5            push ix
 2219+A72E E5               push hl
 2220+A72F D5               push de
 2221+A730 C5               push bc
 2222+A731 F5               push af
 2223+A732                  ;2/2
 2224+A732 31 46 87         ld sp,SEG_SIZE+GAME_WINDOW_START+(BUFFER_MIDDLE*5)
 2225+A735 F1               pop af
 2226+A736 C1               pop bc
 2227+A737 D1               pop de
 2228+A738 E1               pop hl
 2229+A739 DD E1            pop ix
 2230+A73B FD E1            pop iy
 2231+A73D 31 18 4A         ld sp,L2+VMEM_SEG_1+(BUFFER_CHUNK_LENGTH*2)
 2232+A740 FD E5            push iy
 2233+A742 DD E5            push ix
 2234+A744 E5               push hl
 2235+A745 D5               push de
 2236+A746 C5               push bc
 2237+A747 F5               push af
 2238+A748                  ;Scanline 3
 2239+A748                  ;1/2
 2240+A748 31 56 87         ld sp,BUFFER_SIDE_EXTRA+SEG_SIZE+GAME_WINDOW_START+(BUFFER_MIDDLE*6)
 2241+A74B F1               pop af
 2242+A74C C1               pop bc
 2243+A74D D1               pop de
 2244+A74E E1               pop hl
 2245+A74F DD E1            pop ix
 2246+A751 FD E1            pop iy
 2247+A753 31 0C 4B         ld sp,L3+VMEM_SEG_1+BUFFER_CHUNK_LENGTH
 2248+A756 FD E5            push iy
 2249+A758 DD E5            push ix
 2250+A75A E5               push hl
 2251+A75B D5               push de
 2252+A75C C5               push bc
 2253+A75D F5               push af
 2254+A75E                  ;2/2
 2255+A75E 31 62 87         ld sp,SEG_SIZE+GAME_WINDOW_START+(BUFFER_MIDDLE*7)
 2256+A761 F1               pop af
 2257+A762 C1               pop bc
 2258+A763 D1               pop de
 2259+A764 E1               pop hl
 2260+A765 DD E1            pop ix
 2261+A767 FD E1            pop iy
 2262+A769 31 18 4B         ld sp,L3+VMEM_SEG_1+(BUFFER_CHUNK_LENGTH*2)
 2263+A76C FD E5            push iy
 2264+A76E DD E5            push ix
 2265+A770 E5               push hl
 2266+A771 D5               push de
 2267+A772 C5               push bc
 2268+A773 F5               push af
 2269+A774                  ;Scanline 4
 2270+A774                  ;1/2
 2271+A774 31 72 87         ld sp,BUFFER_SIDE_EXTRA+SEG_SIZE+GAME_WINDOW_START+(BUFFER_MIDDLE*8)
 2272+A777 F1               pop af
 2273+A778 C1               pop bc
 2274+A779 D1               pop de
 2275+A77A E1               pop hl
 2276+A77B DD E1            pop ix
 2277+A77D FD E1            pop iy
 2278+A77F 31 0C 4C         ld sp,L4+VMEM_SEG_1+BUFFER_CHUNK_LENGTH
 2279+A782 FD E5            push iy
 2280+A784 DD E5            push ix
 2281+A786 E5               push hl
 2282+A787 D5               push de
 2283+A788 C5               push bc
 2284+A789 F5               push af
 2285+A78A                  ;2/2
 2286+A78A 31 7E 87         ld sp,SEG_SIZE+GAME_WINDOW_START+(BUFFER_MIDDLE*9)
 2287+A78D F1               pop af
 2288+A78E C1               pop bc
 2289+A78F D1               pop de
 2290+A790 E1               pop hl
 2291+A791 DD E1            pop ix
 2292+A793 FD E1            pop iy
 2293+A795 31 18 4C         ld sp,L4+VMEM_SEG_1+(BUFFER_CHUNK_LENGTH*2)
 2294+A798 FD E5            push iy
 2295+A79A DD E5            push ix
 2296+A79C E5               push hl
 2297+A79D D5               push de
 2298+A79E C5               push bc
 2299+A79F F5               push af
 2300+A7A0                  ;Scanline 5
 2301+A7A0                  ;1/2
 2302+A7A0 31 8E 87         ld sp,BUFFER_SIDE_EXTRA+SEG_SIZE+GAME_WINDOW_START+(BUFFER_MIDDLE*10)
 2303+A7A3 F1               pop af
 2304+A7A4 C1               pop bc
 2305+A7A5 D1               pop de
 2306+A7A6 E1               pop hl
 2307+A7A7 DD E1            pop ix
 2308+A7A9 FD E1            pop iy
 2309+A7AB 31 0C 4D         ld sp,L5+VMEM_SEG_1+BUFFER_CHUNK_LENGTH
 2310+A7AE FD E5            push iy
 2311+A7B0 DD E5            push ix
 2312+A7B2 E5               push hl
 2313+A7B3 D5               push de
 2314+A7B4 C5               push bc
 2315+A7B5 F5               push af
 2316+A7B6                  ;2/2
 2317+A7B6 31 9A 87         ld sp,SEG_SIZE+GAME_WINDOW_START+(BUFFER_MIDDLE*11)
 2318+A7B9 F1               pop af
 2319+A7BA C1               pop bc
 2320+A7BB D1               pop de
 2321+A7BC E1               pop hl
 2322+A7BD DD E1            pop ix
 2323+A7BF FD E1            pop iy
 2324+A7C1 31 18 4D         ld sp,L5+VMEM_SEG_1+(BUFFER_CHUNK_LENGTH*2)
 2325+A7C4 FD E5            push iy
 2326+A7C6 DD E5            push ix
 2327+A7C8 E5               push hl
 2328+A7C9 D5               push de
 2329+A7CA C5               push bc
 2330+A7CB F5               push af
 2331+A7CC                  ;Scanline 6
 2332+A7CC                  ;1/2
 2333+A7CC 31 AA 87         ld sp,BUFFER_SIDE_EXTRA+SEG_SIZE+GAME_WINDOW_START+(BUFFER_MIDDLE*12)
 2334+A7CF F1               pop af
 2335+A7D0 C1               pop bc
 2336+A7D1 D1               pop de
 2337+A7D2 E1               pop hl
 2338+A7D3 DD E1            pop ix
 2339+A7D5 FD E1            pop iy
 2340+A7D7 31 0C 4E         ld sp,L6+VMEM_SEG_1+BUFFER_CHUNK_LENGTH
 2341+A7DA FD E5            push iy
 2342+A7DC DD E5            push ix
 2343+A7DE E5               push hl
 2344+A7DF D5               push de
 2345+A7E0 C5               push bc
 2346+A7E1 F5               push af
 2347+A7E2                  ;2/2
 2348+A7E2 31 B6 87         ld sp,SEG_SIZE+GAME_WINDOW_START+(BUFFER_MIDDLE*13)
 2349+A7E5 F1               pop af
 2350+A7E6 C1               pop bc
 2351+A7E7 D1               pop de
 2352+A7E8 E1               pop hl
 2353+A7E9 DD E1            pop ix
 2354+A7EB FD E1            pop iy
 2355+A7ED 31 18 4E         ld sp,L6+VMEM_SEG_1+(BUFFER_CHUNK_LENGTH*2)
 2356+A7F0 FD E5            push iy
 2357+A7F2 DD E5            push ix
 2358+A7F4 E5               push hl
 2359+A7F5 D5               push de
 2360+A7F6 C5               push bc
 2361+A7F7 F5               push af
 2362+A7F8                  ;Scanline 7
 2363+A7F8                  ;1/2
 2364+A7F8 31 C6 87         ld sp,BUFFER_SIDE_EXTRA+SEG_SIZE+GAME_WINDOW_START+(BUFFER_MIDDLE*14)
 2365+A7FB F1               pop af
 2366+A7FC C1               pop bc
 2367+A7FD D1               pop de
 2368+A7FE E1               pop hl
 2369+A7FF DD E1            pop ix
 2370+A801 FD E1            pop iy
 2371+A803 31 0C 4F         ld sp,L7+VMEM_SEG_1+BUFFER_CHUNK_LENGTH
 2372+A806 FD E5            push iy
 2373+A808 DD E5            push ix
 2374+A80A E5               push hl
 2375+A80B D5               push de
 2376+A80C C5               push bc
 2377+A80D F5               push af
 2378+A80E                  ;2/2
 2379+A80E 31 D2 87         ld sp,SEG_SIZE+GAME_WINDOW_START+(BUFFER_MIDDLE*15)
 2380+A811 F1               pop af
 2381+A812 C1               pop bc
 2382+A813 D1               pop de
 2383+A814 E1               pop hl
 2384+A815 DD E1            pop ix
 2385+A817 FD E1            pop iy
 2386+A819 31 18 4F         ld sp,L7+VMEM_SEG_1+(BUFFER_CHUNK_LENGTH*2)
 2387+A81C FD E5            push iy
 2388+A81E DD E5            push ix
 2389+A820 E5               push hl
 2390+A821 D5               push de
 2391+A822 C5               push bc
 2392+A823 F5               push af
 2393+A824
 2394+A824
 2395+A824
 2396+A824
 2397+A824                  ;Char Row 1
 2398+A824
 2399+A824                  ;Scanline 0
 2400+A824                  ;1/2
 2401+A824 31 E2 87         ld sp,BUFFER_SIDE_EXTRA+SEG_SIZE+GAME_WINDOW_START+(BUFFER_MIDDLE*16)
 2402+A827 F1               pop af
 2403+A828 C1               pop bc
 2404+A829 D1               pop de
 2405+A82A E1               pop hl
 2406+A82B DD E1            pop ix
 2407+A82D FD E1            pop iy
 2408+A82F 31 2C 48         ld sp,C1+VMEM_SEG_1+BUFFER_CHUNK_LENGTH
 2409+A832 FD E5            push iy
 2410+A834 DD E5            push ix
 2411+A836 E5               push hl
 2412+A837 D5               push de
 2413+A838 C5               push bc
 2414+A839 F5               push af
 2415+A83A                  ;2/2
 2416+A83A 31 EE 87         ld sp,SEG_SIZE+GAME_WINDOW_START+(BUFFER_MIDDLE*17)
 2417+A83D F1               pop af
 2418+A83E C1               pop bc
 2419+A83F D1               pop de
 2420+A840 E1               pop hl
 2421+A841 DD E1            pop ix
 2422+A843 FD E1            pop iy
 2423+A845 31 38 48         ld sp,C1+VMEM_SEG_1+(BUFFER_CHUNK_LENGTH*2)
 2424+A848 FD E5            push iy
 2425+A84A DD E5            push ix
 2426+A84C E5               push hl
 2427+A84D D5               push de
 2428+A84E C5               push bc
 2429+A84F F5               push af
 2430+A850                  ;Scanline 1
 2431+A850                  ;1/2
 2432+A850 31 FE 87         ld sp,BUFFER_SIDE_EXTRA+SEG_SIZE+GAME_WINDOW_START+(BUFFER_MIDDLE*18)
 2433+A853 F1               pop af
 2434+A854 C1               pop bc
 2435+A855 D1               pop de
 2436+A856 E1               pop hl
 2437+A857 DD E1            pop ix
 2438+A859 FD E1            pop iy
 2439+A85B 31 2C 49         ld sp,L1+C1+VMEM_SEG_1+BUFFER_CHUNK_LENGTH
 2440+A85E FD E5            push iy
 2441+A860 DD E5            push ix
 2442+A862 E5               push hl
 2443+A863 D5               push de
 2444+A864 C5               push bc
 2445+A865 F5               push af
 2446+A866                  ;2/2
 2447+A866 31 0A 88         ld sp,SEG_SIZE+GAME_WINDOW_START+(BUFFER_MIDDLE*19)
 2448+A869 F1               pop af
 2449+A86A C1               pop bc
 2450+A86B D1               pop de
 2451+A86C E1               pop hl
 2452+A86D DD E1            pop ix
 2453+A86F FD E1            pop iy
 2454+A871 31 38 49         ld sp,L1+C1+VMEM_SEG_1+(BUFFER_CHUNK_LENGTH*2)
 2455+A874 FD E5            push iy
 2456+A876 DD E5            push ix
 2457+A878 E5               push hl
 2458+A879 D5               push de
 2459+A87A C5               push bc
 2460+A87B F5               push af
 2461+A87C                  ;Scanline 2
 2462+A87C                  ;1/2
 2463+A87C 31 1A 88         ld sp,BUFFER_SIDE_EXTRA+SEG_SIZE+GAME_WINDOW_START+(BUFFER_MIDDLE*20)
 2464+A87F F1               pop af
 2465+A880 C1               pop bc
 2466+A881 D1               pop de
 2467+A882 E1               pop hl
 2468+A883 DD E1            pop ix
 2469+A885 FD E1            pop iy
 2470+A887 31 2C 4A         ld sp,L2+C1+VMEM_SEG_1+BUFFER_CHUNK_LENGTH
 2471+A88A FD E5            push iy
 2472+A88C DD E5            push ix
 2473+A88E E5               push hl
 2474+A88F D5               push de
 2475+A890 C5               push bc
 2476+A891 F5               push af
 2477+A892                  ;2/2
 2478+A892 31 26 88         ld sp,SEG_SIZE+GAME_WINDOW_START+(BUFFER_MIDDLE*21)
 2479+A895 F1               pop af
 2480+A896 C1               pop bc
 2481+A897 D1               pop de
 2482+A898 E1               pop hl
 2483+A899 DD E1            pop ix
 2484+A89B FD E1            pop iy
 2485+A89D 31 38 4A         ld sp,L2+C1+VMEM_SEG_1+(BUFFER_CHUNK_LENGTH*2)
 2486+A8A0 FD E5            push iy
 2487+A8A2 DD E5            push ix
 2488+A8A4 E5               push hl
 2489+A8A5 D5               push de
 2490+A8A6 C5               push bc
 2491+A8A7 F5               push af
 2492+A8A8                  ;Scanline 3
 2493+A8A8                  ;1/2
 2494+A8A8 31 36 88         ld sp,BUFFER_SIDE_EXTRA+SEG_SIZE+GAME_WINDOW_START+(BUFFER_MIDDLE*22)
 2495+A8AB F1               pop af
 2496+A8AC C1               pop bc
 2497+A8AD D1               pop de
 2498+A8AE E1               pop hl
 2499+A8AF DD E1            pop ix
 2500+A8B1 FD E1            pop iy
 2501+A8B3 31 2C 4B         ld sp,L3+C1+VMEM_SEG_1+BUFFER_CHUNK_LENGTH
 2502+A8B6 FD E5            push iy
 2503+A8B8 DD E5            push ix
 2504+A8BA E5               push hl
 2505+A8BB D5               push de
 2506+A8BC C5               push bc
 2507+A8BD F5               push af
 2508+A8BE                  ;2/2
 2509+A8BE 31 42 88         ld sp,SEG_SIZE+GAME_WINDOW_START+(BUFFER_MIDDLE*23)
 2510+A8C1 F1               pop af
 2511+A8C2 C1               pop bc
 2512+A8C3 D1               pop de
 2513+A8C4 E1               pop hl
 2514+A8C5 DD E1            pop ix
 2515+A8C7 FD E1            pop iy
 2516+A8C9 31 38 4B         ld sp,L3+C1+VMEM_SEG_1+(BUFFER_CHUNK_LENGTH*2)
 2517+A8CC FD E5            push iy
 2518+A8CE DD E5            push ix
 2519+A8D0 E5               push hl
 2520+A8D1 D5               push de
 2521+A8D2 C5               push bc
 2522+A8D3 F5               push af
 2523+A8D4                  ;Scanline 4
 2524+A8D4                  ;1/2
 2525+A8D4 31 52 88         ld sp,BUFFER_SIDE_EXTRA+SEG_SIZE+GAME_WINDOW_START+(BUFFER_MIDDLE*24)
 2526+A8D7 F1               pop af
 2527+A8D8 C1               pop bc
 2528+A8D9 D1               pop de
 2529+A8DA E1               pop hl
 2530+A8DB DD E1            pop ix
 2531+A8DD FD E1            pop iy
 2532+A8DF 31 2C 4C         ld sp,L4+C1+VMEM_SEG_1+BUFFER_CHUNK_LENGTH
 2533+A8E2 FD E5            push iy
 2534+A8E4 DD E5            push ix
 2535+A8E6 E5               push hl
 2536+A8E7 D5               push de
 2537+A8E8 C5               push bc
 2538+A8E9 F5               push af
 2539+A8EA                  ;2/2
 2540+A8EA 31 5E 88         ld sp,SEG_SIZE+GAME_WINDOW_START+(BUFFER_MIDDLE*25)
 2541+A8ED F1               pop af
 2542+A8EE C1               pop bc
 2543+A8EF D1               pop de
 2544+A8F0 E1               pop hl
 2545+A8F1 DD E1            pop ix
 2546+A8F3 FD E1            pop iy
 2547+A8F5 31 38 4C         ld sp,L4+C1+VMEM_SEG_1+(BUFFER_CHUNK_LENGTH*2)
 2548+A8F8 FD E5            push iy
 2549+A8FA DD E5            push ix
 2550+A8FC E5               push hl
 2551+A8FD D5               push de
 2552+A8FE C5               push bc
 2553+A8FF F5               push af
 2554+A900                  ;Scanline 5
 2555+A900                  ;1/2
 2556+A900 31 6E 88         ld sp,BUFFER_SIDE_EXTRA+SEG_SIZE+GAME_WINDOW_START+(BUFFER_MIDDLE*26)
 2557+A903 F1               pop af
 2558+A904 C1               pop bc
 2559+A905 D1               pop de
 2560+A906 E1               pop hl
 2561+A907 DD E1            pop ix
 2562+A909 FD E1            pop iy
 2563+A90B 31 2C 4D         ld sp,L5+C1+VMEM_SEG_1+BUFFER_CHUNK_LENGTH
 2564+A90E FD E5            push iy
 2565+A910 DD E5            push ix
 2566+A912 E5               push hl
 2567+A913 D5               push de
 2568+A914 C5               push bc
 2569+A915 F5               push af
 2570+A916                  ;2/2
 2571+A916 31 7A 88         ld sp,SEG_SIZE+GAME_WINDOW_START+(BUFFER_MIDDLE*27)
 2572+A919 F1               pop af
 2573+A91A C1               pop bc
 2574+A91B D1               pop de
 2575+A91C E1               pop hl
 2576+A91D DD E1            pop ix
 2577+A91F FD E1            pop iy
 2578+A921 31 38 4D         ld sp,L5+C1+VMEM_SEG_1+(BUFFER_CHUNK_LENGTH*2)
 2579+A924 FD E5            push iy
 2580+A926 DD E5            push ix
 2581+A928 E5               push hl
 2582+A929 D5               push de
 2583+A92A C5               push bc
 2584+A92B F5               push af
 2585+A92C                  ;Scanline 6
 2586+A92C                  ;1/2
 2587+A92C 31 8A 88         ld sp,BUFFER_SIDE_EXTRA+SEG_SIZE+GAME_WINDOW_START+(BUFFER_MIDDLE*28)
 2588+A92F F1               pop af
 2589+A930 C1               pop bc
 2590+A931 D1               pop de
 2591+A932 E1               pop hl
 2592+A933 DD E1            pop ix
 2593+A935 FD E1            pop iy
 2594+A937 31 2C 4E         ld sp,L6+C1+VMEM_SEG_1+BUFFER_CHUNK_LENGTH
 2595+A93A FD E5            push iy
 2596+A93C DD E5            push ix
 2597+A93E E5               push hl
 2598+A93F D5               push de
 2599+A940 C5               push bc
 2600+A941 F5               push af
 2601+A942                  ;2/2
 2602+A942 31 96 88         ld sp,SEG_SIZE+GAME_WINDOW_START+(BUFFER_MIDDLE*29)
 2603+A945 F1               pop af
 2604+A946 C1               pop bc
 2605+A947 D1               pop de
 2606+A948 E1               pop hl
 2607+A949 DD E1            pop ix
 2608+A94B FD E1            pop iy
 2609+A94D 31 38 4E         ld sp,L6+C1+VMEM_SEG_1+(BUFFER_CHUNK_LENGTH*2)
 2610+A950 FD E5            push iy
 2611+A952 DD E5            push ix
 2612+A954 E5               push hl
 2613+A955 D5               push de
 2614+A956 C5               push bc
 2615+A957 F5               push af
 2616+A958                  ;Scanline 7
 2617+A958                  ;1/2
 2618+A958 31 A6 88         ld sp,BUFFER_SIDE_EXTRA+SEG_SIZE+GAME_WINDOW_START+(BUFFER_MIDDLE*30)
 2619+A95B F1               pop af
 2620+A95C C1               pop bc
 2621+A95D D1               pop de
 2622+A95E E1               pop hl
 2623+A95F DD E1            pop ix
 2624+A961 FD E1            pop iy
 2625+A963 31 2C 4F         ld sp,L7+C1+VMEM_SEG_1+BUFFER_CHUNK_LENGTH
 2626+A966 FD E5            push iy
 2627+A968 DD E5            push ix
 2628+A96A E5               push hl
 2629+A96B D5               push de
 2630+A96C C5               push bc
 2631+A96D F5               push af
 2632+A96E                  ;2/2
 2633+A96E 31 B2 88         ld sp,SEG_SIZE+GAME_WINDOW_START+(BUFFER_MIDDLE*31)
 2634+A971 F1               pop af
 2635+A972 C1               pop bc
 2636+A973 D1               pop de
 2637+A974 E1               pop hl
 2638+A975 DD E1            pop ix
 2639+A977 FD E1            pop iy
 2640+A979 31 38 4F         ld sp,L7+C1+VMEM_SEG_1+(BUFFER_CHUNK_LENGTH*2)
 2641+A97C FD E5            push iy
 2642+A97E DD E5            push ix
 2643+A980 E5               push hl
 2644+A981 D5               push de
 2645+A982 C5               push bc
 2646+A983 F5               push af
 2647+A984
 2648+A984
 2649+A984
 2650+A984
 2651+A984                  ;Char Row 2
 2652+A984
 2653+A984                  ;Scanline 0
 2654+A984                  ;1/2
 2655+A984 31 C2 88         ld sp,BUFFER_SIDE_EXTRA+SEG_SIZE+GAME_WINDOW_START+(BUFFER_MIDDLE*32)
 2656+A987 F1               pop af
 2657+A988 C1               pop bc
 2658+A989 D1               pop de
 2659+A98A E1               pop hl
 2660+A98B DD E1            pop ix
 2661+A98D FD E1            pop iy
 2662+A98F 31 4C 48         ld sp,C2+VMEM_SEG_1+BUFFER_CHUNK_LENGTH
 2663+A992 FD E5            push iy
 2664+A994 DD E5            push ix
 2665+A996 E5               push hl
 2666+A997 D5               push de
 2667+A998 C5               push bc
 2668+A999 F5               push af
 2669+A99A                  ;2/2
 2670+A99A 31 CE 88         ld sp,SEG_SIZE+GAME_WINDOW_START+(BUFFER_MIDDLE*33)
 2671+A99D F1               pop af
 2672+A99E C1               pop bc
 2673+A99F D1               pop de
 2674+A9A0 E1               pop hl
 2675+A9A1 DD E1            pop ix
 2676+A9A3 FD E1            pop iy
 2677+A9A5 31 58 48         ld sp,C2+VMEM_SEG_1+(BUFFER_CHUNK_LENGTH*2)
 2678+A9A8 FD E5            push iy
 2679+A9AA DD E5            push ix
 2680+A9AC E5               push hl
 2681+A9AD D5               push de
 2682+A9AE C5               push bc
 2683+A9AF F5               push af
 2684+A9B0                  ;Scanline 1
 2685+A9B0                  ;1/2
 2686+A9B0 31 DE 88         ld sp,BUFFER_SIDE_EXTRA+SEG_SIZE+GAME_WINDOW_START+(BUFFER_MIDDLE*34)
 2687+A9B3 F1               pop af
 2688+A9B4 C1               pop bc
 2689+A9B5 D1               pop de
 2690+A9B6 E1               pop hl
 2691+A9B7 DD E1            pop ix
 2692+A9B9 FD E1            pop iy
 2693+A9BB 31 4C 49         ld sp,L1+C2+VMEM_SEG_1+BUFFER_CHUNK_LENGTH
 2694+A9BE FD E5            push iy
 2695+A9C0 DD E5            push ix
 2696+A9C2 E5               push hl
 2697+A9C3 D5               push de
 2698+A9C4 C5               push bc
 2699+A9C5 F5               push af
 2700+A9C6                  ;2/2
 2701+A9C6 31 EA 88         ld sp,SEG_SIZE+GAME_WINDOW_START+(BUFFER_MIDDLE*35)
 2702+A9C9 F1               pop af
 2703+A9CA C1               pop bc
 2704+A9CB D1               pop de
 2705+A9CC E1               pop hl
 2706+A9CD DD E1            pop ix
 2707+A9CF FD E1            pop iy
 2708+A9D1 31 58 49         ld sp,L1+C2+VMEM_SEG_1+(BUFFER_CHUNK_LENGTH*2)
 2709+A9D4 FD E5            push iy
 2710+A9D6 DD E5            push ix
 2711+A9D8 E5               push hl
 2712+A9D9 D5               push de
 2713+A9DA C5               push bc
 2714+A9DB F5               push af
 2715+A9DC                  ;Scanline 2
 2716+A9DC                  ;1/2
 2717+A9DC 31 FA 88         ld sp,BUFFER_SIDE_EXTRA+SEG_SIZE+GAME_WINDOW_START+(BUFFER_MIDDLE*36)
 2718+A9DF F1               pop af
 2719+A9E0 C1               pop bc
 2720+A9E1 D1               pop de
 2721+A9E2 E1               pop hl
 2722+A9E3 DD E1            pop ix
 2723+A9E5 FD E1            pop iy
 2724+A9E7 31 4C 4A         ld sp,L2+C2+VMEM_SEG_1+BUFFER_CHUNK_LENGTH
 2725+A9EA FD E5            push iy
 2726+A9EC DD E5            push ix
 2727+A9EE E5               push hl
 2728+A9EF D5               push de
 2729+A9F0 C5               push bc
 2730+A9F1 F5               push af
 2731+A9F2                  ;2/2
 2732+A9F2 31 06 89         ld sp,SEG_SIZE+GAME_WINDOW_START+(BUFFER_MIDDLE*37)
 2733+A9F5 F1               pop af
 2734+A9F6 C1               pop bc
 2735+A9F7 D1               pop de
 2736+A9F8 E1               pop hl
 2737+A9F9 DD E1            pop ix
 2738+A9FB FD E1            pop iy
 2739+A9FD 31 58 4A         ld sp,L2+C2+VMEM_SEG_1+(BUFFER_CHUNK_LENGTH*2)
 2740+AA00 FD E5            push iy
 2741+AA02 DD E5            push ix
 2742+AA04 E5               push hl
 2743+AA05 D5               push de
 2744+AA06 C5               push bc
 2745+AA07 F5               push af
 2746+AA08                  ;Scanline 3
 2747+AA08                  ;1/2
 2748+AA08 31 16 89         ld sp,BUFFER_SIDE_EXTRA+SEG_SIZE+GAME_WINDOW_START+(BUFFER_MIDDLE*38)
 2749+AA0B F1               pop af
 2750+AA0C C1               pop bc
 2751+AA0D D1               pop de
 2752+AA0E E1               pop hl
 2753+AA0F DD E1            pop ix
 2754+AA11 FD E1            pop iy
 2755+AA13 31 4C 4B         ld sp,L3+C2+VMEM_SEG_1+BUFFER_CHUNK_LENGTH
 2756+AA16 FD E5            push iy
 2757+AA18 DD E5            push ix
 2758+AA1A E5               push hl
 2759+AA1B D5               push de
 2760+AA1C C5               push bc
 2761+AA1D F5               push af
 2762+AA1E                  ;2/2
 2763+AA1E 31 22 89         ld sp,SEG_SIZE+GAME_WINDOW_START+(BUFFER_MIDDLE*39)
 2764+AA21 F1               pop af
 2765+AA22 C1               pop bc
 2766+AA23 D1               pop de
 2767+AA24 E1               pop hl
 2768+AA25 DD E1            pop ix
 2769+AA27 FD E1            pop iy
 2770+AA29 31 58 4B         ld sp,L3+C2+VMEM_SEG_1+(BUFFER_CHUNK_LENGTH*2)
 2771+AA2C FD E5            push iy
 2772+AA2E DD E5            push ix
 2773+AA30 E5               push hl
 2774+AA31 D5               push de
 2775+AA32 C5               push bc
 2776+AA33 F5               push af
 2777+AA34                  ;Scanline 4
 2778+AA34                  ;1/2
 2779+AA34 31 32 89         ld sp,BUFFER_SIDE_EXTRA+SEG_SIZE+GAME_WINDOW_START+(BUFFER_MIDDLE*40)
 2780+AA37 F1               pop af
 2781+AA38 C1               pop bc
 2782+AA39 D1               pop de
 2783+AA3A E1               pop hl
 2784+AA3B DD E1            pop ix
 2785+AA3D FD E1            pop iy
 2786+AA3F 31 4C 4C         ld sp,L4+C2+VMEM_SEG_1+BUFFER_CHUNK_LENGTH
 2787+AA42 FD E5            push iy
 2788+AA44 DD E5            push ix
 2789+AA46 E5               push hl
 2790+AA47 D5               push de
 2791+AA48 C5               push bc
 2792+AA49 F5               push af
 2793+AA4A                  ;2/2
 2794+AA4A 31 3E 89         ld sp,SEG_SIZE+GAME_WINDOW_START+(BUFFER_MIDDLE*41)
 2795+AA4D F1               pop af
 2796+AA4E C1               pop bc
 2797+AA4F D1               pop de
 2798+AA50 E1               pop hl
 2799+AA51 DD E1            pop ix
 2800+AA53 FD E1            pop iy
 2801+AA55 31 58 4C         ld sp,L4+C2+VMEM_SEG_1+(BUFFER_CHUNK_LENGTH*2)
 2802+AA58 FD E5            push iy
 2803+AA5A DD E5            push ix
 2804+AA5C E5               push hl
 2805+AA5D D5               push de
 2806+AA5E C5               push bc
 2807+AA5F F5               push af
 2808+AA60                  ;Scanline 5
 2809+AA60                  ;1/2
 2810+AA60 31 4E 89         ld sp,BUFFER_SIDE_EXTRA+SEG_SIZE+GAME_WINDOW_START+(BUFFER_MIDDLE*42)
 2811+AA63 F1               pop af
 2812+AA64 C1               pop bc
 2813+AA65 D1               pop de
 2814+AA66 E1               pop hl
 2815+AA67 DD E1            pop ix
 2816+AA69 FD E1            pop iy
 2817+AA6B 31 4C 4D         ld sp,L5+C2+VMEM_SEG_1+BUFFER_CHUNK_LENGTH
 2818+AA6E FD E5            push iy
 2819+AA70 DD E5            push ix
 2820+AA72 E5               push hl
 2821+AA73 D5               push de
 2822+AA74 C5               push bc
 2823+AA75 F5               push af
 2824+AA76                  ;2/2
 2825+AA76 31 5A 89         ld sp,SEG_SIZE+GAME_WINDOW_START+(BUFFER_MIDDLE*43)
 2826+AA79 F1               pop af
 2827+AA7A C1               pop bc
 2828+AA7B D1               pop de
 2829+AA7C E1               pop hl
 2830+AA7D DD E1            pop ix
 2831+AA7F FD E1            pop iy
 2832+AA81 31 58 4D         ld sp,L5+C2+VMEM_SEG_1+(BUFFER_CHUNK_LENGTH*2)
 2833+AA84 FD E5            push iy
 2834+AA86 DD E5            push ix
 2835+AA88 E5               push hl
 2836+AA89 D5               push de
 2837+AA8A C5               push bc
 2838+AA8B F5               push af
 2839+AA8C                  ;Scanline 6
 2840+AA8C                  ;1/2
 2841+AA8C 31 6A 89         ld sp,BUFFER_SIDE_EXTRA+SEG_SIZE+GAME_WINDOW_START+(BUFFER_MIDDLE*44)
 2842+AA8F F1               pop af
 2843+AA90 C1               pop bc
 2844+AA91 D1               pop de
 2845+AA92 E1               pop hl
 2846+AA93 DD E1            pop ix
 2847+AA95 FD E1            pop iy
 2848+AA97 31 4C 4E         ld sp,L6+C2+VMEM_SEG_1+BUFFER_CHUNK_LENGTH
 2849+AA9A FD E5            push iy
 2850+AA9C DD E5            push ix
 2851+AA9E E5               push hl
 2852+AA9F D5               push de
 2853+AAA0 C5               push bc
 2854+AAA1 F5               push af
 2855+AAA2                  ;2/2
 2856+AAA2 31 76 89         ld sp,SEG_SIZE+GAME_WINDOW_START+(BUFFER_MIDDLE*45)
 2857+AAA5 F1               pop af
 2858+AAA6 C1               pop bc
 2859+AAA7 D1               pop de
 2860+AAA8 E1               pop hl
 2861+AAA9 DD E1            pop ix
 2862+AAAB FD E1            pop iy
 2863+AAAD 31 58 4E         ld sp,L6+C2+VMEM_SEG_1+(BUFFER_CHUNK_LENGTH*2)
 2864+AAB0 FD E5            push iy
 2865+AAB2 DD E5            push ix
 2866+AAB4 E5               push hl
 2867+AAB5 D5               push de
 2868+AAB6 C5               push bc
 2869+AAB7 F5               push af
 2870+AAB8                  ;Scanline 7
 2871+AAB8                  ;1/2
 2872+AAB8 31 86 89         ld sp,BUFFER_SIDE_EXTRA+SEG_SIZE+GAME_WINDOW_START+(BUFFER_MIDDLE*46)
 2873+AABB F1               pop af
 2874+AABC C1               pop bc
 2875+AABD D1               pop de
 2876+AABE E1               pop hl
 2877+AABF DD E1            pop ix
 2878+AAC1 FD E1            pop iy
 2879+AAC3 31 4C 4F         ld sp,L7+C2+VMEM_SEG_1+BUFFER_CHUNK_LENGTH
 2880+AAC6 FD E5            push iy
 2881+AAC8 DD E5            push ix
 2882+AACA E5               push hl
 2883+AACB D5               push de
 2884+AACC C5               push bc
 2885+AACD F5               push af
 2886+AACE                  ;2/2
 2887+AACE 31 92 89         ld sp,SEG_SIZE+GAME_WINDOW_START+(BUFFER_MIDDLE*47)
 2888+AAD1 F1               pop af
 2889+AAD2 C1               pop bc
 2890+AAD3 D1               pop de
 2891+AAD4 E1               pop hl
 2892+AAD5 DD E1            pop ix
 2893+AAD7 FD E1            pop iy
 2894+AAD9 31 58 4F         ld sp,L7+C2+VMEM_SEG_1+(BUFFER_CHUNK_LENGTH*2)
 2895+AADC FD E5            push iy
 2896+AADE DD E5            push ix
 2897+AAE0 E5               push hl
 2898+AAE1 D5               push de
 2899+AAE2 C5               push bc
 2900+AAE3 F5               push af
 2901+AAE4
 2902+AAE4
 2903+AAE4
 2904+AAE4                  ;Char Row 3
 2905+AAE4
 2906+AAE4                  ;Scanline 0
 2907+AAE4                  ;1/2
 2908+AAE4 31 A2 89         ld sp,BUFFER_SIDE_EXTRA+SEG_SIZE+GAME_WINDOW_START+(BUFFER_MIDDLE*48)
 2909+AAE7 F1               pop af
 2910+AAE8 C1               pop bc
 2911+AAE9 D1               pop de
 2912+AAEA E1               pop hl
 2913+AAEB DD E1            pop ix
 2914+AAED FD E1            pop iy
 2915+AAEF 31 6C 48         ld sp,C3+VMEM_SEG_1+BUFFER_CHUNK_LENGTH
 2916+AAF2 FD E5            push iy
 2917+AAF4 DD E5            push ix
 2918+AAF6 E5               push hl
 2919+AAF7 D5               push de
 2920+AAF8 C5               push bc
 2921+AAF9 F5               push af
 2922+AAFA                  ;2/2
 2923+AAFA 31 AE 89         ld sp,SEG_SIZE+GAME_WINDOW_START+(BUFFER_MIDDLE*49)
 2924+AAFD F1               pop af
 2925+AAFE C1               pop bc
 2926+AAFF D1               pop de
 2927+AB00 E1               pop hl
 2928+AB01 DD E1            pop ix
 2929+AB03 FD E1            pop iy
 2930+AB05 31 78 48         ld sp,C3+VMEM_SEG_1+(BUFFER_CHUNK_LENGTH*2)
 2931+AB08 FD E5            push iy
 2932+AB0A DD E5            push ix
 2933+AB0C E5               push hl
 2934+AB0D D5               push de
 2935+AB0E C5               push bc
 2936+AB0F F5               push af
 2937+AB10                  ;Scanline 1
 2938+AB10                  ;1/2
 2939+AB10 31 BE 89         ld sp,BUFFER_SIDE_EXTRA+SEG_SIZE+GAME_WINDOW_START+(BUFFER_MIDDLE*50)
 2940+AB13 F1               pop af
 2941+AB14 C1               pop bc
 2942+AB15 D1               pop de
 2943+AB16 E1               pop hl
 2944+AB17 DD E1            pop ix
 2945+AB19 FD E1            pop iy
 2946+AB1B 31 6C 49         ld sp,L1+C3+VMEM_SEG_1+BUFFER_CHUNK_LENGTH
 2947+AB1E FD E5            push iy
 2948+AB20 DD E5            push ix
 2949+AB22 E5               push hl
 2950+AB23 D5               push de
 2951+AB24 C5               push bc
 2952+AB25 F5               push af
 2953+AB26                  ;2/2
 2954+AB26 31 CA 89         ld sp,SEG_SIZE+GAME_WINDOW_START+(BUFFER_MIDDLE*51)
 2955+AB29 F1               pop af
 2956+AB2A C1               pop bc
 2957+AB2B D1               pop de
 2958+AB2C E1               pop hl
 2959+AB2D DD E1            pop ix
 2960+AB2F FD E1            pop iy
 2961+AB31 31 78 49         ld sp,L1+C3+VMEM_SEG_1+(BUFFER_CHUNK_LENGTH*2)
 2962+AB34 FD E5            push iy
 2963+AB36 DD E5            push ix
 2964+AB38 E5               push hl
 2965+AB39 D5               push de
 2966+AB3A C5               push bc
 2967+AB3B F5               push af
 2968+AB3C                  ;Scanline 2
 2969+AB3C                  ;1/2
 2970+AB3C 31 DA 89         ld sp,BUFFER_SIDE_EXTRA+SEG_SIZE+GAME_WINDOW_START+(BUFFER_MIDDLE*52)
 2971+AB3F F1               pop af
 2972+AB40 C1               pop bc
 2973+AB41 D1               pop de
 2974+AB42 E1               pop hl
 2975+AB43 DD E1            pop ix
 2976+AB45 FD E1            pop iy
 2977+AB47 31 6C 4A         ld sp,L2+C3+VMEM_SEG_1+BUFFER_CHUNK_LENGTH
 2978+AB4A FD E5            push iy
 2979+AB4C DD E5            push ix
 2980+AB4E E5               push hl
 2981+AB4F D5               push de
 2982+AB50 C5               push bc
 2983+AB51 F5               push af
 2984+AB52                  ;2/2
 2985+AB52 31 E6 89         ld sp,SEG_SIZE+GAME_WINDOW_START+(BUFFER_MIDDLE*53)
 2986+AB55 F1               pop af
 2987+AB56 C1               pop bc
 2988+AB57 D1               pop de
 2989+AB58 E1               pop hl
 2990+AB59 DD E1            pop ix
 2991+AB5B FD E1            pop iy
 2992+AB5D 31 78 4A         ld sp,L2+C3+VMEM_SEG_1+(BUFFER_CHUNK_LENGTH*2)
 2993+AB60 FD E5            push iy
 2994+AB62 DD E5            push ix
 2995+AB64 E5               push hl
 2996+AB65 D5               push de
 2997+AB66 C5               push bc
 2998+AB67 F5               push af
 2999+AB68                  ;Scanline 3
 3000+AB68                  ;1/2
 3001+AB68 31 F6 89         ld sp,BUFFER_SIDE_EXTRA+SEG_SIZE+GAME_WINDOW_START+(BUFFER_MIDDLE*54)
 3002+AB6B F1               pop af
 3003+AB6C C1               pop bc
 3004+AB6D D1               pop de
 3005+AB6E E1               pop hl
 3006+AB6F DD E1            pop ix
 3007+AB71 FD E1            pop iy
 3008+AB73 31 6C 4B         ld sp,L3+C3+VMEM_SEG_1+BUFFER_CHUNK_LENGTH
 3009+AB76 FD E5            push iy
 3010+AB78 DD E5            push ix
 3011+AB7A E5               push hl
 3012+AB7B D5               push de
 3013+AB7C C5               push bc
 3014+AB7D F5               push af
 3015+AB7E                  ;2/2
 3016+AB7E 31 02 8A         ld sp,SEG_SIZE+GAME_WINDOW_START+(BUFFER_MIDDLE*55)
 3017+AB81 F1               pop af
 3018+AB82 C1               pop bc
 3019+AB83 D1               pop de
 3020+AB84 E1               pop hl
 3021+AB85 DD E1            pop ix
 3022+AB87 FD E1            pop iy
 3023+AB89 31 78 4B         ld sp,L3+C3+VMEM_SEG_1+(BUFFER_CHUNK_LENGTH*2)
 3024+AB8C FD E5            push iy
 3025+AB8E DD E5            push ix
 3026+AB90 E5               push hl
 3027+AB91 D5               push de
 3028+AB92 C5               push bc
 3029+AB93 F5               push af
 3030+AB94                  ;Scanline 4
 3031+AB94                  ;1/2
 3032+AB94 31 12 8A         ld sp,BUFFER_SIDE_EXTRA+SEG_SIZE+GAME_WINDOW_START+(BUFFER_MIDDLE*56)
 3033+AB97 F1               pop af
 3034+AB98 C1               pop bc
 3035+AB99 D1               pop de
 3036+AB9A E1               pop hl
 3037+AB9B DD E1            pop ix
 3038+AB9D FD E1            pop iy
 3039+AB9F 31 6C 4C         ld sp,L4+C3+VMEM_SEG_1+BUFFER_CHUNK_LENGTH
 3040+ABA2 FD E5            push iy
 3041+ABA4 DD E5            push ix
 3042+ABA6 E5               push hl
 3043+ABA7 D5               push de
 3044+ABA8 C5               push bc
 3045+ABA9 F5               push af
 3046+ABAA                  ;2/2
 3047+ABAA 31 1E 8A         ld sp,SEG_SIZE+GAME_WINDOW_START+(BUFFER_MIDDLE*57)
 3048+ABAD F1               pop af
 3049+ABAE C1               pop bc
 3050+ABAF D1               pop de
 3051+ABB0 E1               pop hl
 3052+ABB1 DD E1            pop ix
 3053+ABB3 FD E1            pop iy
 3054+ABB5 31 78 4C         ld sp,L4+C3+VMEM_SEG_1+(BUFFER_CHUNK_LENGTH*2)
 3055+ABB8 FD E5            push iy
 3056+ABBA DD E5            push ix
 3057+ABBC E5               push hl
 3058+ABBD D5               push de
 3059+ABBE C5               push bc
 3060+ABBF F5               push af
 3061+ABC0                  ;Scanline 5
 3062+ABC0                  ;1/2
 3063+ABC0 31 2E 8A         ld sp,BUFFER_SIDE_EXTRA+SEG_SIZE+GAME_WINDOW_START+(BUFFER_MIDDLE*58)
 3064+ABC3 F1               pop af
 3065+ABC4 C1               pop bc
 3066+ABC5 D1               pop de
 3067+ABC6 E1               pop hl
 3068+ABC7 DD E1            pop ix
 3069+ABC9 FD E1            pop iy
 3070+ABCB 31 6C 4D         ld sp,L5+C3+VMEM_SEG_1+BUFFER_CHUNK_LENGTH
 3071+ABCE FD E5            push iy
 3072+ABD0 DD E5            push ix
 3073+ABD2 E5               push hl
 3074+ABD3 D5               push de
 3075+ABD4 C5               push bc
 3076+ABD5 F5               push af
 3077+ABD6                  ;2/2
 3078+ABD6 31 3A 8A         ld sp,SEG_SIZE+GAME_WINDOW_START+(BUFFER_MIDDLE*59)
 3079+ABD9 F1               pop af
 3080+ABDA C1               pop bc
 3081+ABDB D1               pop de
 3082+ABDC E1               pop hl
 3083+ABDD DD E1            pop ix
 3084+ABDF FD E1            pop iy
 3085+ABE1 31 78 4D         ld sp,L5+C3+VMEM_SEG_1+(BUFFER_CHUNK_LENGTH*2)
 3086+ABE4 FD E5            push iy
 3087+ABE6 DD E5            push ix
 3088+ABE8 E5               push hl
 3089+ABE9 D5               push de
 3090+ABEA C5               push bc
 3091+ABEB F5               push af
 3092+ABEC                  ;Scanline 6
 3093+ABEC                  ;1/2
 3094+ABEC 31 4A 8A         ld sp,BUFFER_SIDE_EXTRA+SEG_SIZE+GAME_WINDOW_START+(BUFFER_MIDDLE*60)
 3095+ABEF F1               pop af
 3096+ABF0 C1               pop bc
 3097+ABF1 D1               pop de
 3098+ABF2 E1               pop hl
 3099+ABF3 DD E1            pop ix
 3100+ABF5 FD E1            pop iy
 3101+ABF7 31 6C 4E         ld sp,L6+C3+VMEM_SEG_1+BUFFER_CHUNK_LENGTH
 3102+ABFA FD E5            push iy
 3103+ABFC DD E5            push ix
 3104+ABFE E5               push hl
 3105+ABFF D5               push de
 3106+AC00 C5               push bc
 3107+AC01 F5               push af
 3108+AC02                  ;2/2
 3109+AC02 31 56 8A         ld sp,SEG_SIZE+GAME_WINDOW_START+(BUFFER_MIDDLE*61)
 3110+AC05 F1               pop af
 3111+AC06 C1               pop bc
 3112+AC07 D1               pop de
 3113+AC08 E1               pop hl
 3114+AC09 DD E1            pop ix
 3115+AC0B FD E1            pop iy
 3116+AC0D 31 78 4E         ld sp,L6+C3+VMEM_SEG_1+(BUFFER_CHUNK_LENGTH*2)
 3117+AC10 FD E5            push iy
 3118+AC12 DD E5            push ix
 3119+AC14 E5               push hl
 3120+AC15 D5               push de
 3121+AC16 C5               push bc
 3122+AC17 F5               push af
 3123+AC18                  ;Scanline 7
 3124+AC18                  ;1/2
 3125+AC18 31 66 8A         ld sp,BUFFER_SIDE_EXTRA+SEG_SIZE+GAME_WINDOW_START+(BUFFER_MIDDLE*62)
 3126+AC1B F1               pop af
 3127+AC1C C1               pop bc
 3128+AC1D D1               pop de
 3129+AC1E E1               pop hl
 3130+AC1F DD E1            pop ix
 3131+AC21 FD E1            pop iy
 3132+AC23 31 6C 4F         ld sp,L7+C3+VMEM_SEG_1+BUFFER_CHUNK_LENGTH
 3133+AC26 FD E5            push iy
 3134+AC28 DD E5            push ix
 3135+AC2A E5               push hl
 3136+AC2B D5               push de
 3137+AC2C C5               push bc
 3138+AC2D F5               push af
 3139+AC2E                  ;2/2
 3140+AC2E 31 72 8A         ld sp,SEG_SIZE+GAME_WINDOW_START+(BUFFER_MIDDLE*63)
 3141+AC31 F1               pop af
 3142+AC32 C1               pop bc
 3143+AC33 D1               pop de
 3144+AC34 E1               pop hl
 3145+AC35 DD E1            pop ix
 3146+AC37 FD E1            pop iy
 3147+AC39 31 78 4F         ld sp,L7+C3+VMEM_SEG_1+(BUFFER_CHUNK_LENGTH*2)
 3148+AC3C FD E5            push iy
 3149+AC3E DD E5            push ix
 3150+AC40 E5               push hl
 3151+AC41 D5               push de
 3152+AC42 C5               push bc
 3153+AC43 F5               push af
 3154+AC44
 3155+AC44
 3156+AC44
 3157+AC44
 3158+AC44                  ;Char Row 4
 3159+AC44
 3160+AC44                  ;Scanline 0
 3161+AC44                  ;1/2
 3162+AC44 31 82 8A         ld sp,BUFFER_SIDE_EXTRA+SEG_SIZE+GAME_WINDOW_START+(BUFFER_MIDDLE*64)
 3163+AC47 F1               pop af
 3164+AC48 C1               pop bc
 3165+AC49 D1               pop de
 3166+AC4A E1               pop hl
 3167+AC4B DD E1            pop ix
 3168+AC4D FD E1            pop iy
 3169+AC4F 31 8C 48         ld sp,C4+VMEM_SEG_1+BUFFER_CHUNK_LENGTH
 3170+AC52 FD E5            push iy
 3171+AC54 DD E5            push ix
 3172+AC56 E5               push hl
 3173+AC57 D5               push de
 3174+AC58 C5               push bc
 3175+AC59 F5               push af
 3176+AC5A                  ;2/2
 3177+AC5A 31 8E 8A         ld sp,SEG_SIZE+GAME_WINDOW_START+(BUFFER_MIDDLE*65)
 3178+AC5D F1               pop af
 3179+AC5E C1               pop bc
 3180+AC5F D1               pop de
 3181+AC60 E1               pop hl
 3182+AC61 DD E1            pop ix
 3183+AC63 FD E1            pop iy
 3184+AC65 31 98 48         ld sp,C4+VMEM_SEG_1+(BUFFER_CHUNK_LENGTH*2)
 3185+AC68 FD E5            push iy
 3186+AC6A DD E5            push ix
 3187+AC6C E5               push hl
 3188+AC6D D5               push de
 3189+AC6E C5               push bc
 3190+AC6F F5               push af
 3191+AC70                  ;Scanline 1
 3192+AC70                  ;1/2
 3193+AC70 31 9E 8A         ld sp,BUFFER_SIDE_EXTRA+SEG_SIZE+GAME_WINDOW_START+(BUFFER_MIDDLE*66)
 3194+AC73 F1               pop af
 3195+AC74 C1               pop bc
 3196+AC75 D1               pop de
 3197+AC76 E1               pop hl
 3198+AC77 DD E1            pop ix
 3199+AC79 FD E1            pop iy
 3200+AC7B 31 8C 49         ld sp,L1+C4+VMEM_SEG_1+BUFFER_CHUNK_LENGTH
 3201+AC7E FD E5            push iy
 3202+AC80 DD E5            push ix
 3203+AC82 E5               push hl
 3204+AC83 D5               push de
 3205+AC84 C5               push bc
 3206+AC85 F5               push af
 3207+AC86                  ;2/2
 3208+AC86 31 AA 8A         ld sp,SEG_SIZE+GAME_WINDOW_START+(BUFFER_MIDDLE*67)
 3209+AC89 F1               pop af
 3210+AC8A C1               pop bc
 3211+AC8B D1               pop de
 3212+AC8C E1               pop hl
 3213+AC8D DD E1            pop ix
 3214+AC8F FD E1            pop iy
 3215+AC91 31 98 49         ld sp,L1+C4+VMEM_SEG_1+(BUFFER_CHUNK_LENGTH*2)
 3216+AC94 FD E5            push iy
 3217+AC96 DD E5            push ix
 3218+AC98 E5               push hl
 3219+AC99 D5               push de
 3220+AC9A C5               push bc
 3221+AC9B F5               push af
 3222+AC9C                  ;Scanline 2
 3223+AC9C                  ;1/2
 3224+AC9C 31 BA 8A         ld sp,BUFFER_SIDE_EXTRA+SEG_SIZE+GAME_WINDOW_START+(BUFFER_MIDDLE*68)
 3225+AC9F F1               pop af
 3226+ACA0 C1               pop bc
 3227+ACA1 D1               pop de
 3228+ACA2 E1               pop hl
 3229+ACA3 DD E1            pop ix
 3230+ACA5 FD E1            pop iy
 3231+ACA7 31 8C 4A         ld sp,L2+C4+VMEM_SEG_1+BUFFER_CHUNK_LENGTH
 3232+ACAA FD E5            push iy
 3233+ACAC DD E5            push ix
 3234+ACAE E5               push hl
 3235+ACAF D5               push de
 3236+ACB0 C5               push bc
 3237+ACB1 F5               push af
 3238+ACB2                  ;2/2
 3239+ACB2 31 C6 8A         ld sp,SEG_SIZE+GAME_WINDOW_START+(BUFFER_MIDDLE*69)
 3240+ACB5 F1               pop af
 3241+ACB6 C1               pop bc
 3242+ACB7 D1               pop de
 3243+ACB8 E1               pop hl
 3244+ACB9 DD E1            pop ix
 3245+ACBB FD E1            pop iy
 3246+ACBD 31 98 4A         ld sp,L2+C4+VMEM_SEG_1+(BUFFER_CHUNK_LENGTH*2)
 3247+ACC0 FD E5            push iy
 3248+ACC2 DD E5            push ix
 3249+ACC4 E5               push hl
 3250+ACC5 D5               push de
 3251+ACC6 C5               push bc
 3252+ACC7 F5               push af
 3253+ACC8                  ;Scanline 3
 3254+ACC8                  ;1/2
 3255+ACC8 31 D6 8A         ld sp,BUFFER_SIDE_EXTRA+SEG_SIZE+GAME_WINDOW_START+(BUFFER_MIDDLE*70)
 3256+ACCB F1               pop af
 3257+ACCC C1               pop bc
 3258+ACCD D1               pop de
 3259+ACCE E1               pop hl
 3260+ACCF DD E1            pop ix
 3261+ACD1 FD E1            pop iy
 3262+ACD3 31 8C 4B         ld sp,L3+C4+VMEM_SEG_1+BUFFER_CHUNK_LENGTH
 3263+ACD6 FD E5            push iy
 3264+ACD8 DD E5            push ix
 3265+ACDA E5               push hl
 3266+ACDB D5               push de
 3267+ACDC C5               push bc
 3268+ACDD F5               push af
 3269+ACDE                  ;2/2
 3270+ACDE 31 E2 8A         ld sp,SEG_SIZE+GAME_WINDOW_START+(BUFFER_MIDDLE*71)
 3271+ACE1 F1               pop af
 3272+ACE2 C1               pop bc
 3273+ACE3 D1               pop de
 3274+ACE4 E1               pop hl
 3275+ACE5 DD E1            pop ix
 3276+ACE7 FD E1            pop iy
 3277+ACE9 31 98 4B         ld sp,L3+C4+VMEM_SEG_1+(BUFFER_CHUNK_LENGTH*2)
 3278+ACEC FD E5            push iy
 3279+ACEE DD E5            push ix
 3280+ACF0 E5               push hl
 3281+ACF1 D5               push de
 3282+ACF2 C5               push bc
 3283+ACF3 F5               push af
 3284+ACF4                  ;Scanline 4
 3285+ACF4                  ;1/2
 3286+ACF4 31 F2 8A         ld sp,BUFFER_SIDE_EXTRA+SEG_SIZE+GAME_WINDOW_START+(BUFFER_MIDDLE*72)
 3287+ACF7 F1               pop af
 3288+ACF8 C1               pop bc
 3289+ACF9 D1               pop de
 3290+ACFA E1               pop hl
 3291+ACFB DD E1            pop ix
 3292+ACFD FD E1            pop iy
 3293+ACFF 31 8C 4C         ld sp,L4+C4+VMEM_SEG_1+BUFFER_CHUNK_LENGTH
 3294+AD02 FD E5            push iy
 3295+AD04 DD E5            push ix
 3296+AD06 E5               push hl
 3297+AD07 D5               push de
 3298+AD08 C5               push bc
 3299+AD09 F5               push af
 3300+AD0A                  ;2/2
 3301+AD0A 31 FE 8A         ld sp,SEG_SIZE+GAME_WINDOW_START+(BUFFER_MIDDLE*73)
 3302+AD0D F1               pop af
 3303+AD0E C1               pop bc
 3304+AD0F D1               pop de
 3305+AD10 E1               pop hl
 3306+AD11 DD E1            pop ix
 3307+AD13 FD E1            pop iy
 3308+AD15 31 98 4C         ld sp,L4+C4+VMEM_SEG_1+(BUFFER_CHUNK_LENGTH*2)
 3309+AD18 FD E5            push iy
 3310+AD1A DD E5            push ix
 3311+AD1C E5               push hl
 3312+AD1D D5               push de
 3313+AD1E C5               push bc
 3314+AD1F F5               push af
 3315+AD20                  ;Scanline 5
 3316+AD20                  ;1/2
 3317+AD20 31 0E 8B         ld sp,BUFFER_SIDE_EXTRA+SEG_SIZE+GAME_WINDOW_START+(BUFFER_MIDDLE*74)
 3318+AD23 F1               pop af
 3319+AD24 C1               pop bc
 3320+AD25 D1               pop de
 3321+AD26 E1               pop hl
 3322+AD27 DD E1            pop ix
 3323+AD29 FD E1            pop iy
 3324+AD2B 31 8C 4D         ld sp,L5+C4+VMEM_SEG_1+BUFFER_CHUNK_LENGTH
 3325+AD2E FD E5            push iy
 3326+AD30 DD E5            push ix
 3327+AD32 E5               push hl
 3328+AD33 D5               push de
 3329+AD34 C5               push bc
 3330+AD35 F5               push af
 3331+AD36                  ;2/2
 3332+AD36 31 1A 8B         ld sp,SEG_SIZE+GAME_WINDOW_START+(BUFFER_MIDDLE*75)
 3333+AD39 F1               pop af
 3334+AD3A C1               pop bc
 3335+AD3B D1               pop de
 3336+AD3C E1               pop hl
 3337+AD3D DD E1            pop ix
 3338+AD3F FD E1            pop iy
 3339+AD41 31 98 4D         ld sp,L5+C4+VMEM_SEG_1+(BUFFER_CHUNK_LENGTH*2)
 3340+AD44 FD E5            push iy
 3341+AD46 DD E5            push ix
 3342+AD48 E5               push hl
 3343+AD49 D5               push de
 3344+AD4A C5               push bc
 3345+AD4B F5               push af
 3346+AD4C                  ;Scanline 6
 3347+AD4C                  ;1/2
 3348+AD4C 31 2A 8B         ld sp,BUFFER_SIDE_EXTRA+SEG_SIZE+GAME_WINDOW_START+(BUFFER_MIDDLE*76)
 3349+AD4F F1               pop af
 3350+AD50 C1               pop bc
 3351+AD51 D1               pop de
 3352+AD52 E1               pop hl
 3353+AD53 DD E1            pop ix
 3354+AD55 FD E1            pop iy
 3355+AD57 31 8C 4E         ld sp,L6+C4+VMEM_SEG_1+BUFFER_CHUNK_LENGTH
 3356+AD5A FD E5            push iy
 3357+AD5C DD E5            push ix
 3358+AD5E E5               push hl
 3359+AD5F D5               push de
 3360+AD60 C5               push bc
 3361+AD61 F5               push af
 3362+AD62                  ;2/2
 3363+AD62 31 36 8B         ld sp,SEG_SIZE+GAME_WINDOW_START+(BUFFER_MIDDLE*77)
 3364+AD65 F1               pop af
 3365+AD66 C1               pop bc
 3366+AD67 D1               pop de
 3367+AD68 E1               pop hl
 3368+AD69 DD E1            pop ix
 3369+AD6B FD E1            pop iy
 3370+AD6D 31 98 4E         ld sp,L6+C4+VMEM_SEG_1+(BUFFER_CHUNK_LENGTH*2)
 3371+AD70 FD E5            push iy
 3372+AD72 DD E5            push ix
 3373+AD74 E5               push hl
 3374+AD75 D5               push de
 3375+AD76 C5               push bc
 3376+AD77 F5               push af
 3377+AD78                  ;Scanline 7
 3378+AD78                  ;1/2
 3379+AD78 31 46 8B         ld sp,BUFFER_SIDE_EXTRA+SEG_SIZE+GAME_WINDOW_START+(BUFFER_MIDDLE*78)
 3380+AD7B F1               pop af
 3381+AD7C C1               pop bc
 3382+AD7D D1               pop de
 3383+AD7E E1               pop hl
 3384+AD7F DD E1            pop ix
 3385+AD81 FD E1            pop iy
 3386+AD83 31 8C 4F         ld sp,L7+C4+VMEM_SEG_1+BUFFER_CHUNK_LENGTH
 3387+AD86 FD E5            push iy
 3388+AD88 DD E5            push ix
 3389+AD8A E5               push hl
 3390+AD8B D5               push de
 3391+AD8C C5               push bc
 3392+AD8D F5               push af
 3393+AD8E                  ;2/2
 3394+AD8E 31 52 8B         ld sp,SEG_SIZE+GAME_WINDOW_START+(BUFFER_MIDDLE*79)
 3395+AD91 F1               pop af
 3396+AD92 C1               pop bc
 3397+AD93 D1               pop de
 3398+AD94 E1               pop hl
 3399+AD95 DD E1            pop ix
 3400+AD97 FD E1            pop iy
 3401+AD99 31 98 4F         ld sp,L7+C4+VMEM_SEG_1+(BUFFER_CHUNK_LENGTH*2)
 3402+AD9C FD E5            push iy
 3403+AD9E DD E5            push ix
 3404+ADA0 E5               push hl
 3405+ADA1 D5               push de
 3406+ADA2 C5               push bc
 3407+ADA3 F5               push af
 3408+ADA4
 3409+ADA4
 3410+ADA4
 3411+ADA4
 3412+ADA4
 3413+ADA4                  ;Char Row 5
 3414+ADA4
 3415+ADA4                  ;Scanline 0
 3416+ADA4                  ;1/2
 3417+ADA4 31 62 8B         ld sp,BUFFER_SIDE_EXTRA+SEG_SIZE+GAME_WINDOW_START+(BUFFER_MIDDLE*80)
 3418+ADA7 F1               pop af
 3419+ADA8 C1               pop bc
 3420+ADA9 D1               pop de
 3421+ADAA E1               pop hl
 3422+ADAB DD E1            pop ix
 3423+ADAD FD E1            pop iy
 3424+ADAF 31 AC 48         ld sp,C5+VMEM_SEG_1+BUFFER_CHUNK_LENGTH
 3425+ADB2 FD E5            push iy
 3426+ADB4 DD E5            push ix
 3427+ADB6 E5               push hl
 3428+ADB7 D5               push de
 3429+ADB8 C5               push bc
 3430+ADB9 F5               push af
 3431+ADBA                  ;2/2
 3432+ADBA 31 6E 8B         ld sp,SEG_SIZE+GAME_WINDOW_START+(BUFFER_MIDDLE*81)
 3433+ADBD F1               pop af
 3434+ADBE C1               pop bc
 3435+ADBF D1               pop de
 3436+ADC0 E1               pop hl
 3437+ADC1 DD E1            pop ix
 3438+ADC3 FD E1            pop iy
 3439+ADC5 31 B8 48         ld sp,C5+VMEM_SEG_1+(BUFFER_CHUNK_LENGTH*2)
 3440+ADC8 FD E5            push iy
 3441+ADCA DD E5            push ix
 3442+ADCC E5               push hl
 3443+ADCD D5               push de
 3444+ADCE C5               push bc
 3445+ADCF F5               push af
 3446+ADD0                  ;Scanline 1
 3447+ADD0                  ;1/2
 3448+ADD0 31 7E 8B         ld sp,BUFFER_SIDE_EXTRA+SEG_SIZE+GAME_WINDOW_START+(BUFFER_MIDDLE*82)
 3449+ADD3 F1               pop af
 3450+ADD4 C1               pop bc
 3451+ADD5 D1               pop de
 3452+ADD6 E1               pop hl
 3453+ADD7 DD E1            pop ix
 3454+ADD9 FD E1            pop iy
 3455+ADDB 31 AC 49         ld sp,L1+C5+VMEM_SEG_1+BUFFER_CHUNK_LENGTH
 3456+ADDE FD E5            push iy
 3457+ADE0 DD E5            push ix
 3458+ADE2 E5               push hl
 3459+ADE3 D5               push de
 3460+ADE4 C5               push bc
 3461+ADE5 F5               push af
 3462+ADE6                  ;2/2
 3463+ADE6 31 8A 8B         ld sp,SEG_SIZE+GAME_WINDOW_START+(BUFFER_MIDDLE*83)
 3464+ADE9 F1               pop af
 3465+ADEA C1               pop bc
 3466+ADEB D1               pop de
 3467+ADEC E1               pop hl
 3468+ADED DD E1            pop ix
 3469+ADEF FD E1            pop iy
 3470+ADF1 31 B8 49         ld sp,L1+C5+VMEM_SEG_1+(BUFFER_CHUNK_LENGTH*2)
 3471+ADF4 FD E5            push iy
 3472+ADF6 DD E5            push ix
 3473+ADF8 E5               push hl
 3474+ADF9 D5               push de
 3475+ADFA C5               push bc
 3476+ADFB F5               push af
 3477+ADFC                  ;Scanline 2
 3478+ADFC                  ;1/2
 3479+ADFC 31 9A 8B         ld sp,BUFFER_SIDE_EXTRA+SEG_SIZE+GAME_WINDOW_START+(BUFFER_MIDDLE*84)
 3480+ADFF F1               pop af
 3481+AE00 C1               pop bc
 3482+AE01 D1               pop de
 3483+AE02 E1               pop hl
 3484+AE03 DD E1            pop ix
 3485+AE05 FD E1            pop iy
 3486+AE07 31 AC 4A         ld sp,L2+C5+VMEM_SEG_1+BUFFER_CHUNK_LENGTH
 3487+AE0A FD E5            push iy
 3488+AE0C DD E5            push ix
 3489+AE0E E5               push hl
 3490+AE0F D5               push de
 3491+AE10 C5               push bc
 3492+AE11 F5               push af
 3493+AE12                  ;2/2
 3494+AE12 31 A6 8B         ld sp,SEG_SIZE+GAME_WINDOW_START+(BUFFER_MIDDLE*85)
 3495+AE15 F1               pop af
 3496+AE16 C1               pop bc
 3497+AE17 D1               pop de
 3498+AE18 E1               pop hl
 3499+AE19 DD E1            pop ix
 3500+AE1B FD E1            pop iy
 3501+AE1D 31 B8 4A         ld sp,L2+C5+VMEM_SEG_1+(BUFFER_CHUNK_LENGTH*2)
 3502+AE20 FD E5            push iy
 3503+AE22 DD E5            push ix
 3504+AE24 E5               push hl
 3505+AE25 D5               push de
 3506+AE26 C5               push bc
 3507+AE27 F5               push af
 3508+AE28                  ;Scanline 3
 3509+AE28                  ;1/2
 3510+AE28 31 B6 8B         ld sp,BUFFER_SIDE_EXTRA+SEG_SIZE+GAME_WINDOW_START+(BUFFER_MIDDLE*86)
 3511+AE2B F1               pop af
 3512+AE2C C1               pop bc
 3513+AE2D D1               pop de
 3514+AE2E E1               pop hl
 3515+AE2F DD E1            pop ix
 3516+AE31 FD E1            pop iy
 3517+AE33 31 AC 4B         ld sp,L3+C5+VMEM_SEG_1+BUFFER_CHUNK_LENGTH
 3518+AE36 FD E5            push iy
 3519+AE38 DD E5            push ix
 3520+AE3A E5               push hl
 3521+AE3B D5               push de
 3522+AE3C C5               push bc
 3523+AE3D F5               push af
 3524+AE3E                  ;2/2
 3525+AE3E 31 C2 8B         ld sp,SEG_SIZE+GAME_WINDOW_START+(BUFFER_MIDDLE*87)
 3526+AE41 F1               pop af
 3527+AE42 C1               pop bc
 3528+AE43 D1               pop de
 3529+AE44 E1               pop hl
 3530+AE45 DD E1            pop ix
 3531+AE47 FD E1            pop iy
 3532+AE49 31 B8 4B         ld sp,L3+C5+VMEM_SEG_1+(BUFFER_CHUNK_LENGTH*2)
 3533+AE4C FD E5            push iy
 3534+AE4E DD E5            push ix
 3535+AE50 E5               push hl
 3536+AE51 D5               push de
 3537+AE52 C5               push bc
 3538+AE53 F5               push af
 3539+AE54                  ;Scanline 4
 3540+AE54                  ;1/2
 3541+AE54 31 D2 8B         ld sp,BUFFER_SIDE_EXTRA+SEG_SIZE+GAME_WINDOW_START+(BUFFER_MIDDLE*88)
 3542+AE57 F1               pop af
 3543+AE58 C1               pop bc
 3544+AE59 D1               pop de
 3545+AE5A E1               pop hl
 3546+AE5B DD E1            pop ix
 3547+AE5D FD E1            pop iy
 3548+AE5F 31 AC 4C         ld sp,L4+C5+VMEM_SEG_1+BUFFER_CHUNK_LENGTH
 3549+AE62 FD E5            push iy
 3550+AE64 DD E5            push ix
 3551+AE66 E5               push hl
 3552+AE67 D5               push de
 3553+AE68 C5               push bc
 3554+AE69 F5               push af
 3555+AE6A                  ;2/2
 3556+AE6A 31 DE 8B         ld sp,SEG_SIZE+GAME_WINDOW_START+(BUFFER_MIDDLE*89)
 3557+AE6D F1               pop af
 3558+AE6E C1               pop bc
 3559+AE6F D1               pop de
 3560+AE70 E1               pop hl
 3561+AE71 DD E1            pop ix
 3562+AE73 FD E1            pop iy
 3563+AE75 31 B8 4C         ld sp,L4+C5+VMEM_SEG_1+(BUFFER_CHUNK_LENGTH*2)
 3564+AE78 FD E5            push iy
 3565+AE7A DD E5            push ix
 3566+AE7C E5               push hl
 3567+AE7D D5               push de
 3568+AE7E C5               push bc
 3569+AE7F F5               push af
 3570+AE80                  ;Scanline 5
 3571+AE80                  ;1/2
 3572+AE80 31 EE 8B         ld sp,BUFFER_SIDE_EXTRA+SEG_SIZE+GAME_WINDOW_START+(BUFFER_MIDDLE*90)
 3573+AE83 F1               pop af
 3574+AE84 C1               pop bc
 3575+AE85 D1               pop de
 3576+AE86 E1               pop hl
 3577+AE87 DD E1            pop ix
 3578+AE89 FD E1            pop iy
 3579+AE8B 31 AC 4D         ld sp,L5+C5+VMEM_SEG_1+BUFFER_CHUNK_LENGTH
 3580+AE8E FD E5            push iy
 3581+AE90 DD E5            push ix
 3582+AE92 E5               push hl
 3583+AE93 D5               push de
 3584+AE94 C5               push bc
 3585+AE95 F5               push af
 3586+AE96                  ;2/2
 3587+AE96 31 FA 8B         ld sp,SEG_SIZE+GAME_WINDOW_START+(BUFFER_MIDDLE*91)
 3588+AE99 F1               pop af
 3589+AE9A C1               pop bc
 3590+AE9B D1               pop de
 3591+AE9C E1               pop hl
 3592+AE9D DD E1            pop ix
 3593+AE9F FD E1            pop iy
 3594+AEA1 31 B8 4D         ld sp,L5+C5+VMEM_SEG_1+(BUFFER_CHUNK_LENGTH*2)
 3595+AEA4 FD E5            push iy
 3596+AEA6 DD E5            push ix
 3597+AEA8 E5               push hl
 3598+AEA9 D5               push de
 3599+AEAA C5               push bc
 3600+AEAB F5               push af
 3601+AEAC                  ;Scanline 6
 3602+AEAC                  ;1/2
 3603+AEAC 31 0A 8C         ld sp,BUFFER_SIDE_EXTRA+SEG_SIZE+GAME_WINDOW_START+(BUFFER_MIDDLE*92)
 3604+AEAF F1               pop af
 3605+AEB0 C1               pop bc
 3606+AEB1 D1               pop de
 3607+AEB2 E1               pop hl
 3608+AEB3 DD E1            pop ix
 3609+AEB5 FD E1            pop iy
 3610+AEB7 31 AC 4E         ld sp,L6+C5+VMEM_SEG_1+BUFFER_CHUNK_LENGTH
 3611+AEBA FD E5            push iy
 3612+AEBC DD E5            push ix
 3613+AEBE E5               push hl
 3614+AEBF D5               push de
 3615+AEC0 C5               push bc
 3616+AEC1 F5               push af
 3617+AEC2                  ;2/2
 3618+AEC2 31 16 8C         ld sp,SEG_SIZE+GAME_WINDOW_START+(BUFFER_MIDDLE*93)
 3619+AEC5 F1               pop af
 3620+AEC6 C1               pop bc
 3621+AEC7 D1               pop de
 3622+AEC8 E1               pop hl
 3623+AEC9 DD E1            pop ix
 3624+AECB FD E1            pop iy
 3625+AECD 31 B8 4E         ld sp,L6+C5+VMEM_SEG_1+(BUFFER_CHUNK_LENGTH*2)
 3626+AED0 FD E5            push iy
 3627+AED2 DD E5            push ix
 3628+AED4 E5               push hl
 3629+AED5 D5               push de
 3630+AED6 C5               push bc
 3631+AED7 F5               push af
 3632+AED8                  ;Scanline 7
 3633+AED8                  ;1/2
 3634+AED8 31 26 8C         ld sp,BUFFER_SIDE_EXTRA+SEG_SIZE+GAME_WINDOW_START+(BUFFER_MIDDLE*94)
 3635+AEDB F1               pop af
 3636+AEDC C1               pop bc
 3637+AEDD D1               pop de
 3638+AEDE E1               pop hl
 3639+AEDF DD E1            pop ix
 3640+AEE1 FD E1            pop iy
 3641+AEE3 31 AC 4F         ld sp,L7+C5+VMEM_SEG_1+BUFFER_CHUNK_LENGTH
 3642+AEE6 FD E5            push iy
 3643+AEE8 DD E5            push ix
 3644+AEEA E5               push hl
 3645+AEEB D5               push de
 3646+AEEC C5               push bc
 3647+AEED F5               push af
 3648+AEEE                  ;2/2
 3649+AEEE 31 32 8C         ld sp,SEG_SIZE+GAME_WINDOW_START+(BUFFER_MIDDLE*95)
 3650+AEF1 F1               pop af
 3651+AEF2 C1               pop bc
 3652+AEF3 D1               pop de
 3653+AEF4 E1               pop hl
 3654+AEF5 DD E1            pop ix
 3655+AEF7 FD E1            pop iy
 3656+AEF9 31 B8 4F         ld sp,L7+C5+VMEM_SEG_1+(BUFFER_CHUNK_LENGTH*2)
 3657+AEFC FD E5            push iy
 3658+AEFE DD E5            push ix
 3659+AF00 E5               push hl
 3660+AF01 D5               push de
 3661+AF02 C5               push bc
 3662+AF03 F5               push af
 3663+AF04
 3664+AF04
 3665+AF04
 3666+AF04                  ;Char Row 6
 3667+AF04
 3668+AF04                  ;Scanline 0
 3669+AF04                  ;1/2
 3670+AF04 31 42 8C         ld sp,BUFFER_SIDE_EXTRA+SEG_SIZE+GAME_WINDOW_START+(BUFFER_MIDDLE*96)
 3671+AF07 F1               pop af
 3672+AF08 C1               pop bc
 3673+AF09 D1               pop de
 3674+AF0A E1               pop hl
 3675+AF0B DD E1            pop ix
 3676+AF0D FD E1            pop iy
 3677+AF0F 31 CC 48         ld sp,C6+VMEM_SEG_1+BUFFER_CHUNK_LENGTH
 3678+AF12 FD E5            push iy
 3679+AF14 DD E5            push ix
 3680+AF16 E5               push hl
 3681+AF17 D5               push de
 3682+AF18 C5               push bc
 3683+AF19 F5               push af
 3684+AF1A                  ;2/2
 3685+AF1A 31 4E 8C         ld sp,SEG_SIZE+GAME_WINDOW_START+(BUFFER_MIDDLE*97)
 3686+AF1D F1               pop af
 3687+AF1E C1               pop bc
 3688+AF1F D1               pop de
 3689+AF20 E1               pop hl
 3690+AF21 DD E1            pop ix
 3691+AF23 FD E1            pop iy
 3692+AF25 31 D8 48         ld sp,C6+VMEM_SEG_1+(BUFFER_CHUNK_LENGTH*2)
 3693+AF28 FD E5            push iy
 3694+AF2A DD E5            push ix
 3695+AF2C E5               push hl
 3696+AF2D D5               push de
 3697+AF2E C5               push bc
 3698+AF2F F5               push af
 3699+AF30                  ;Scanline 1
 3700+AF30                  ;1/2
 3701+AF30 31 5E 8C         ld sp,BUFFER_SIDE_EXTRA+SEG_SIZE+GAME_WINDOW_START+(BUFFER_MIDDLE*98)
 3702+AF33 F1               pop af
 3703+AF34 C1               pop bc
 3704+AF35 D1               pop de
 3705+AF36 E1               pop hl
 3706+AF37 DD E1            pop ix
 3707+AF39 FD E1            pop iy
 3708+AF3B 31 CC 49         ld sp,L1+C6+VMEM_SEG_1+BUFFER_CHUNK_LENGTH
 3709+AF3E FD E5            push iy
 3710+AF40 DD E5            push ix
 3711+AF42 E5               push hl
 3712+AF43 D5               push de
 3713+AF44 C5               push bc
 3714+AF45 F5               push af
 3715+AF46                  ;2/2
 3716+AF46 31 6A 8C         ld sp,SEG_SIZE+GAME_WINDOW_START+(BUFFER_MIDDLE*99)
 3717+AF49 F1               pop af
 3718+AF4A C1               pop bc
 3719+AF4B D1               pop de
 3720+AF4C E1               pop hl
 3721+AF4D DD E1            pop ix
 3722+AF4F FD E1            pop iy
 3723+AF51 31 D8 49         ld sp,L1+C6+VMEM_SEG_1+(BUFFER_CHUNK_LENGTH*2)
 3724+AF54 FD E5            push iy
 3725+AF56 DD E5            push ix
 3726+AF58 E5               push hl
 3727+AF59 D5               push de
 3728+AF5A C5               push bc
 3729+AF5B F5               push af
 3730+AF5C                  ;Scanline 2
 3731+AF5C                  ;1/2
 3732+AF5C 31 7A 8C         ld sp,BUFFER_SIDE_EXTRA+SEG_SIZE+GAME_WINDOW_START+(BUFFER_MIDDLE*100)
 3733+AF5F F1               pop af
 3734+AF60 C1               pop bc
 3735+AF61 D1               pop de
 3736+AF62 E1               pop hl
 3737+AF63 DD E1            pop ix
 3738+AF65 FD E1            pop iy
 3739+AF67 31 CC 4A         ld sp,L2+C6+VMEM_SEG_1+BUFFER_CHUNK_LENGTH
 3740+AF6A FD E5            push iy
 3741+AF6C DD E5            push ix
 3742+AF6E E5               push hl
 3743+AF6F D5               push de
 3744+AF70 C5               push bc
 3745+AF71 F5               push af
 3746+AF72                  ;2/2
 3747+AF72 31 86 8C         ld sp,SEG_SIZE+GAME_WINDOW_START+(BUFFER_MIDDLE*101)
 3748+AF75 F1               pop af
 3749+AF76 C1               pop bc
 3750+AF77 D1               pop de
 3751+AF78 E1               pop hl
 3752+AF79 DD E1            pop ix
 3753+AF7B FD E1            pop iy
 3754+AF7D 31 D8 4A         ld sp,L2+C6+VMEM_SEG_1+(BUFFER_CHUNK_LENGTH*2)
 3755+AF80 FD E5            push iy
 3756+AF82 DD E5            push ix
 3757+AF84 E5               push hl
 3758+AF85 D5               push de
 3759+AF86 C5               push bc
 3760+AF87 F5               push af
 3761+AF88                  ;Scanline 3
 3762+AF88                  ;1/2
 3763+AF88 31 96 8C         ld sp,BUFFER_SIDE_EXTRA+SEG_SIZE+GAME_WINDOW_START+(BUFFER_MIDDLE*102)
 3764+AF8B F1               pop af
 3765+AF8C C1               pop bc
 3766+AF8D D1               pop de
 3767+AF8E E1               pop hl
 3768+AF8F DD E1            pop ix
 3769+AF91 FD E1            pop iy
 3770+AF93 31 CC 4B         ld sp,L3+C6+VMEM_SEG_1+BUFFER_CHUNK_LENGTH
 3771+AF96 FD E5            push iy
 3772+AF98 DD E5            push ix
 3773+AF9A E5               push hl
 3774+AF9B D5               push de
 3775+AF9C C5               push bc
 3776+AF9D F5               push af
 3777+AF9E                  ;2/2
 3778+AF9E 31 A2 8C         ld sp,SEG_SIZE+GAME_WINDOW_START+(BUFFER_MIDDLE*103)
 3779+AFA1 F1               pop af
 3780+AFA2 C1               pop bc
 3781+AFA3 D1               pop de
 3782+AFA4 E1               pop hl
 3783+AFA5 DD E1            pop ix
 3784+AFA7 FD E1            pop iy
 3785+AFA9 31 D8 4B         ld sp,L3+C6+VMEM_SEG_1+(BUFFER_CHUNK_LENGTH*2)
 3786+AFAC FD E5            push iy
 3787+AFAE DD E5            push ix
 3788+AFB0 E5               push hl
 3789+AFB1 D5               push de
 3790+AFB2 C5               push bc
 3791+AFB3 F5               push af
 3792+AFB4                  ;Scanline 4
 3793+AFB4                  ;1/2
 3794+AFB4 31 B2 8C         ld sp,BUFFER_SIDE_EXTRA+SEG_SIZE+GAME_WINDOW_START+(BUFFER_MIDDLE*104)
 3795+AFB7 F1               pop af
 3796+AFB8 C1               pop bc
 3797+AFB9 D1               pop de
 3798+AFBA E1               pop hl
 3799+AFBB DD E1            pop ix
 3800+AFBD FD E1            pop iy
 3801+AFBF 31 CC 4C         ld sp,L4+C6+VMEM_SEG_1+BUFFER_CHUNK_LENGTH
 3802+AFC2 FD E5            push iy
 3803+AFC4 DD E5            push ix
 3804+AFC6 E5               push hl
 3805+AFC7 D5               push de
 3806+AFC8 C5               push bc
 3807+AFC9 F5               push af
 3808+AFCA                  ;2/2
 3809+AFCA 31 BE 8C         ld sp,SEG_SIZE+GAME_WINDOW_START+(BUFFER_MIDDLE*105)
 3810+AFCD F1               pop af
 3811+AFCE C1               pop bc
 3812+AFCF D1               pop de
 3813+AFD0 E1               pop hl
 3814+AFD1 DD E1            pop ix
 3815+AFD3 FD E1            pop iy
 3816+AFD5 31 D8 4C         ld sp,L4+C6+VMEM_SEG_1+(BUFFER_CHUNK_LENGTH*2)
 3817+AFD8 FD E5            push iy
 3818+AFDA DD E5            push ix
 3819+AFDC E5               push hl
 3820+AFDD D5               push de
 3821+AFDE C5               push bc
 3822+AFDF F5               push af
 3823+AFE0                  ;Scanline 5
 3824+AFE0                  ;1/2
 3825+AFE0 31 CE 8C         ld sp,BUFFER_SIDE_EXTRA+SEG_SIZE+GAME_WINDOW_START+(BUFFER_MIDDLE*106)
 3826+AFE3 F1               pop af
 3827+AFE4 C1               pop bc
 3828+AFE5 D1               pop de
 3829+AFE6 E1               pop hl
 3830+AFE7 DD E1            pop ix
 3831+AFE9 FD E1            pop iy
 3832+AFEB 31 CC 4D         ld sp,L5+C6+VMEM_SEG_1+BUFFER_CHUNK_LENGTH
 3833+AFEE FD E5            push iy
 3834+AFF0 DD E5            push ix
 3835+AFF2 E5               push hl
 3836+AFF3 D5               push de
 3837+AFF4 C5               push bc
 3838+AFF5 F5               push af
 3839+AFF6                  ;2/2
 3840+AFF6 31 DA 8C         ld sp,SEG_SIZE+GAME_WINDOW_START+(BUFFER_MIDDLE*107)
 3841+AFF9 F1               pop af
 3842+AFFA C1               pop bc
 3843+AFFB D1               pop de
 3844+AFFC E1               pop hl
 3845+AFFD DD E1            pop ix
 3846+AFFF FD E1            pop iy
 3847+B001 31 D8 4D         ld sp,L5+C6+VMEM_SEG_1+(BUFFER_CHUNK_LENGTH*2)
 3848+B004 FD E5            push iy
 3849+B006 DD E5            push ix
 3850+B008 E5               push hl
 3851+B009 D5               push de
 3852+B00A C5               push bc
 3853+B00B F5               push af
 3854+B00C                  ;Scanline 6
 3855+B00C                  ;1/2
 3856+B00C 31 EA 8C         ld sp,BUFFER_SIDE_EXTRA+SEG_SIZE+GAME_WINDOW_START+(BUFFER_MIDDLE*108)
 3857+B00F F1               pop af
 3858+B010 C1               pop bc
 3859+B011 D1               pop de
 3860+B012 E1               pop hl
 3861+B013 DD E1            pop ix
 3862+B015 FD E1            pop iy
 3863+B017 31 CC 4E         ld sp,L6+C6+VMEM_SEG_1+BUFFER_CHUNK_LENGTH
 3864+B01A FD E5            push iy
 3865+B01C DD E5            push ix
 3866+B01E E5               push hl
 3867+B01F D5               push de
 3868+B020 C5               push bc
 3869+B021 F5               push af
 3870+B022                  ;2/2
 3871+B022 31 F6 8C         ld sp,SEG_SIZE+GAME_WINDOW_START+(BUFFER_MIDDLE*109)
 3872+B025 F1               pop af
 3873+B026 C1               pop bc
 3874+B027 D1               pop de
 3875+B028 E1               pop hl
 3876+B029 DD E1            pop ix
 3877+B02B FD E1            pop iy
 3878+B02D 31 D8 4E         ld sp,L6+C6+VMEM_SEG_1+(BUFFER_CHUNK_LENGTH*2)
 3879+B030 FD E5            push iy
 3880+B032 DD E5            push ix
 3881+B034 E5               push hl
 3882+B035 D5               push de
 3883+B036 C5               push bc
 3884+B037 F5               push af
 3885+B038                  ;Scanline 7
 3886+B038                  ;1/2
 3887+B038 31 06 8D         ld sp,BUFFER_SIDE_EXTRA+SEG_SIZE+GAME_WINDOW_START+(BUFFER_MIDDLE*110)
 3888+B03B F1               pop af
 3889+B03C C1               pop bc
 3890+B03D D1               pop de
 3891+B03E E1               pop hl
 3892+B03F DD E1            pop ix
 3893+B041 FD E1            pop iy
 3894+B043 31 CC 4F         ld sp,L7+C6+VMEM_SEG_1+BUFFER_CHUNK_LENGTH
 3895+B046 FD E5            push iy
 3896+B048 DD E5            push ix
 3897+B04A E5               push hl
 3898+B04B D5               push de
 3899+B04C C5               push bc
 3900+B04D F5               push af
 3901+B04E                  ;2/2
 3902+B04E 31 12 8D         ld sp,SEG_SIZE+GAME_WINDOW_START+(BUFFER_MIDDLE*111)
 3903+B051 F1               pop af
 3904+B052 C1               pop bc
 3905+B053 D1               pop de
 3906+B054 E1               pop hl
 3907+B055 DD E1            pop ix
 3908+B057 FD E1            pop iy
 3909+B059 31 D8 4F         ld sp,L7+C6+VMEM_SEG_1+(BUFFER_CHUNK_LENGTH*2)
 3910+B05C FD E5            push iy
 3911+B05E DD E5            push ix
 3912+B060 E5               push hl
 3913+B061 D5               push de
 3914+B062 C5               push bc
 3915+B063 F5               push af
 3916+B064
 3917+B064
 3918+B064
 3919+B064                  ;Char Row 7
 3920+B064
 3921+B064                  ;Scanline 0
 3922+B064                  ;1/2
 3923+B064 31 22 8D         ld sp,BUFFER_SIDE_EXTRA+SEG_SIZE+GAME_WINDOW_START+(BUFFER_MIDDLE*112)
 3924+B067 F1               pop af
 3925+B068 C1               pop bc
 3926+B069 D1               pop de
 3927+B06A E1               pop hl
 3928+B06B DD E1            pop ix
 3929+B06D FD E1            pop iy
 3930+B06F 31 EC 48         ld sp,C7+VMEM_SEG_1+BUFFER_CHUNK_LENGTH
 3931+B072 FD E5            push iy
 3932+B074 DD E5            push ix
 3933+B076 E5               push hl
 3934+B077 D5               push de
 3935+B078 C5               push bc
 3936+B079 F5               push af
 3937+B07A                  ;2/2
 3938+B07A 31 2E 8D         ld sp,SEG_SIZE+GAME_WINDOW_START+(BUFFER_MIDDLE*113)
 3939+B07D F1               pop af
 3940+B07E C1               pop bc
 3941+B07F D1               pop de
 3942+B080 E1               pop hl
 3943+B081 DD E1            pop ix
 3944+B083 FD E1            pop iy
 3945+B085 31 F8 48         ld sp,C7+VMEM_SEG_1+(BUFFER_CHUNK_LENGTH*2)
 3946+B088 FD E5            push iy
 3947+B08A DD E5            push ix
 3948+B08C E5               push hl
 3949+B08D D5               push de
 3950+B08E C5               push bc
 3951+B08F F5               push af
 3952+B090                  ;Scanline 1
 3953+B090                  ;1/2
 3954+B090 31 3E 8D         ld sp,BUFFER_SIDE_EXTRA+SEG_SIZE+GAME_WINDOW_START+(BUFFER_MIDDLE*114)
 3955+B093 F1               pop af
 3956+B094 C1               pop bc
 3957+B095 D1               pop de
 3958+B096 E1               pop hl
 3959+B097 DD E1            pop ix
 3960+B099 FD E1            pop iy
 3961+B09B 31 EC 49         ld sp,L1+C7+VMEM_SEG_1+BUFFER_CHUNK_LENGTH
 3962+B09E FD E5            push iy
 3963+B0A0 DD E5            push ix
 3964+B0A2 E5               push hl
 3965+B0A3 D5               push de
 3966+B0A4 C5               push bc
 3967+B0A5 F5               push af
 3968+B0A6                  ;2/2
 3969+B0A6 31 4A 8D         ld sp,SEG_SIZE+GAME_WINDOW_START+(BUFFER_MIDDLE*115)
 3970+B0A9 F1               pop af
 3971+B0AA C1               pop bc
 3972+B0AB D1               pop de
 3973+B0AC E1               pop hl
 3974+B0AD DD E1            pop ix
 3975+B0AF FD E1            pop iy
 3976+B0B1 31 F8 49         ld sp,L1+C7+VMEM_SEG_1+(BUFFER_CHUNK_LENGTH*2)
 3977+B0B4 FD E5            push iy
 3978+B0B6 DD E5            push ix
 3979+B0B8 E5               push hl
 3980+B0B9 D5               push de
 3981+B0BA C5               push bc
 3982+B0BB F5               push af
 3983+B0BC                  ;Scanline 2
 3984+B0BC                  ;1/2
 3985+B0BC 31 5A 8D         ld sp,BUFFER_SIDE_EXTRA+SEG_SIZE+GAME_WINDOW_START+(BUFFER_MIDDLE*116)
 3986+B0BF F1               pop af
 3987+B0C0 C1               pop bc
 3988+B0C1 D1               pop de
 3989+B0C2 E1               pop hl
 3990+B0C3 DD E1            pop ix
 3991+B0C5 FD E1            pop iy
 3992+B0C7 31 EC 4A         ld sp,L2+C7+VMEM_SEG_1+BUFFER_CHUNK_LENGTH
 3993+B0CA FD E5            push iy
 3994+B0CC DD E5            push ix
 3995+B0CE E5               push hl
 3996+B0CF D5               push de
 3997+B0D0 C5               push bc
 3998+B0D1 F5               push af
 3999+B0D2                  ;2/2
 4000+B0D2 31 66 8D         ld sp,SEG_SIZE+GAME_WINDOW_START+(BUFFER_MIDDLE*117)
 4001+B0D5 F1               pop af
 4002+B0D6 C1               pop bc
 4003+B0D7 D1               pop de
 4004+B0D8 E1               pop hl
 4005+B0D9 DD E1            pop ix
 4006+B0DB FD E1            pop iy
 4007+B0DD 31 F8 4A         ld sp,L2+C7+VMEM_SEG_1+(BUFFER_CHUNK_LENGTH*2)
 4008+B0E0 FD E5            push iy
 4009+B0E2 DD E5            push ix
 4010+B0E4 E5               push hl
 4011+B0E5 D5               push de
 4012+B0E6 C5               push bc
 4013+B0E7 F5               push af
 4014+B0E8                  ;Scanline 3
 4015+B0E8                  ;1/2
 4016+B0E8 31 76 8D         ld sp,BUFFER_SIDE_EXTRA+SEG_SIZE+GAME_WINDOW_START+(BUFFER_MIDDLE*118)
 4017+B0EB F1               pop af
 4018+B0EC C1               pop bc
 4019+B0ED D1               pop de
 4020+B0EE E1               pop hl
 4021+B0EF DD E1            pop ix
 4022+B0F1 FD E1            pop iy
 4023+B0F3 31 EC 4B         ld sp,L3+C7+VMEM_SEG_1+BUFFER_CHUNK_LENGTH
 4024+B0F6 FD E5            push iy
 4025+B0F8 DD E5            push ix
 4026+B0FA E5               push hl
 4027+B0FB D5               push de
 4028+B0FC C5               push bc
 4029+B0FD F5               push af
 4030+B0FE                  ;2/2
 4031+B0FE 31 82 8D         ld sp,SEG_SIZE+GAME_WINDOW_START+(BUFFER_MIDDLE*119)
 4032+B101 F1               pop af
 4033+B102 C1               pop bc
 4034+B103 D1               pop de
 4035+B104 E1               pop hl
 4036+B105 DD E1            pop ix
 4037+B107 FD E1            pop iy
 4038+B109 31 F8 4B         ld sp,L3+C7+VMEM_SEG_1+(BUFFER_CHUNK_LENGTH*2)
 4039+B10C FD E5            push iy
 4040+B10E DD E5            push ix
 4041+B110 E5               push hl
 4042+B111 D5               push de
 4043+B112 C5               push bc
 4044+B113 F5               push af
 4045+B114                  ;Scanline 4
 4046+B114                  ;1/2
 4047+B114 31 92 8D         ld sp,BUFFER_SIDE_EXTRA+SEG_SIZE+GAME_WINDOW_START+(BUFFER_MIDDLE*120)
 4048+B117 F1               pop af
 4049+B118 C1               pop bc
 4050+B119 D1               pop de
 4051+B11A E1               pop hl
 4052+B11B DD E1            pop ix
 4053+B11D FD E1            pop iy
 4054+B11F 31 EC 4C         ld sp,L4+C7+VMEM_SEG_1+BUFFER_CHUNK_LENGTH
 4055+B122 FD E5            push iy
 4056+B124 DD E5            push ix
 4057+B126 E5               push hl
 4058+B127 D5               push de
 4059+B128 C5               push bc
 4060+B129 F5               push af
 4061+B12A                  ;2/2
 4062+B12A 31 9E 8D         ld sp,SEG_SIZE+GAME_WINDOW_START+(BUFFER_MIDDLE*121)
 4063+B12D F1               pop af
 4064+B12E C1               pop bc
 4065+B12F D1               pop de
 4066+B130 E1               pop hl
 4067+B131 DD E1            pop ix
 4068+B133 FD E1            pop iy
 4069+B135 31 F8 4C         ld sp,L4+C7+VMEM_SEG_1+(BUFFER_CHUNK_LENGTH*2)
 4070+B138 FD E5            push iy
 4071+B13A DD E5            push ix
 4072+B13C E5               push hl
 4073+B13D D5               push de
 4074+B13E C5               push bc
 4075+B13F F5               push af
 4076+B140                  ;Scanline 5
 4077+B140                  ;1/2
 4078+B140 31 AE 8D         ld sp,BUFFER_SIDE_EXTRA+SEG_SIZE+GAME_WINDOW_START+(BUFFER_MIDDLE*122)
 4079+B143 F1               pop af
 4080+B144 C1               pop bc
 4081+B145 D1               pop de
 4082+B146 E1               pop hl
 4083+B147 DD E1            pop ix
 4084+B149 FD E1            pop iy
 4085+B14B 31 EC 4D         ld sp,L5+C7+VMEM_SEG_1+BUFFER_CHUNK_LENGTH
 4086+B14E FD E5            push iy
 4087+B150 DD E5            push ix
 4088+B152 E5               push hl
 4089+B153 D5               push de
 4090+B154 C5               push bc
 4091+B155 F5               push af
 4092+B156                  ;2/2
 4093+B156 31 BA 8D         ld sp,SEG_SIZE+GAME_WINDOW_START+(BUFFER_MIDDLE*123)
 4094+B159 F1               pop af
 4095+B15A C1               pop bc
 4096+B15B D1               pop de
 4097+B15C E1               pop hl
 4098+B15D DD E1            pop ix
 4099+B15F FD E1            pop iy
 4100+B161 31 F8 4D         ld sp,L5+C7+VMEM_SEG_1+(BUFFER_CHUNK_LENGTH*2)
 4101+B164 FD E5            push iy
 4102+B166 DD E5            push ix
 4103+B168 E5               push hl
 4104+B169 D5               push de
 4105+B16A C5               push bc
 4106+B16B F5               push af
 4107+B16C                  ;Scanline 6
 4108+B16C                  ;1/2
 4109+B16C 31 CA 8D         ld sp,BUFFER_SIDE_EXTRA+SEG_SIZE+GAME_WINDOW_START+(BUFFER_MIDDLE*124)
 4110+B16F F1               pop af
 4111+B170 C1               pop bc
 4112+B171 D1               pop de
 4113+B172 E1               pop hl
 4114+B173 DD E1            pop ix
 4115+B175 FD E1            pop iy
 4116+B177 31 EC 4E         ld sp,L6+C7+VMEM_SEG_1+BUFFER_CHUNK_LENGTH
 4117+B17A FD E5            push iy
 4118+B17C DD E5            push ix
 4119+B17E E5               push hl
 4120+B17F D5               push de
 4121+B180 C5               push bc
 4122+B181 F5               push af
 4123+B182                  ;2/2
 4124+B182 31 D6 8D         ld sp,SEG_SIZE+GAME_WINDOW_START+(BUFFER_MIDDLE*125)
 4125+B185 F1               pop af
 4126+B186 C1               pop bc
 4127+B187 D1               pop de
 4128+B188 E1               pop hl
 4129+B189 DD E1            pop ix
 4130+B18B FD E1            pop iy
 4131+B18D 31 F8 4E         ld sp,L6+C7+VMEM_SEG_1+(BUFFER_CHUNK_LENGTH*2)
 4132+B190 FD E5            push iy
 4133+B192 DD E5            push ix
 4134+B194 E5               push hl
 4135+B195 D5               push de
 4136+B196 C5               push bc
 4137+B197 F5               push af
 4138+B198                  ;Scanline 7
 4139+B198                  ;1/2
 4140+B198 31 E6 8D         ld sp,BUFFER_SIDE_EXTRA+SEG_SIZE+GAME_WINDOW_START+(BUFFER_MIDDLE*126)
 4141+B19B F1               pop af
 4142+B19C C1               pop bc
 4143+B19D D1               pop de
 4144+B19E E1               pop hl
 4145+B19F DD E1            pop ix
 4146+B1A1 FD E1            pop iy
 4147+B1A3 31 EC 4F         ld sp,L7+C7+VMEM_SEG_1+BUFFER_CHUNK_LENGTH
 4148+B1A6 FD E5            push iy
 4149+B1A8 DD E5            push ix
 4150+B1AA E5               push hl
 4151+B1AB D5               push de
 4152+B1AC C5               push bc
 4153+B1AD F5               push af
 4154+B1AE                  ;2/2
 4155+B1AE 31 F2 8D         ld sp,SEG_SIZE+GAME_WINDOW_START+(BUFFER_MIDDLE*127)
 4156+B1B1 F1               pop af
 4157+B1B2 C1               pop bc
 4158+B1B3 D1               pop de
 4159+B1B4 E1               pop hl
 4160+B1B5 DD E1            pop ix
 4161+B1B7 FD E1            pop iy
 4162+B1B9 31 F8 4F         ld sp,L7+C7+VMEM_SEG_1+(BUFFER_CHUNK_LENGTH*2)
 4163+B1BC FD E5            push iy
 4164+B1BE DD E5            push ix
 4165+B1C0 E5               push hl
 4166+B1C1 D5               push de
 4167+B1C2 C5               push bc
 4168+B1C3 F5               push af
 4169+B1C4
 4170+B1C4
 4171+B1C4
 4172+B1C4
 4173+B1C4
 4174+B1C4
 4175+B1C4
 4176+B1C4
 4177+B1C4
 4178+B1C4
 4179+B1C4
 4180+B1C4
 4181+B1C4
 4182+B1C4
 4183+B1C4
 4184+B1C4
 4185+B1C4
 4186+B1C4
 4187+B1C4
 4188+B1C4
 4189+B1C4
 4190+B1C4
 4191+B1C4
 4192+B1C4
 4193+B1C4
 4194+B1C4
 4195+B1C4
 4196+B1C4
 4197+B1C4
 4198+B1C4
 4199+B1C4
 4200+B1C4
 4201+B1C4
 4202+B1C4
 4203+B1C4
 4204+B1C4
 4205+B1C4
 4206+B1C4                  ;SEG2
 4207+B1C4
 4208+B1C4                  ;Char Row 0
 4209+B1C4
 4210+B1C4                  ;Scanline 0
 4211+B1C4                  ;1/2
 4212+B1C4 31 02 8E         ld sp,BUFFER_SIDE_EXTRA+SEG_SIZE+SEG_SIZE+GAME_WINDOW_START+(BUFFER_MIDDLE*0)
 4213+B1C7 F1               pop af
 4214+B1C8 C1               pop bc
 4215+B1C9 D1               pop de
 4216+B1CA E1               pop hl
 4217+B1CB DD E1            pop ix
 4218+B1CD FD E1            pop iy
 4219+B1CF 31 0C 50         ld sp,VMEM_SEG_2+BUFFER_CHUNK_LENGTH
 4220+B1D2 FD E5            push iy
 4221+B1D4 DD E5            push ix
 4222+B1D6 E5               push hl
 4223+B1D7 D5               push de
 4224+B1D8 C5               push bc
 4225+B1D9 F5               push af
 4226+B1DA                  ;2/2
 4227+B1DA 31 0E 8E         ld sp,SEG_SIZE+SEG_SIZE+GAME_WINDOW_START+(BUFFER_MIDDLE*1)
 4228+B1DD F1               pop af
 4229+B1DE C1               pop bc
 4230+B1DF D1               pop de
 4231+B1E0 E1               pop hl
 4232+B1E1 DD E1            pop ix
 4233+B1E3 FD E1            pop iy
 4234+B1E5 31 18 50         ld sp,VMEM_SEG_2+(BUFFER_CHUNK_LENGTH*2)
 4235+B1E8 FD E5            push iy
 4236+B1EA DD E5            push ix
 4237+B1EC E5               push hl
 4238+B1ED D5               push de
 4239+B1EE C5               push bc
 4240+B1EF F5               push af
 4241+B1F0                  ;Scanline 1
 4242+B1F0                  ;1/2
 4243+B1F0 31 1E 8E         ld sp,BUFFER_SIDE_EXTRA+SEG_SIZE+SEG_SIZE+GAME_WINDOW_START+(BUFFER_MIDDLE*2)
 4244+B1F3 F1               pop af
 4245+B1F4 C1               pop bc
 4246+B1F5 D1               pop de
 4247+B1F6 E1               pop hl
 4248+B1F7 DD E1            pop ix
 4249+B1F9 FD E1            pop iy
 4250+B1FB 31 0C 51         ld sp,L1+VMEM_SEG_2+BUFFER_CHUNK_LENGTH
 4251+B1FE FD E5            push iy
 4252+B200 DD E5            push ix
 4253+B202 E5               push hl
 4254+B203 D5               push de
 4255+B204 C5               push bc
 4256+B205 F5               push af
 4257+B206                  ;2/2
 4258+B206 31 2A 8E         ld sp,SEG_SIZE+SEG_SIZE+GAME_WINDOW_START+(BUFFER_MIDDLE*3)
 4259+B209 F1               pop af
 4260+B20A C1               pop bc
 4261+B20B D1               pop de
 4262+B20C E1               pop hl
 4263+B20D DD E1            pop ix
 4264+B20F FD E1            pop iy
 4265+B211 31 18 51         ld sp,L1+VMEM_SEG_2+(BUFFER_CHUNK_LENGTH*2)
 4266+B214 FD E5            push iy
 4267+B216 DD E5            push ix
 4268+B218 E5               push hl
 4269+B219 D5               push de
 4270+B21A C5               push bc
 4271+B21B F5               push af
 4272+B21C                  ;Scanline 2
 4273+B21C                  ;1/2
 4274+B21C 31 3A 8E         ld sp,BUFFER_SIDE_EXTRA+SEG_SIZE+SEG_SIZE+GAME_WINDOW_START+(BUFFER_MIDDLE*4)
 4275+B21F F1               pop af
 4276+B220 C1               pop bc
 4277+B221 D1               pop de
 4278+B222 E1               pop hl
 4279+B223 DD E1            pop ix
 4280+B225 FD E1            pop iy
 4281+B227 31 0C 52         ld sp,L2+VMEM_SEG_2+BUFFER_CHUNK_LENGTH
 4282+B22A FD E5            push iy
 4283+B22C DD E5            push ix
 4284+B22E E5               push hl
 4285+B22F D5               push de
 4286+B230 C5               push bc
 4287+B231 F5               push af
 4288+B232                  ;2/2
 4289+B232 31 46 8E         ld sp,SEG_SIZE+SEG_SIZE+GAME_WINDOW_START+(BUFFER_MIDDLE*5)
 4290+B235 F1               pop af
 4291+B236 C1               pop bc
 4292+B237 D1               pop de
 4293+B238 E1               pop hl
 4294+B239 DD E1            pop ix
 4295+B23B FD E1            pop iy
 4296+B23D 31 18 52         ld sp,L2+VMEM_SEG_2+(BUFFER_CHUNK_LENGTH*2)
 4297+B240 FD E5            push iy
 4298+B242 DD E5            push ix
 4299+B244 E5               push hl
 4300+B245 D5               push de
 4301+B246 C5               push bc
 4302+B247 F5               push af
 4303+B248                  ;Scanline 3
 4304+B248                  ;1/2
 4305+B248 31 56 8E         ld sp,BUFFER_SIDE_EXTRA+SEG_SIZE+SEG_SIZE+GAME_WINDOW_START+(BUFFER_MIDDLE*6)
 4306+B24B F1               pop af
 4307+B24C C1               pop bc
 4308+B24D D1               pop de
 4309+B24E E1               pop hl
 4310+B24F DD E1            pop ix
 4311+B251 FD E1            pop iy
 4312+B253 31 0C 53         ld sp,L3+VMEM_SEG_2+BUFFER_CHUNK_LENGTH
 4313+B256 FD E5            push iy
 4314+B258 DD E5            push ix
 4315+B25A E5               push hl
 4316+B25B D5               push de
 4317+B25C C5               push bc
 4318+B25D F5               push af
 4319+B25E                  ;2/2
 4320+B25E 31 62 8E         ld sp,SEG_SIZE+SEG_SIZE+GAME_WINDOW_START+(BUFFER_MIDDLE*7)
 4321+B261 F1               pop af
 4322+B262 C1               pop bc
 4323+B263 D1               pop de
 4324+B264 E1               pop hl
 4325+B265 DD E1            pop ix
 4326+B267 FD E1            pop iy
 4327+B269 31 18 53         ld sp,L3+VMEM_SEG_2+(BUFFER_CHUNK_LENGTH*2)
 4328+B26C FD E5            push iy
 4329+B26E DD E5            push ix
 4330+B270 E5               push hl
 4331+B271 D5               push de
 4332+B272 C5               push bc
 4333+B273 F5               push af
 4334+B274                  ;Scanline 4
 4335+B274                  ;1/2
 4336+B274 31 72 8E         ld sp,BUFFER_SIDE_EXTRA+SEG_SIZE+SEG_SIZE+GAME_WINDOW_START+(BUFFER_MIDDLE*8)
 4337+B277 F1               pop af
 4338+B278 C1               pop bc
 4339+B279 D1               pop de
 4340+B27A E1               pop hl
 4341+B27B DD E1            pop ix
 4342+B27D FD E1            pop iy
 4343+B27F 31 0C 54         ld sp,L4+VMEM_SEG_2+BUFFER_CHUNK_LENGTH
 4344+B282 FD E5            push iy
 4345+B284 DD E5            push ix
 4346+B286 E5               push hl
 4347+B287 D5               push de
 4348+B288 C5               push bc
 4349+B289 F5               push af
 4350+B28A                  ;2/2
 4351+B28A 31 7E 8E         ld sp,SEG_SIZE+SEG_SIZE+GAME_WINDOW_START+(BUFFER_MIDDLE*9)
 4352+B28D F1               pop af
 4353+B28E C1               pop bc
 4354+B28F D1               pop de
 4355+B290 E1               pop hl
 4356+B291 DD E1            pop ix
 4357+B293 FD E1            pop iy
 4358+B295 31 18 54         ld sp,L4+VMEM_SEG_2+(BUFFER_CHUNK_LENGTH*2)
 4359+B298 FD E5            push iy
 4360+B29A DD E5            push ix
 4361+B29C E5               push hl
 4362+B29D D5               push de
 4363+B29E C5               push bc
 4364+B29F F5               push af
 4365+B2A0                  ;Scanline 5
 4366+B2A0                  ;1/2
 4367+B2A0 31 8E 8E         ld sp,BUFFER_SIDE_EXTRA+SEG_SIZE+SEG_SIZE+GAME_WINDOW_START+(BUFFER_MIDDLE*10)
 4368+B2A3 F1               pop af
 4369+B2A4 C1               pop bc
 4370+B2A5 D1               pop de
 4371+B2A6 E1               pop hl
 4372+B2A7 DD E1            pop ix
 4373+B2A9 FD E1            pop iy
 4374+B2AB 31 0C 55         ld sp,L5+VMEM_SEG_2+BUFFER_CHUNK_LENGTH
 4375+B2AE FD E5            push iy
 4376+B2B0 DD E5            push ix
 4377+B2B2 E5               push hl
 4378+B2B3 D5               push de
 4379+B2B4 C5               push bc
 4380+B2B5 F5               push af
 4381+B2B6                  ;2/2
 4382+B2B6 31 9A 8E         ld sp,SEG_SIZE+SEG_SIZE+GAME_WINDOW_START+(BUFFER_MIDDLE*11)
 4383+B2B9 F1               pop af
 4384+B2BA C1               pop bc
 4385+B2BB D1               pop de
 4386+B2BC E1               pop hl
 4387+B2BD DD E1            pop ix
 4388+B2BF FD E1            pop iy
 4389+B2C1 31 18 55         ld sp,L5+VMEM_SEG_2+(BUFFER_CHUNK_LENGTH*2)
 4390+B2C4 FD E5            push iy
 4391+B2C6 DD E5            push ix
 4392+B2C8 E5               push hl
 4393+B2C9 D5               push de
 4394+B2CA C5               push bc
 4395+B2CB F5               push af
 4396+B2CC                  ;Scanline 6
 4397+B2CC                  ;1/2
 4398+B2CC 31 AA 8E         ld sp,BUFFER_SIDE_EXTRA+SEG_SIZE+SEG_SIZE+GAME_WINDOW_START+(BUFFER_MIDDLE*12)
 4399+B2CF F1               pop af
 4400+B2D0 C1               pop bc
 4401+B2D1 D1               pop de
 4402+B2D2 E1               pop hl
 4403+B2D3 DD E1            pop ix
 4404+B2D5 FD E1            pop iy
 4405+B2D7 31 0C 56         ld sp,L6+VMEM_SEG_2+BUFFER_CHUNK_LENGTH
 4406+B2DA FD E5            push iy
 4407+B2DC DD E5            push ix
 4408+B2DE E5               push hl
 4409+B2DF D5               push de
 4410+B2E0 C5               push bc
 4411+B2E1 F5               push af
 4412+B2E2                  ;2/2
 4413+B2E2 31 B6 8E         ld sp,SEG_SIZE+SEG_SIZE+GAME_WINDOW_START+(BUFFER_MIDDLE*13)
 4414+B2E5 F1               pop af
 4415+B2E6 C1               pop bc
 4416+B2E7 D1               pop de
 4417+B2E8 E1               pop hl
 4418+B2E9 DD E1            pop ix
 4419+B2EB FD E1            pop iy
 4420+B2ED 31 18 56         ld sp,L6+VMEM_SEG_2+(BUFFER_CHUNK_LENGTH*2)
 4421+B2F0 FD E5            push iy
 4422+B2F2 DD E5            push ix
 4423+B2F4 E5               push hl
 4424+B2F5 D5               push de
 4425+B2F6 C5               push bc
 4426+B2F7 F5               push af
 4427+B2F8                  ;Scanline 7
 4428+B2F8                  ;1/2
 4429+B2F8 31 C6 8E         ld sp,BUFFER_SIDE_EXTRA+SEG_SIZE+SEG_SIZE+GAME_WINDOW_START+(BUFFER_MIDDLE*14)
 4430+B2FB F1               pop af
 4431+B2FC C1               pop bc
 4432+B2FD D1               pop de
 4433+B2FE E1               pop hl
 4434+B2FF DD E1            pop ix
 4435+B301 FD E1            pop iy
 4436+B303 31 0C 57         ld sp,L7+VMEM_SEG_2+BUFFER_CHUNK_LENGTH
 4437+B306 FD E5            push iy
 4438+B308 DD E5            push ix
 4439+B30A E5               push hl
 4440+B30B D5               push de
 4441+B30C C5               push bc
 4442+B30D F5               push af
 4443+B30E                  ;2/2
 4444+B30E 31 D2 8E         ld sp,SEG_SIZE+SEG_SIZE+GAME_WINDOW_START+(BUFFER_MIDDLE*15)
 4445+B311 F1               pop af
 4446+B312 C1               pop bc
 4447+B313 D1               pop de
 4448+B314 E1               pop hl
 4449+B315 DD E1            pop ix
 4450+B317 FD E1            pop iy
 4451+B319 31 18 57         ld sp,L7+VMEM_SEG_2+(BUFFER_CHUNK_LENGTH*2)
 4452+B31C FD E5            push iy
 4453+B31E DD E5            push ix
 4454+B320 E5               push hl
 4455+B321 D5               push de
 4456+B322 C5               push bc
 4457+B323 F5               push af
 4458+B324
 4459+B324
 4460+B324
 4461+B324
 4462+B324                  ;Char Row 1
 4463+B324
 4464+B324                  ;Scanline 0
 4465+B324                  ;1/2
 4466+B324 31 E2 8E         ld sp,BUFFER_SIDE_EXTRA+SEG_SIZE+SEG_SIZE+GAME_WINDOW_START+(BUFFER_MIDDLE*16)
 4467+B327 F1               pop af
 4468+B328 C1               pop bc
 4469+B329 D1               pop de
 4470+B32A E1               pop hl
 4471+B32B DD E1            pop ix
 4472+B32D FD E1            pop iy
 4473+B32F 31 2C 50         ld sp,C1+VMEM_SEG_2+BUFFER_CHUNK_LENGTH
 4474+B332 FD E5            push iy
 4475+B334 DD E5            push ix
 4476+B336 E5               push hl
 4477+B337 D5               push de
 4478+B338 C5               push bc
 4479+B339 F5               push af
 4480+B33A                  ;2/2
 4481+B33A 31 EE 8E         ld sp,SEG_SIZE+SEG_SIZE+GAME_WINDOW_START+(BUFFER_MIDDLE*17)
 4482+B33D F1               pop af
 4483+B33E C1               pop bc
 4484+B33F D1               pop de
 4485+B340 E1               pop hl
 4486+B341 DD E1            pop ix
 4487+B343 FD E1            pop iy
 4488+B345 31 38 50         ld sp,C1+VMEM_SEG_2+(BUFFER_CHUNK_LENGTH*2)
 4489+B348 FD E5            push iy
 4490+B34A DD E5            push ix
 4491+B34C E5               push hl
 4492+B34D D5               push de
 4493+B34E C5               push bc
 4494+B34F F5               push af
 4495+B350                  ;Scanline 1
 4496+B350                  ;1/2
 4497+B350 31 FE 8E         ld sp,BUFFER_SIDE_EXTRA+SEG_SIZE+SEG_SIZE+GAME_WINDOW_START+(BUFFER_MIDDLE*18)
 4498+B353 F1               pop af
 4499+B354 C1               pop bc
 4500+B355 D1               pop de
 4501+B356 E1               pop hl
 4502+B357 DD E1            pop ix
 4503+B359 FD E1            pop iy
 4504+B35B 31 2C 51         ld sp,L1+C1+VMEM_SEG_2+BUFFER_CHUNK_LENGTH
 4505+B35E FD E5            push iy
 4506+B360 DD E5            push ix
 4507+B362 E5               push hl
 4508+B363 D5               push de
 4509+B364 C5               push bc
 4510+B365 F5               push af
 4511+B366                  ;2/2
 4512+B366 31 0A 8F         ld sp,SEG_SIZE+SEG_SIZE+GAME_WINDOW_START+(BUFFER_MIDDLE*19)
 4513+B369 F1               pop af
 4514+B36A C1               pop bc
 4515+B36B D1               pop de
 4516+B36C E1               pop hl
 4517+B36D DD E1            pop ix
 4518+B36F FD E1            pop iy
 4519+B371 31 38 51         ld sp,L1+C1+VMEM_SEG_2+(BUFFER_CHUNK_LENGTH*2)
 4520+B374 FD E5            push iy
 4521+B376 DD E5            push ix
 4522+B378 E5               push hl
 4523+B379 D5               push de
 4524+B37A C5               push bc
 4525+B37B F5               push af
 4526+B37C                  ;Scanline 2
 4527+B37C                  ;1/2
 4528+B37C 31 1A 8F         ld sp,BUFFER_SIDE_EXTRA+SEG_SIZE+SEG_SIZE+GAME_WINDOW_START+(BUFFER_MIDDLE*20)
 4529+B37F F1               pop af
 4530+B380 C1               pop bc
 4531+B381 D1               pop de
 4532+B382 E1               pop hl
 4533+B383 DD E1            pop ix
 4534+B385 FD E1            pop iy
 4535+B387 31 2C 52         ld sp,L2+C1+VMEM_SEG_2+BUFFER_CHUNK_LENGTH
 4536+B38A FD E5            push iy
 4537+B38C DD E5            push ix
 4538+B38E E5               push hl
 4539+B38F D5               push de
 4540+B390 C5               push bc
 4541+B391 F5               push af
 4542+B392                  ;2/2
 4543+B392 31 26 8F         ld sp,SEG_SIZE+SEG_SIZE+GAME_WINDOW_START+(BUFFER_MIDDLE*21)
 4544+B395 F1               pop af
 4545+B396 C1               pop bc
 4546+B397 D1               pop de
 4547+B398 E1               pop hl
 4548+B399 DD E1            pop ix
 4549+B39B FD E1            pop iy
 4550+B39D 31 38 52         ld sp,L2+C1+VMEM_SEG_2+(BUFFER_CHUNK_LENGTH*2)
 4551+B3A0 FD E5            push iy
 4552+B3A2 DD E5            push ix
 4553+B3A4 E5               push hl
 4554+B3A5 D5               push de
 4555+B3A6 C5               push bc
 4556+B3A7 F5               push af
 4557+B3A8                  ;Scanline 3
 4558+B3A8                  ;1/2
 4559+B3A8 31 36 8F         ld sp,BUFFER_SIDE_EXTRA+SEG_SIZE+SEG_SIZE+GAME_WINDOW_START+(BUFFER_MIDDLE*22)
 4560+B3AB F1               pop af
 4561+B3AC C1               pop bc
 4562+B3AD D1               pop de
 4563+B3AE E1               pop hl
 4564+B3AF DD E1            pop ix
 4565+B3B1 FD E1            pop iy
 4566+B3B3 31 2C 53         ld sp,L3+C1+VMEM_SEG_2+BUFFER_CHUNK_LENGTH
 4567+B3B6 FD E5            push iy
 4568+B3B8 DD E5            push ix
 4569+B3BA E5               push hl
 4570+B3BB D5               push de
 4571+B3BC C5               push bc
 4572+B3BD F5               push af
 4573+B3BE                  ;2/2
 4574+B3BE 31 42 8F         ld sp,SEG_SIZE+SEG_SIZE+GAME_WINDOW_START+(BUFFER_MIDDLE*23)
 4575+B3C1 F1               pop af
 4576+B3C2 C1               pop bc
 4577+B3C3 D1               pop de
 4578+B3C4 E1               pop hl
 4579+B3C5 DD E1            pop ix
 4580+B3C7 FD E1            pop iy
 4581+B3C9 31 38 53         ld sp,L3+C1+VMEM_SEG_2+(BUFFER_CHUNK_LENGTH*2)
 4582+B3CC FD E5            push iy
 4583+B3CE DD E5            push ix
 4584+B3D0 E5               push hl
 4585+B3D1 D5               push de
 4586+B3D2 C5               push bc
 4587+B3D3 F5               push af
 4588+B3D4                  ;Scanline 4
 4589+B3D4                  ;1/2
 4590+B3D4 31 52 8F         ld sp,BUFFER_SIDE_EXTRA+SEG_SIZE+SEG_SIZE+GAME_WINDOW_START+(BUFFER_MIDDLE*24)
 4591+B3D7 F1               pop af
 4592+B3D8 C1               pop bc
 4593+B3D9 D1               pop de
 4594+B3DA E1               pop hl
 4595+B3DB DD E1            pop ix
 4596+B3DD FD E1            pop iy
 4597+B3DF 31 2C 54         ld sp,L4+C1+VMEM_SEG_2+BUFFER_CHUNK_LENGTH
 4598+B3E2 FD E5            push iy
 4599+B3E4 DD E5            push ix
 4600+B3E6 E5               push hl
 4601+B3E7 D5               push de
 4602+B3E8 C5               push bc
 4603+B3E9 F5               push af
 4604+B3EA                  ;2/2
 4605+B3EA 31 5E 8F         ld sp,SEG_SIZE+SEG_SIZE+GAME_WINDOW_START+(BUFFER_MIDDLE*25)
 4606+B3ED F1               pop af
 4607+B3EE C1               pop bc
 4608+B3EF D1               pop de
 4609+B3F0 E1               pop hl
 4610+B3F1 DD E1            pop ix
 4611+B3F3 FD E1            pop iy
 4612+B3F5 31 38 54         ld sp,L4+C1+VMEM_SEG_2+(BUFFER_CHUNK_LENGTH*2)
 4613+B3F8 FD E5            push iy
 4614+B3FA DD E5            push ix
 4615+B3FC E5               push hl
 4616+B3FD D5               push de
 4617+B3FE C5               push bc
 4618+B3FF F5               push af
 4619+B400                  ;Scanline 5
 4620+B400                  ;1/2
 4621+B400 31 6E 8F         ld sp,BUFFER_SIDE_EXTRA+SEG_SIZE+SEG_SIZE+GAME_WINDOW_START+(BUFFER_MIDDLE*26)
 4622+B403 F1               pop af
 4623+B404 C1               pop bc
 4624+B405 D1               pop de
 4625+B406 E1               pop hl
 4626+B407 DD E1            pop ix
 4627+B409 FD E1            pop iy
 4628+B40B 31 2C 55         ld sp,L5+C1+VMEM_SEG_2+BUFFER_CHUNK_LENGTH
 4629+B40E FD E5            push iy
 4630+B410 DD E5            push ix
 4631+B412 E5               push hl
 4632+B413 D5               push de
 4633+B414 C5               push bc
 4634+B415 F5               push af
 4635+B416                  ;2/2
 4636+B416 31 7A 8F         ld sp,SEG_SIZE+SEG_SIZE+GAME_WINDOW_START+(BUFFER_MIDDLE*27)
 4637+B419 F1               pop af
 4638+B41A C1               pop bc
 4639+B41B D1               pop de
 4640+B41C E1               pop hl
 4641+B41D DD E1            pop ix
 4642+B41F FD E1            pop iy
 4643+B421 31 38 55         ld sp,L5+C1+VMEM_SEG_2+(BUFFER_CHUNK_LENGTH*2)
 4644+B424 FD E5            push iy
 4645+B426 DD E5            push ix
 4646+B428 E5               push hl
 4647+B429 D5               push de
 4648+B42A C5               push bc
 4649+B42B F5               push af
 4650+B42C                  ;Scanline 6
 4651+B42C                  ;1/2
 4652+B42C 31 8A 8F         ld sp,BUFFER_SIDE_EXTRA+SEG_SIZE+SEG_SIZE+GAME_WINDOW_START+(BUFFER_MIDDLE*28)
 4653+B42F F1               pop af
 4654+B430 C1               pop bc
 4655+B431 D1               pop de
 4656+B432 E1               pop hl
 4657+B433 DD E1            pop ix
 4658+B435 FD E1            pop iy
 4659+B437 31 2C 56         ld sp,L6+C1+VMEM_SEG_2+BUFFER_CHUNK_LENGTH
 4660+B43A FD E5            push iy
 4661+B43C DD E5            push ix
 4662+B43E E5               push hl
 4663+B43F D5               push de
 4664+B440 C5               push bc
 4665+B441 F5               push af
 4666+B442                  ;2/2
 4667+B442 31 96 8F         ld sp,SEG_SIZE+SEG_SIZE+GAME_WINDOW_START+(BUFFER_MIDDLE*29)
 4668+B445 F1               pop af
 4669+B446 C1               pop bc
 4670+B447 D1               pop de
 4671+B448 E1               pop hl
 4672+B449 DD E1            pop ix
 4673+B44B FD E1            pop iy
 4674+B44D 31 38 56         ld sp,L6+C1+VMEM_SEG_2+(BUFFER_CHUNK_LENGTH*2)
 4675+B450 FD E5            push iy
 4676+B452 DD E5            push ix
 4677+B454 E5               push hl
 4678+B455 D5               push de
 4679+B456 C5               push bc
 4680+B457 F5               push af
 4681+B458                  ;Scanline 7
 4682+B458                  ;1/2
 4683+B458 31 A6 8F         ld sp,BUFFER_SIDE_EXTRA+SEG_SIZE+SEG_SIZE+GAME_WINDOW_START+(BUFFER_MIDDLE*30)
 4684+B45B F1               pop af
 4685+B45C C1               pop bc
 4686+B45D D1               pop de
 4687+B45E E1               pop hl
 4688+B45F DD E1            pop ix
 4689+B461 FD E1            pop iy
 4690+B463 31 2C 57         ld sp,L7+C1+VMEM_SEG_2+BUFFER_CHUNK_LENGTH
 4691+B466 FD E5            push iy
 4692+B468 DD E5            push ix
 4693+B46A E5               push hl
 4694+B46B D5               push de
 4695+B46C C5               push bc
 4696+B46D F5               push af
 4697+B46E                  ;2/2
 4698+B46E 31 B2 8F         ld sp,SEG_SIZE+SEG_SIZE+GAME_WINDOW_START+(BUFFER_MIDDLE*31)
 4699+B471 F1               pop af
 4700+B472 C1               pop bc
 4701+B473 D1               pop de
 4702+B474 E1               pop hl
 4703+B475 DD E1            pop ix
 4704+B477 FD E1            pop iy
 4705+B479 31 38 57         ld sp,L7+C1+VMEM_SEG_2+(BUFFER_CHUNK_LENGTH*2)
 4706+B47C FD E5            push iy
 4707+B47E DD E5            push ix
 4708+B480 E5               push hl
 4709+B481 D5               push de
 4710+B482 C5               push bc
 4711+B483 F5               push af
 4712+B484
 4713+B484
 4714+B484
 4715+B484
 4716+B484                  ;Char Row 2
 4717+B484
 4718+B484                  ;Scanline 0
 4719+B484                  ;1/2
 4720+B484 31 C2 8F         ld sp,BUFFER_SIDE_EXTRA+SEG_SIZE+SEG_SIZE+GAME_WINDOW_START+(BUFFER_MIDDLE*32)
 4721+B487 F1               pop af
 4722+B488 C1               pop bc
 4723+B489 D1               pop de
 4724+B48A E1               pop hl
 4725+B48B DD E1            pop ix
 4726+B48D FD E1            pop iy
 4727+B48F 31 4C 50         ld sp,C2+VMEM_SEG_2+BUFFER_CHUNK_LENGTH
 4728+B492 FD E5            push iy
 4729+B494 DD E5            push ix
 4730+B496 E5               push hl
 4731+B497 D5               push de
 4732+B498 C5               push bc
 4733+B499 F5               push af
 4734+B49A                  ;2/2
 4735+B49A 31 CE 8F         ld sp,SEG_SIZE+SEG_SIZE+GAME_WINDOW_START+(BUFFER_MIDDLE*33)
 4736+B49D F1               pop af
 4737+B49E C1               pop bc
 4738+B49F D1               pop de
 4739+B4A0 E1               pop hl
 4740+B4A1 DD E1            pop ix
 4741+B4A3 FD E1            pop iy
 4742+B4A5 31 58 50         ld sp,C2+VMEM_SEG_2+(BUFFER_CHUNK_LENGTH*2)
 4743+B4A8 FD E5            push iy
 4744+B4AA DD E5            push ix
 4745+B4AC E5               push hl
 4746+B4AD D5               push de
 4747+B4AE C5               push bc
 4748+B4AF F5               push af
 4749+B4B0                  ;Scanline 1
 4750+B4B0                  ;1/2
 4751+B4B0 31 DE 8F         ld sp,BUFFER_SIDE_EXTRA+SEG_SIZE+SEG_SIZE+GAME_WINDOW_START+(BUFFER_MIDDLE*34)
 4752+B4B3 F1               pop af
 4753+B4B4 C1               pop bc
 4754+B4B5 D1               pop de
 4755+B4B6 E1               pop hl
 4756+B4B7 DD E1            pop ix
 4757+B4B9 FD E1            pop iy
 4758+B4BB 31 4C 51         ld sp,L1+C2+VMEM_SEG_2+BUFFER_CHUNK_LENGTH
 4759+B4BE FD E5            push iy
 4760+B4C0 DD E5            push ix
 4761+B4C2 E5               push hl
 4762+B4C3 D5               push de
 4763+B4C4 C5               push bc
 4764+B4C5 F5               push af
 4765+B4C6                  ;2/2
 4766+B4C6 31 EA 8F         ld sp,SEG_SIZE+SEG_SIZE+GAME_WINDOW_START+(BUFFER_MIDDLE*35)
 4767+B4C9 F1               pop af
 4768+B4CA C1               pop bc
 4769+B4CB D1               pop de
 4770+B4CC E1               pop hl
 4771+B4CD DD E1            pop ix
 4772+B4CF FD E1            pop iy
 4773+B4D1 31 58 51         ld sp,L1+C2+VMEM_SEG_2+(BUFFER_CHUNK_LENGTH*2)
 4774+B4D4 FD E5            push iy
 4775+B4D6 DD E5            push ix
 4776+B4D8 E5               push hl
 4777+B4D9 D5               push de
 4778+B4DA C5               push bc
 4779+B4DB F5               push af
 4780+B4DC                  ;Scanline 2
 4781+B4DC                  ;1/2
 4782+B4DC 31 FA 8F         ld sp,BUFFER_SIDE_EXTRA+SEG_SIZE+SEG_SIZE+GAME_WINDOW_START+(BUFFER_MIDDLE*36)
 4783+B4DF F1               pop af
 4784+B4E0 C1               pop bc
 4785+B4E1 D1               pop de
 4786+B4E2 E1               pop hl
 4787+B4E3 DD E1            pop ix
 4788+B4E5 FD E1            pop iy
 4789+B4E7 31 4C 52         ld sp,L2+C2+VMEM_SEG_2+BUFFER_CHUNK_LENGTH
 4790+B4EA FD E5            push iy
 4791+B4EC DD E5            push ix
 4792+B4EE E5               push hl
 4793+B4EF D5               push de
 4794+B4F0 C5               push bc
 4795+B4F1 F5               push af
 4796+B4F2                  ;2/2
 4797+B4F2 31 06 90         ld sp,SEG_SIZE+SEG_SIZE+GAME_WINDOW_START+(BUFFER_MIDDLE*37)
 4798+B4F5 F1               pop af
 4799+B4F6 C1               pop bc
 4800+B4F7 D1               pop de
 4801+B4F8 E1               pop hl
 4802+B4F9 DD E1            pop ix
 4803+B4FB FD E1            pop iy
 4804+B4FD 31 58 52         ld sp,L2+C2+VMEM_SEG_2+(BUFFER_CHUNK_LENGTH*2)
 4805+B500 FD E5            push iy
 4806+B502 DD E5            push ix
 4807+B504 E5               push hl
 4808+B505 D5               push de
 4809+B506 C5               push bc
 4810+B507 F5               push af
 4811+B508                  ;Scanline 3
 4812+B508                  ;1/2
 4813+B508 31 16 90         ld sp,BUFFER_SIDE_EXTRA+SEG_SIZE+SEG_SIZE+GAME_WINDOW_START+(BUFFER_MIDDLE*38)
 4814+B50B F1               pop af
 4815+B50C C1               pop bc
 4816+B50D D1               pop de
 4817+B50E E1               pop hl
 4818+B50F DD E1            pop ix
 4819+B511 FD E1            pop iy
 4820+B513 31 4C 53         ld sp,L3+C2+VMEM_SEG_2+BUFFER_CHUNK_LENGTH
 4821+B516 FD E5            push iy
 4822+B518 DD E5            push ix
 4823+B51A E5               push hl
 4824+B51B D5               push de
 4825+B51C C5               push bc
 4826+B51D F5               push af
 4827+B51E                  ;2/2
 4828+B51E 31 22 90         ld sp,SEG_SIZE+SEG_SIZE+GAME_WINDOW_START+(BUFFER_MIDDLE*39)
 4829+B521 F1               pop af
 4830+B522 C1               pop bc
 4831+B523 D1               pop de
 4832+B524 E1               pop hl
 4833+B525 DD E1            pop ix
 4834+B527 FD E1            pop iy
 4835+B529 31 58 53         ld sp,L3+C2+VMEM_SEG_2+(BUFFER_CHUNK_LENGTH*2)
 4836+B52C FD E5            push iy
 4837+B52E DD E5            push ix
 4838+B530 E5               push hl
 4839+B531 D5               push de
 4840+B532 C5               push bc
 4841+B533 F5               push af
 4842+B534                  ;Scanline 4
 4843+B534                  ;1/2
 4844+B534 31 32 90         ld sp,BUFFER_SIDE_EXTRA+SEG_SIZE+SEG_SIZE+GAME_WINDOW_START+(BUFFER_MIDDLE*40)
 4845+B537 F1               pop af
 4846+B538 C1               pop bc
 4847+B539 D1               pop de
 4848+B53A E1               pop hl
 4849+B53B DD E1            pop ix
 4850+B53D FD E1            pop iy
 4851+B53F 31 4C 54         ld sp,L4+C2+VMEM_SEG_2+BUFFER_CHUNK_LENGTH
 4852+B542 FD E5            push iy
 4853+B544 DD E5            push ix
 4854+B546 E5               push hl
 4855+B547 D5               push de
 4856+B548 C5               push bc
 4857+B549 F5               push af
 4858+B54A                  ;2/2
 4859+B54A 31 3E 90         ld sp,SEG_SIZE+SEG_SIZE+GAME_WINDOW_START+(BUFFER_MIDDLE*41)
 4860+B54D F1               pop af
 4861+B54E C1               pop bc
 4862+B54F D1               pop de
 4863+B550 E1               pop hl
 4864+B551 DD E1            pop ix
 4865+B553 FD E1            pop iy
 4866+B555 31 58 54         ld sp,L4+C2+VMEM_SEG_2+(BUFFER_CHUNK_LENGTH*2)
 4867+B558 FD E5            push iy
 4868+B55A DD E5            push ix
 4869+B55C E5               push hl
 4870+B55D D5               push de
 4871+B55E C5               push bc
 4872+B55F F5               push af
 4873+B560                  ;Scanline 5
 4874+B560                  ;1/2
 4875+B560 31 4E 90         ld sp,BUFFER_SIDE_EXTRA+SEG_SIZE+SEG_SIZE+GAME_WINDOW_START+(BUFFER_MIDDLE*42)
 4876+B563 F1               pop af
 4877+B564 C1               pop bc
 4878+B565 D1               pop de
 4879+B566 E1               pop hl
 4880+B567 DD E1            pop ix
 4881+B569 FD E1            pop iy
 4882+B56B 31 4C 55         ld sp,L5+C2+VMEM_SEG_2+BUFFER_CHUNK_LENGTH
 4883+B56E FD E5            push iy
 4884+B570 DD E5            push ix
 4885+B572 E5               push hl
 4886+B573 D5               push de
 4887+B574 C5               push bc
 4888+B575 F5               push af
 4889+B576                  ;2/2
 4890+B576 31 5A 90         ld sp,SEG_SIZE+SEG_SIZE+GAME_WINDOW_START+(BUFFER_MIDDLE*43)
 4891+B579 F1               pop af
 4892+B57A C1               pop bc
 4893+B57B D1               pop de
 4894+B57C E1               pop hl
 4895+B57D DD E1            pop ix
 4896+B57F FD E1            pop iy
 4897+B581 31 58 55         ld sp,L5+C2+VMEM_SEG_2+(BUFFER_CHUNK_LENGTH*2)
 4898+B584 FD E5            push iy
 4899+B586 DD E5            push ix
 4900+B588 E5               push hl
 4901+B589 D5               push de
 4902+B58A C5               push bc
 4903+B58B F5               push af
 4904+B58C                  ;Scanline 6
 4905+B58C                  ;1/2
 4906+B58C 31 6A 90         ld sp,BUFFER_SIDE_EXTRA+SEG_SIZE+SEG_SIZE+GAME_WINDOW_START+(BUFFER_MIDDLE*44)
 4907+B58F F1               pop af
 4908+B590 C1               pop bc
 4909+B591 D1               pop de
 4910+B592 E1               pop hl
 4911+B593 DD E1            pop ix
 4912+B595 FD E1            pop iy
 4913+B597 31 4C 56         ld sp,L6+C2+VMEM_SEG_2+BUFFER_CHUNK_LENGTH
 4914+B59A FD E5            push iy
 4915+B59C DD E5            push ix
 4916+B59E E5               push hl
 4917+B59F D5               push de
 4918+B5A0 C5               push bc
 4919+B5A1 F5               push af
 4920+B5A2                  ;2/2
 4921+B5A2 31 76 90         ld sp,SEG_SIZE+SEG_SIZE+GAME_WINDOW_START+(BUFFER_MIDDLE*45)
 4922+B5A5 F1               pop af
 4923+B5A6 C1               pop bc
 4924+B5A7 D1               pop de
 4925+B5A8 E1               pop hl
 4926+B5A9 DD E1            pop ix
 4927+B5AB FD E1            pop iy
 4928+B5AD 31 58 56         ld sp,L6+C2+VMEM_SEG_2+(BUFFER_CHUNK_LENGTH*2)
 4929+B5B0 FD E5            push iy
 4930+B5B2 DD E5            push ix
 4931+B5B4 E5               push hl
 4932+B5B5 D5               push de
 4933+B5B6 C5               push bc
 4934+B5B7 F5               push af
 4935+B5B8                  ;Scanline 7
 4936+B5B8                  ;1/2
 4937+B5B8 31 86 90         ld sp,BUFFER_SIDE_EXTRA+SEG_SIZE+SEG_SIZE+GAME_WINDOW_START+(BUFFER_MIDDLE*46)
 4938+B5BB F1               pop af
 4939+B5BC C1               pop bc
 4940+B5BD D1               pop de
 4941+B5BE E1               pop hl
 4942+B5BF DD E1            pop ix
 4943+B5C1 FD E1            pop iy
 4944+B5C3 31 4C 57         ld sp,L7+C2+VMEM_SEG_2+BUFFER_CHUNK_LENGTH
 4945+B5C6 FD E5            push iy
 4946+B5C8 DD E5            push ix
 4947+B5CA E5               push hl
 4948+B5CB D5               push de
 4949+B5CC C5               push bc
 4950+B5CD F5               push af
 4951+B5CE                  ;2/2
 4952+B5CE 31 92 90         ld sp,SEG_SIZE+SEG_SIZE+GAME_WINDOW_START+(BUFFER_MIDDLE*47)
 4953+B5D1 F1               pop af
 4954+B5D2 C1               pop bc
 4955+B5D3 D1               pop de
 4956+B5D4 E1               pop hl
 4957+B5D5 DD E1            pop ix
 4958+B5D7 FD E1            pop iy
 4959+B5D9 31 58 57         ld sp,L7+C2+VMEM_SEG_2+(BUFFER_CHUNK_LENGTH*2)
 4960+B5DC FD E5            push iy
 4961+B5DE DD E5            push ix
 4962+B5E0 E5               push hl
 4963+B5E1 D5               push de
 4964+B5E2 C5               push bc
 4965+B5E3 F5               push af
 4966+B5E4
 4967+B5E4
 4968+B5E4
 4969+B5E4                  ;Char Row 3
 4970+B5E4
 4971+B5E4                  ;Scanline 0
 4972+B5E4                  ;1/2
 4973+B5E4 31 A2 90         ld sp,BUFFER_SIDE_EXTRA+SEG_SIZE+SEG_SIZE+GAME_WINDOW_START+(BUFFER_MIDDLE*48)
 4974+B5E7 F1               pop af
 4975+B5E8 C1               pop bc
 4976+B5E9 D1               pop de
 4977+B5EA E1               pop hl
 4978+B5EB DD E1            pop ix
 4979+B5ED FD E1            pop iy
 4980+B5EF 31 6C 50         ld sp,C3+VMEM_SEG_2+BUFFER_CHUNK_LENGTH
 4981+B5F2 FD E5            push iy
 4982+B5F4 DD E5            push ix
 4983+B5F6 E5               push hl
 4984+B5F7 D5               push de
 4985+B5F8 C5               push bc
 4986+B5F9 F5               push af
 4987+B5FA                  ;2/2
 4988+B5FA 31 AE 90         ld sp,SEG_SIZE+SEG_SIZE+GAME_WINDOW_START+(BUFFER_MIDDLE*49)
 4989+B5FD F1               pop af
 4990+B5FE C1               pop bc
 4991+B5FF D1               pop de
 4992+B600 E1               pop hl
 4993+B601 DD E1            pop ix
 4994+B603 FD E1            pop iy
 4995+B605 31 78 50         ld sp,C3+VMEM_SEG_2+(BUFFER_CHUNK_LENGTH*2)
 4996+B608 FD E5            push iy
 4997+B60A DD E5            push ix
 4998+B60C E5               push hl
 4999+B60D D5               push de
 5000+B60E C5               push bc
 5001+B60F F5               push af
 5002+B610                  ;Scanline 1
 5003+B610                  ;1/2
 5004+B610 31 BE 90         ld sp,BUFFER_SIDE_EXTRA+SEG_SIZE+SEG_SIZE+GAME_WINDOW_START+(BUFFER_MIDDLE*50)
 5005+B613 F1               pop af
 5006+B614 C1               pop bc
 5007+B615 D1               pop de
 5008+B616 E1               pop hl
 5009+B617 DD E1            pop ix
 5010+B619 FD E1            pop iy
 5011+B61B 31 6C 51         ld sp,L1+C3+VMEM_SEG_2+BUFFER_CHUNK_LENGTH
 5012+B61E FD E5            push iy
 5013+B620 DD E5            push ix
 5014+B622 E5               push hl
 5015+B623 D5               push de
 5016+B624 C5               push bc
 5017+B625 F5               push af
 5018+B626                  ;2/2
 5019+B626 31 CA 90         ld sp,SEG_SIZE+SEG_SIZE+GAME_WINDOW_START+(BUFFER_MIDDLE*51)
 5020+B629 F1               pop af
 5021+B62A C1               pop bc
 5022+B62B D1               pop de
 5023+B62C E1               pop hl
 5024+B62D DD E1            pop ix
 5025+B62F FD E1            pop iy
 5026+B631 31 78 51         ld sp,L1+C3+VMEM_SEG_2+(BUFFER_CHUNK_LENGTH*2)
 5027+B634 FD E5            push iy
 5028+B636 DD E5            push ix
 5029+B638 E5               push hl
 5030+B639 D5               push de
 5031+B63A C5               push bc
 5032+B63B F5               push af
 5033+B63C                  ;Scanline 2
 5034+B63C                  ;1/2
 5035+B63C 31 DA 90         ld sp,BUFFER_SIDE_EXTRA+SEG_SIZE+SEG_SIZE+GAME_WINDOW_START+(BUFFER_MIDDLE*52)
 5036+B63F F1               pop af
 5037+B640 C1               pop bc
 5038+B641 D1               pop de
 5039+B642 E1               pop hl
 5040+B643 DD E1            pop ix
 5041+B645 FD E1            pop iy
 5042+B647 31 6C 52         ld sp,L2+C3+VMEM_SEG_2+BUFFER_CHUNK_LENGTH
 5043+B64A FD E5            push iy
 5044+B64C DD E5            push ix
 5045+B64E E5               push hl
 5046+B64F D5               push de
 5047+B650 C5               push bc
 5048+B651 F5               push af
 5049+B652                  ;2/2
 5050+B652 31 E6 90         ld sp,SEG_SIZE+SEG_SIZE+GAME_WINDOW_START+(BUFFER_MIDDLE*53)
 5051+B655 F1               pop af
 5052+B656 C1               pop bc
 5053+B657 D1               pop de
 5054+B658 E1               pop hl
 5055+B659 DD E1            pop ix
 5056+B65B FD E1            pop iy
 5057+B65D 31 78 52         ld sp,L2+C3+VMEM_SEG_2+(BUFFER_CHUNK_LENGTH*2)
 5058+B660 FD E5            push iy
 5059+B662 DD E5            push ix
 5060+B664 E5               push hl
 5061+B665 D5               push de
 5062+B666 C5               push bc
 5063+B667 F5               push af
 5064+B668                  ;Scanline 3
 5065+B668                  ;1/2
 5066+B668 31 F6 90         ld sp,BUFFER_SIDE_EXTRA+SEG_SIZE+SEG_SIZE+GAME_WINDOW_START+(BUFFER_MIDDLE*54)
 5067+B66B F1               pop af
 5068+B66C C1               pop bc
 5069+B66D D1               pop de
 5070+B66E E1               pop hl
 5071+B66F DD E1            pop ix
 5072+B671 FD E1            pop iy
 5073+B673 31 6C 53         ld sp,L3+C3+VMEM_SEG_2+BUFFER_CHUNK_LENGTH
 5074+B676 FD E5            push iy
 5075+B678 DD E5            push ix
 5076+B67A E5               push hl
 5077+B67B D5               push de
 5078+B67C C5               push bc
 5079+B67D F5               push af
 5080+B67E                  ;2/2
 5081+B67E 31 02 91         ld sp,SEG_SIZE+SEG_SIZE+GAME_WINDOW_START+(BUFFER_MIDDLE*55)
 5082+B681 F1               pop af
 5083+B682 C1               pop bc
 5084+B683 D1               pop de
 5085+B684 E1               pop hl
 5086+B685 DD E1            pop ix
 5087+B687 FD E1            pop iy
 5088+B689 31 78 53         ld sp,L3+C3+VMEM_SEG_2+(BUFFER_CHUNK_LENGTH*2)
 5089+B68C FD E5            push iy
 5090+B68E DD E5            push ix
 5091+B690 E5               push hl
 5092+B691 D5               push de
 5093+B692 C5               push bc
 5094+B693 F5               push af
 5095+B694                  ;Scanline 4
 5096+B694                  ;1/2
 5097+B694 31 12 91         ld sp,BUFFER_SIDE_EXTRA+SEG_SIZE+SEG_SIZE+GAME_WINDOW_START+(BUFFER_MIDDLE*56)
 5098+B697 F1               pop af
 5099+B698 C1               pop bc
 5100+B699 D1               pop de
 5101+B69A E1               pop hl
 5102+B69B DD E1            pop ix
 5103+B69D FD E1            pop iy
 5104+B69F 31 6C 54         ld sp,L4+C3+VMEM_SEG_2+BUFFER_CHUNK_LENGTH
 5105+B6A2 FD E5            push iy
 5106+B6A4 DD E5            push ix
 5107+B6A6 E5               push hl
 5108+B6A7 D5               push de
 5109+B6A8 C5               push bc
 5110+B6A9 F5               push af
 5111+B6AA                  ;2/2
 5112+B6AA 31 1E 91         ld sp,SEG_SIZE+SEG_SIZE+GAME_WINDOW_START+(BUFFER_MIDDLE*57)
 5113+B6AD F1               pop af
 5114+B6AE C1               pop bc
 5115+B6AF D1               pop de
 5116+B6B0 E1               pop hl
 5117+B6B1 DD E1            pop ix
 5118+B6B3 FD E1            pop iy
 5119+B6B5 31 78 54         ld sp,L4+C3+VMEM_SEG_2+(BUFFER_CHUNK_LENGTH*2)
 5120+B6B8 FD E5            push iy
 5121+B6BA DD E5            push ix
 5122+B6BC E5               push hl
 5123+B6BD D5               push de
 5124+B6BE C5               push bc
 5125+B6BF F5               push af
 5126+B6C0                  ;Scanline 5
 5127+B6C0                  ;1/2
 5128+B6C0 31 2E 91         ld sp,BUFFER_SIDE_EXTRA+SEG_SIZE+SEG_SIZE+GAME_WINDOW_START+(BUFFER_MIDDLE*58)
 5129+B6C3 F1               pop af
 5130+B6C4 C1               pop bc
 5131+B6C5 D1               pop de
 5132+B6C6 E1               pop hl
 5133+B6C7 DD E1            pop ix
 5134+B6C9 FD E1            pop iy
 5135+B6CB 31 6C 55         ld sp,L5+C3+VMEM_SEG_2+BUFFER_CHUNK_LENGTH
 5136+B6CE FD E5            push iy
 5137+B6D0 DD E5            push ix
 5138+B6D2 E5               push hl
 5139+B6D3 D5               push de
 5140+B6D4 C5               push bc
 5141+B6D5 F5               push af
 5142+B6D6                  ;2/2
 5143+B6D6 31 3A 91         ld sp,SEG_SIZE+SEG_SIZE+GAME_WINDOW_START+(BUFFER_MIDDLE*59)
 5144+B6D9 F1               pop af
 5145+B6DA C1               pop bc
 5146+B6DB D1               pop de
 5147+B6DC E1               pop hl
 5148+B6DD DD E1            pop ix
 5149+B6DF FD E1            pop iy
 5150+B6E1 31 78 55         ld sp,L5+C3+VMEM_SEG_2+(BUFFER_CHUNK_LENGTH*2)
 5151+B6E4 FD E5            push iy
 5152+B6E6 DD E5            push ix
 5153+B6E8 E5               push hl
 5154+B6E9 D5               push de
 5155+B6EA C5               push bc
 5156+B6EB F5               push af
 5157+B6EC                  ;Scanline 6
 5158+B6EC                  ;1/2
 5159+B6EC 31 4A 91         ld sp,BUFFER_SIDE_EXTRA+SEG_SIZE+SEG_SIZE+GAME_WINDOW_START+(BUFFER_MIDDLE*60)
 5160+B6EF F1               pop af
 5161+B6F0 C1               pop bc
 5162+B6F1 D1               pop de
 5163+B6F2 E1               pop hl
 5164+B6F3 DD E1            pop ix
 5165+B6F5 FD E1            pop iy
 5166+B6F7 31 6C 56         ld sp,L6+C3+VMEM_SEG_2+BUFFER_CHUNK_LENGTH
 5167+B6FA FD E5            push iy
 5168+B6FC DD E5            push ix
 5169+B6FE E5               push hl
 5170+B6FF D5               push de
 5171+B700 C5               push bc
 5172+B701 F5               push af
 5173+B702                  ;2/2
 5174+B702 31 56 91         ld sp,SEG_SIZE+SEG_SIZE+GAME_WINDOW_START+(BUFFER_MIDDLE*61)
 5175+B705 F1               pop af
 5176+B706 C1               pop bc
 5177+B707 D1               pop de
 5178+B708 E1               pop hl
 5179+B709 DD E1            pop ix
 5180+B70B FD E1            pop iy
 5181+B70D 31 78 56         ld sp,L6+C3+VMEM_SEG_2+(BUFFER_CHUNK_LENGTH*2)
 5182+B710 FD E5            push iy
 5183+B712 DD E5            push ix
 5184+B714 E5               push hl
 5185+B715 D5               push de
 5186+B716 C5               push bc
 5187+B717 F5               push af
 5188+B718                  ;Scanline 7
 5189+B718                  ;1/2
 5190+B718 31 66 91         ld sp,BUFFER_SIDE_EXTRA+SEG_SIZE+SEG_SIZE+GAME_WINDOW_START+(BUFFER_MIDDLE*62)
 5191+B71B F1               pop af
 5192+B71C C1               pop bc
 5193+B71D D1               pop de
 5194+B71E E1               pop hl
 5195+B71F DD E1            pop ix
 5196+B721 FD E1            pop iy
 5197+B723 31 6C 57         ld sp,L7+C3+VMEM_SEG_2+BUFFER_CHUNK_LENGTH
 5198+B726 FD E5            push iy
 5199+B728 DD E5            push ix
 5200+B72A E5               push hl
 5201+B72B D5               push de
 5202+B72C C5               push bc
 5203+B72D F5               push af
 5204+B72E                  ;2/2
 5205+B72E 31 72 91         ld sp,SEG_SIZE+SEG_SIZE+GAME_WINDOW_START+(BUFFER_MIDDLE*63)
 5206+B731 F1               pop af
 5207+B732 C1               pop bc
 5208+B733 D1               pop de
 5209+B734 E1               pop hl
 5210+B735 DD E1            pop ix
 5211+B737 FD E1            pop iy
 5212+B739 31 78 57         ld sp,L7+C3+VMEM_SEG_2+(BUFFER_CHUNK_LENGTH*2)
 5213+B73C FD E5            push iy
 5214+B73E DD E5            push ix
 5215+B740 E5               push hl
 5216+B741 D5               push de
 5217+B742 C5               push bc
 5218+B743 F5               push af
 5219+B744
 5220+B744
 5221+B744
 5222+B744
 5223+B744                  ;Char Row 4
 5224+B744
 5225+B744                  ;Scanline 0
 5226+B744                  ;1/2
 5227+B744 31 82 91         ld sp,BUFFER_SIDE_EXTRA+SEG_SIZE+SEG_SIZE+GAME_WINDOW_START+(BUFFER_MIDDLE*64)
 5228+B747 F1               pop af
 5229+B748 C1               pop bc
 5230+B749 D1               pop de
 5231+B74A E1               pop hl
 5232+B74B DD E1            pop ix
 5233+B74D FD E1            pop iy
 5234+B74F 31 8C 50         ld sp,C4+VMEM_SEG_2+BUFFER_CHUNK_LENGTH
 5235+B752 FD E5            push iy
 5236+B754 DD E5            push ix
 5237+B756 E5               push hl
 5238+B757 D5               push de
 5239+B758 C5               push bc
 5240+B759 F5               push af
 5241+B75A                  ;2/2
 5242+B75A 31 8E 91         ld sp,SEG_SIZE+SEG_SIZE+GAME_WINDOW_START+(BUFFER_MIDDLE*65)
 5243+B75D F1               pop af
 5244+B75E C1               pop bc
 5245+B75F D1               pop de
 5246+B760 E1               pop hl
 5247+B761 DD E1            pop ix
 5248+B763 FD E1            pop iy
 5249+B765 31 98 50         ld sp,C4+VMEM_SEG_2+(BUFFER_CHUNK_LENGTH*2)
 5250+B768 FD E5            push iy
 5251+B76A DD E5            push ix
 5252+B76C E5               push hl
 5253+B76D D5               push de
 5254+B76E C5               push bc
 5255+B76F F5               push af
 5256+B770                  ;Scanline 1
 5257+B770                  ;1/2
 5258+B770 31 9E 91         ld sp,BUFFER_SIDE_EXTRA+SEG_SIZE+SEG_SIZE+GAME_WINDOW_START+(BUFFER_MIDDLE*66)
 5259+B773 F1               pop af
 5260+B774 C1               pop bc
 5261+B775 D1               pop de
 5262+B776 E1               pop hl
 5263+B777 DD E1            pop ix
 5264+B779 FD E1            pop iy
 5265+B77B 31 8C 51         ld sp,L1+C4+VMEM_SEG_2+BUFFER_CHUNK_LENGTH
 5266+B77E FD E5            push iy
 5267+B780 DD E5            push ix
 5268+B782 E5               push hl
 5269+B783 D5               push de
 5270+B784 C5               push bc
 5271+B785 F5               push af
 5272+B786                  ;2/2
 5273+B786 31 AA 91         ld sp,SEG_SIZE+SEG_SIZE+GAME_WINDOW_START+(BUFFER_MIDDLE*67)
 5274+B789 F1               pop af
 5275+B78A C1               pop bc
 5276+B78B D1               pop de
 5277+B78C E1               pop hl
 5278+B78D DD E1            pop ix
 5279+B78F FD E1            pop iy
 5280+B791 31 98 51         ld sp,L1+C4+VMEM_SEG_2+(BUFFER_CHUNK_LENGTH*2)
 5281+B794 FD E5            push iy
 5282+B796 DD E5            push ix
 5283+B798 E5               push hl
 5284+B799 D5               push de
 5285+B79A C5               push bc
 5286+B79B F5               push af
 5287+B79C                  ;Scanline 2
 5288+B79C                  ;1/2
 5289+B79C 31 BA 91         ld sp,BUFFER_SIDE_EXTRA+SEG_SIZE+SEG_SIZE+GAME_WINDOW_START+(BUFFER_MIDDLE*68)
 5290+B79F F1               pop af
 5291+B7A0 C1               pop bc
 5292+B7A1 D1               pop de
 5293+B7A2 E1               pop hl
 5294+B7A3 DD E1            pop ix
 5295+B7A5 FD E1            pop iy
 5296+B7A7 31 8C 52         ld sp,L2+C4+VMEM_SEG_2+BUFFER_CHUNK_LENGTH
 5297+B7AA FD E5            push iy
 5298+B7AC DD E5            push ix
 5299+B7AE E5               push hl
 5300+B7AF D5               push de
 5301+B7B0 C5               push bc
 5302+B7B1 F5               push af
 5303+B7B2                  ;2/2
 5304+B7B2 31 C6 91         ld sp,SEG_SIZE+SEG_SIZE+GAME_WINDOW_START+(BUFFER_MIDDLE*69)
 5305+B7B5 F1               pop af
 5306+B7B6 C1               pop bc
 5307+B7B7 D1               pop de
 5308+B7B8 E1               pop hl
 5309+B7B9 DD E1            pop ix
 5310+B7BB FD E1            pop iy
 5311+B7BD 31 98 52         ld sp,L2+C4+VMEM_SEG_2+(BUFFER_CHUNK_LENGTH*2)
 5312+B7C0 FD E5            push iy
 5313+B7C2 DD E5            push ix
 5314+B7C4 E5               push hl
 5315+B7C5 D5               push de
 5316+B7C6 C5               push bc
 5317+B7C7 F5               push af
 5318+B7C8                  ;Scanline 3
 5319+B7C8                  ;1/2
 5320+B7C8 31 D6 91         ld sp,BUFFER_SIDE_EXTRA+SEG_SIZE+SEG_SIZE+GAME_WINDOW_START+(BUFFER_MIDDLE*70)
 5321+B7CB F1               pop af
 5322+B7CC C1               pop bc
 5323+B7CD D1               pop de
 5324+B7CE E1               pop hl
 5325+B7CF DD E1            pop ix
 5326+B7D1 FD E1            pop iy
 5327+B7D3 31 8C 53         ld sp,L3+C4+VMEM_SEG_2+BUFFER_CHUNK_LENGTH
 5328+B7D6 FD E5            push iy
 5329+B7D8 DD E5            push ix
 5330+B7DA E5               push hl
 5331+B7DB D5               push de
 5332+B7DC C5               push bc
 5333+B7DD F5               push af
 5334+B7DE                  ;2/2
 5335+B7DE 31 E2 91         ld sp,SEG_SIZE+SEG_SIZE+GAME_WINDOW_START+(BUFFER_MIDDLE*71)
 5336+B7E1 F1               pop af
 5337+B7E2 C1               pop bc
 5338+B7E3 D1               pop de
 5339+B7E4 E1               pop hl
 5340+B7E5 DD E1            pop ix
 5341+B7E7 FD E1            pop iy
 5342+B7E9 31 98 53         ld sp,L3+C4+VMEM_SEG_2+(BUFFER_CHUNK_LENGTH*2)
 5343+B7EC FD E5            push iy
 5344+B7EE DD E5            push ix
 5345+B7F0 E5               push hl
 5346+B7F1 D5               push de
 5347+B7F2 C5               push bc
 5348+B7F3 F5               push af
 5349+B7F4                  ;Scanline 4
 5350+B7F4                  ;1/2
 5351+B7F4 31 F2 91         ld sp,BUFFER_SIDE_EXTRA+SEG_SIZE+SEG_SIZE+GAME_WINDOW_START+(BUFFER_MIDDLE*72)
 5352+B7F7 F1               pop af
 5353+B7F8 C1               pop bc
 5354+B7F9 D1               pop de
 5355+B7FA E1               pop hl
 5356+B7FB DD E1            pop ix
 5357+B7FD FD E1            pop iy
 5358+B7FF 31 8C 54         ld sp,L4+C4+VMEM_SEG_2+BUFFER_CHUNK_LENGTH
 5359+B802 FD E5            push iy
 5360+B804 DD E5            push ix
 5361+B806 E5               push hl
 5362+B807 D5               push de
 5363+B808 C5               push bc
 5364+B809 F5               push af
 5365+B80A                  ;2/2
 5366+B80A 31 FE 91         ld sp,SEG_SIZE+SEG_SIZE+GAME_WINDOW_START+(BUFFER_MIDDLE*73)
 5367+B80D F1               pop af
 5368+B80E C1               pop bc
 5369+B80F D1               pop de
 5370+B810 E1               pop hl
 5371+B811 DD E1            pop ix
 5372+B813 FD E1            pop iy
 5373+B815 31 98 54         ld sp,L4+C4+VMEM_SEG_2+(BUFFER_CHUNK_LENGTH*2)
 5374+B818 FD E5            push iy
 5375+B81A DD E5            push ix
 5376+B81C E5               push hl
 5377+B81D D5               push de
 5378+B81E C5               push bc
 5379+B81F F5               push af
 5380+B820                  ;Scanline 5
 5381+B820                  ;1/2
 5382+B820 31 0E 92         ld sp,BUFFER_SIDE_EXTRA+SEG_SIZE+SEG_SIZE+GAME_WINDOW_START+(BUFFER_MIDDLE*74)
 5383+B823 F1               pop af
 5384+B824 C1               pop bc
 5385+B825 D1               pop de
 5386+B826 E1               pop hl
 5387+B827 DD E1            pop ix
 5388+B829 FD E1            pop iy
 5389+B82B 31 8C 55         ld sp,L5+C4+VMEM_SEG_2+BUFFER_CHUNK_LENGTH
 5390+B82E FD E5            push iy
 5391+B830 DD E5            push ix
 5392+B832 E5               push hl
 5393+B833 D5               push de
 5394+B834 C5               push bc
 5395+B835 F5               push af
 5396+B836                  ;2/2
 5397+B836 31 1A 92         ld sp,SEG_SIZE+SEG_SIZE+GAME_WINDOW_START+(BUFFER_MIDDLE*75)
 5398+B839 F1               pop af
 5399+B83A C1               pop bc
 5400+B83B D1               pop de
 5401+B83C E1               pop hl
 5402+B83D DD E1            pop ix
 5403+B83F FD E1            pop iy
 5404+B841 31 98 55         ld sp,L5+C4+VMEM_SEG_2+(BUFFER_CHUNK_LENGTH*2)
 5405+B844 FD E5            push iy
 5406+B846 DD E5            push ix
 5407+B848 E5               push hl
 5408+B849 D5               push de
 5409+B84A C5               push bc
 5410+B84B F5               push af
 5411+B84C                  ;Scanline 6
 5412+B84C                  ;1/2
 5413+B84C 31 2A 92         ld sp,BUFFER_SIDE_EXTRA+SEG_SIZE+SEG_SIZE+GAME_WINDOW_START+(BUFFER_MIDDLE*76)
 5414+B84F F1               pop af
 5415+B850 C1               pop bc
 5416+B851 D1               pop de
 5417+B852 E1               pop hl
 5418+B853 DD E1            pop ix
 5419+B855 FD E1            pop iy
 5420+B857 31 8C 56         ld sp,L6+C4+VMEM_SEG_2+BUFFER_CHUNK_LENGTH
 5421+B85A FD E5            push iy
 5422+B85C DD E5            push ix
 5423+B85E E5               push hl
 5424+B85F D5               push de
 5425+B860 C5               push bc
 5426+B861 F5               push af
 5427+B862                  ;2/2
 5428+B862 31 36 92         ld sp,SEG_SIZE+SEG_SIZE+GAME_WINDOW_START+(BUFFER_MIDDLE*77)
 5429+B865 F1               pop af
 5430+B866 C1               pop bc
 5431+B867 D1               pop de
 5432+B868 E1               pop hl
 5433+B869 DD E1            pop ix
 5434+B86B FD E1            pop iy
 5435+B86D 31 98 56         ld sp,L6+C4+VMEM_SEG_2+(BUFFER_CHUNK_LENGTH*2)
 5436+B870 FD E5            push iy
 5437+B872 DD E5            push ix
 5438+B874 E5               push hl
 5439+B875 D5               push de
 5440+B876 C5               push bc
 5441+B877 F5               push af
 5442+B878                  ;Scanline 7
 5443+B878                  ;1/2
 5444+B878 31 46 92         ld sp,BUFFER_SIDE_EXTRA+SEG_SIZE+SEG_SIZE+GAME_WINDOW_START+(BUFFER_MIDDLE*78)
 5445+B87B F1               pop af
 5446+B87C C1               pop bc
 5447+B87D D1               pop de
 5448+B87E E1               pop hl
 5449+B87F DD E1            pop ix
 5450+B881 FD E1            pop iy
 5451+B883 31 8C 57         ld sp,L7+C4+VMEM_SEG_2+BUFFER_CHUNK_LENGTH
 5452+B886 FD E5            push iy
 5453+B888 DD E5            push ix
 5454+B88A E5               push hl
 5455+B88B D5               push de
 5456+B88C C5               push bc
 5457+B88D F5               push af
 5458+B88E                  ;2/2
 5459+B88E 31 52 92         ld sp,SEG_SIZE+SEG_SIZE+GAME_WINDOW_START+(BUFFER_MIDDLE*79)
 5460+B891 F1               pop af
 5461+B892 C1               pop bc
 5462+B893 D1               pop de
 5463+B894 E1               pop hl
 5464+B895 DD E1            pop ix
 5465+B897 FD E1            pop iy
 5466+B899 31 98 57         ld sp,L7+C4+VMEM_SEG_2+(BUFFER_CHUNK_LENGTH*2)
 5467+B89C FD E5            push iy
 5468+B89E DD E5            push ix
 5469+B8A0 E5               push hl
 5470+B8A1 D5               push de
 5471+B8A2 C5               push bc
 5472+B8A3 F5               push af
 5473+B8A4
 5474+B8A4
 5475+B8A4
 5476+B8A4
 5477+B8A4
 5478+B8A4                  ;Char Row 5
 5479+B8A4
 5480+B8A4                  ;Scanline 0
 5481+B8A4                  ;1/2
 5482+B8A4 31 62 92         ld sp,BUFFER_SIDE_EXTRA+SEG_SIZE+SEG_SIZE+GAME_WINDOW_START+(BUFFER_MIDDLE*80)
 5483+B8A7 F1               pop af
 5484+B8A8 C1               pop bc
 5485+B8A9 D1               pop de
 5486+B8AA E1               pop hl
 5487+B8AB DD E1            pop ix
 5488+B8AD FD E1            pop iy
 5489+B8AF 31 AC 50         ld sp,C5+VMEM_SEG_2+BUFFER_CHUNK_LENGTH
 5490+B8B2 FD E5            push iy
 5491+B8B4 DD E5            push ix
 5492+B8B6 E5               push hl
 5493+B8B7 D5               push de
 5494+B8B8 C5               push bc
 5495+B8B9 F5               push af
 5496+B8BA                  ;2/2
 5497+B8BA 31 6E 92         ld sp,SEG_SIZE+SEG_SIZE+GAME_WINDOW_START+(BUFFER_MIDDLE*81)
 5498+B8BD F1               pop af
 5499+B8BE C1               pop bc
 5500+B8BF D1               pop de
 5501+B8C0 E1               pop hl
 5502+B8C1 DD E1            pop ix
 5503+B8C3 FD E1            pop iy
 5504+B8C5 31 B8 50         ld sp,C5+VMEM_SEG_2+(BUFFER_CHUNK_LENGTH*2)
 5505+B8C8 FD E5            push iy
 5506+B8CA DD E5            push ix
 5507+B8CC E5               push hl
 5508+B8CD D5               push de
 5509+B8CE C5               push bc
 5510+B8CF F5               push af
 5511+B8D0                  ;Scanline 1
 5512+B8D0                  ;1/2
 5513+B8D0 31 7E 92         ld sp,BUFFER_SIDE_EXTRA+SEG_SIZE+SEG_SIZE+GAME_WINDOW_START+(BUFFER_MIDDLE*82)
 5514+B8D3 F1               pop af
 5515+B8D4 C1               pop bc
 5516+B8D5 D1               pop de
 5517+B8D6 E1               pop hl
 5518+B8D7 DD E1            pop ix
 5519+B8D9 FD E1            pop iy
 5520+B8DB 31 AC 51         ld sp,L1+C5+VMEM_SEG_2+BUFFER_CHUNK_LENGTH
 5521+B8DE FD E5            push iy
 5522+B8E0 DD E5            push ix
 5523+B8E2 E5               push hl
 5524+B8E3 D5               push de
 5525+B8E4 C5               push bc
 5526+B8E5 F5               push af
 5527+B8E6                  ;2/2
 5528+B8E6 31 8A 92         ld sp,SEG_SIZE+SEG_SIZE+GAME_WINDOW_START+(BUFFER_MIDDLE*83)
 5529+B8E9 F1               pop af
 5530+B8EA C1               pop bc
 5531+B8EB D1               pop de
 5532+B8EC E1               pop hl
 5533+B8ED DD E1            pop ix
 5534+B8EF FD E1            pop iy
 5535+B8F1 31 B8 51         ld sp,L1+C5+VMEM_SEG_2+(BUFFER_CHUNK_LENGTH*2)
 5536+B8F4 FD E5            push iy
 5537+B8F6 DD E5            push ix
 5538+B8F8 E5               push hl
 5539+B8F9 D5               push de
 5540+B8FA C5               push bc
 5541+B8FB F5               push af
 5542+B8FC                  ;Scanline 2
 5543+B8FC                  ;1/2
 5544+B8FC 31 9A 92         ld sp,BUFFER_SIDE_EXTRA+SEG_SIZE+SEG_SIZE+GAME_WINDOW_START+(BUFFER_MIDDLE*84)
 5545+B8FF F1               pop af
 5546+B900 C1               pop bc
 5547+B901 D1               pop de
 5548+B902 E1               pop hl
 5549+B903 DD E1            pop ix
 5550+B905 FD E1            pop iy
 5551+B907 31 AC 52         ld sp,L2+C5+VMEM_SEG_2+BUFFER_CHUNK_LENGTH
 5552+B90A FD E5            push iy
 5553+B90C DD E5            push ix
 5554+B90E E5               push hl
 5555+B90F D5               push de
 5556+B910 C5               push bc
 5557+B911 F5               push af
 5558+B912                  ;2/2
 5559+B912 31 A6 92         ld sp,SEG_SIZE+SEG_SIZE+GAME_WINDOW_START+(BUFFER_MIDDLE*85)
 5560+B915 F1               pop af
 5561+B916 C1               pop bc
 5562+B917 D1               pop de
 5563+B918 E1               pop hl
 5564+B919 DD E1            pop ix
 5565+B91B FD E1            pop iy
 5566+B91D 31 B8 52         ld sp,L2+C5+VMEM_SEG_2+(BUFFER_CHUNK_LENGTH*2)
 5567+B920 FD E5            push iy
 5568+B922 DD E5            push ix
 5569+B924 E5               push hl
 5570+B925 D5               push de
 5571+B926 C5               push bc
 5572+B927 F5               push af
 5573+B928                  ;Scanline 3
 5574+B928                  ;1/2
 5575+B928 31 B6 92         ld sp,BUFFER_SIDE_EXTRA+SEG_SIZE+SEG_SIZE+GAME_WINDOW_START+(BUFFER_MIDDLE*86)
 5576+B92B F1               pop af
 5577+B92C C1               pop bc
 5578+B92D D1               pop de
 5579+B92E E1               pop hl
 5580+B92F DD E1            pop ix
 5581+B931 FD E1            pop iy
 5582+B933 31 AC 53         ld sp,L3+C5+VMEM_SEG_2+BUFFER_CHUNK_LENGTH
 5583+B936 FD E5            push iy
 5584+B938 DD E5            push ix
 5585+B93A E5               push hl
 5586+B93B D5               push de
 5587+B93C C5               push bc
 5588+B93D F5               push af
 5589+B93E                  ;2/2
 5590+B93E 31 C2 92         ld sp,SEG_SIZE+SEG_SIZE+GAME_WINDOW_START+(BUFFER_MIDDLE*87)
 5591+B941 F1               pop af
 5592+B942 C1               pop bc
 5593+B943 D1               pop de
 5594+B944 E1               pop hl
 5595+B945 DD E1            pop ix
 5596+B947 FD E1            pop iy
 5597+B949 31 B8 53         ld sp,L3+C5+VMEM_SEG_2+(BUFFER_CHUNK_LENGTH*2)
 5598+B94C FD E5            push iy
 5599+B94E DD E5            push ix
 5600+B950 E5               push hl
 5601+B951 D5               push de
 5602+B952 C5               push bc
 5603+B953 F5               push af
 5604+B954                  ;Scanline 4
 5605+B954                  ;1/2
 5606+B954 31 D2 92         ld sp,BUFFER_SIDE_EXTRA+SEG_SIZE+SEG_SIZE+GAME_WINDOW_START+(BUFFER_MIDDLE*88)
 5607+B957 F1               pop af
 5608+B958 C1               pop bc
 5609+B959 D1               pop de
 5610+B95A E1               pop hl
 5611+B95B DD E1            pop ix
 5612+B95D FD E1            pop iy
 5613+B95F 31 AC 54         ld sp,L4+C5+VMEM_SEG_2+BUFFER_CHUNK_LENGTH
 5614+B962 FD E5            push iy
 5615+B964 DD E5            push ix
 5616+B966 E5               push hl
 5617+B967 D5               push de
 5618+B968 C5               push bc
 5619+B969 F5               push af
 5620+B96A                  ;2/2
 5621+B96A 31 DE 92         ld sp,SEG_SIZE+SEG_SIZE+GAME_WINDOW_START+(BUFFER_MIDDLE*89)
 5622+B96D F1               pop af
 5623+B96E C1               pop bc
 5624+B96F D1               pop de
 5625+B970 E1               pop hl
 5626+B971 DD E1            pop ix
 5627+B973 FD E1            pop iy
 5628+B975 31 B8 54         ld sp,L4+C5+VMEM_SEG_2+(BUFFER_CHUNK_LENGTH*2)
 5629+B978 FD E5            push iy
 5630+B97A DD E5            push ix
 5631+B97C E5               push hl
 5632+B97D D5               push de
 5633+B97E C5               push bc
 5634+B97F F5               push af
 5635+B980                  ;Scanline 5
 5636+B980                  ;1/2
 5637+B980 31 EE 92         ld sp,BUFFER_SIDE_EXTRA+SEG_SIZE+SEG_SIZE+GAME_WINDOW_START+(BUFFER_MIDDLE*90)
 5638+B983 F1               pop af
 5639+B984 C1               pop bc
 5640+B985 D1               pop de
 5641+B986 E1               pop hl
 5642+B987 DD E1            pop ix
 5643+B989 FD E1            pop iy
 5644+B98B 31 AC 55         ld sp,L5+C5+VMEM_SEG_2+BUFFER_CHUNK_LENGTH
 5645+B98E FD E5            push iy
 5646+B990 DD E5            push ix
 5647+B992 E5               push hl
 5648+B993 D5               push de
 5649+B994 C5               push bc
 5650+B995 F5               push af
 5651+B996                  ;2/2
 5652+B996 31 FA 92         ld sp,SEG_SIZE+SEG_SIZE+GAME_WINDOW_START+(BUFFER_MIDDLE*91)
 5653+B999 F1               pop af
 5654+B99A C1               pop bc
 5655+B99B D1               pop de
 5656+B99C E1               pop hl
 5657+B99D DD E1            pop ix
 5658+B99F FD E1            pop iy
 5659+B9A1 31 B8 55         ld sp,L5+C5+VMEM_SEG_2+(BUFFER_CHUNK_LENGTH*2)
 5660+B9A4 FD E5            push iy
 5661+B9A6 DD E5            push ix
 5662+B9A8 E5               push hl
 5663+B9A9 D5               push de
 5664+B9AA C5               push bc
 5665+B9AB F5               push af
 5666+B9AC                  ;Scanline 6
 5667+B9AC                  ;1/2
 5668+B9AC 31 0A 93         ld sp,BUFFER_SIDE_EXTRA+SEG_SIZE+SEG_SIZE+GAME_WINDOW_START+(BUFFER_MIDDLE*92)
 5669+B9AF F1               pop af
 5670+B9B0 C1               pop bc
 5671+B9B1 D1               pop de
 5672+B9B2 E1               pop hl
 5673+B9B3 DD E1            pop ix
 5674+B9B5 FD E1            pop iy
 5675+B9B7 31 AC 56         ld sp,L6+C5+VMEM_SEG_2+BUFFER_CHUNK_LENGTH
 5676+B9BA FD E5            push iy
 5677+B9BC DD E5            push ix
 5678+B9BE E5               push hl
 5679+B9BF D5               push de
 5680+B9C0 C5               push bc
 5681+B9C1 F5               push af
 5682+B9C2                  ;2/2
 5683+B9C2 31 16 93         ld sp,SEG_SIZE+SEG_SIZE+GAME_WINDOW_START+(BUFFER_MIDDLE*93)
 5684+B9C5 F1               pop af
 5685+B9C6 C1               pop bc
 5686+B9C7 D1               pop de
 5687+B9C8 E1               pop hl
 5688+B9C9 DD E1            pop ix
 5689+B9CB FD E1            pop iy
 5690+B9CD 31 B8 56         ld sp,L6+C5+VMEM_SEG_2+(BUFFER_CHUNK_LENGTH*2)
 5691+B9D0 FD E5            push iy
 5692+B9D2 DD E5            push ix
 5693+B9D4 E5               push hl
 5694+B9D5 D5               push de
 5695+B9D6 C5               push bc
 5696+B9D7 F5               push af
 5697+B9D8                  ;Scanline 7
 5698+B9D8                  ;1/2
 5699+B9D8 31 26 93         ld sp,BUFFER_SIDE_EXTRA+SEG_SIZE+SEG_SIZE+GAME_WINDOW_START+(BUFFER_MIDDLE*94)
 5700+B9DB F1               pop af
 5701+B9DC C1               pop bc
 5702+B9DD D1               pop de
 5703+B9DE E1               pop hl
 5704+B9DF DD E1            pop ix
 5705+B9E1 FD E1            pop iy
 5706+B9E3 31 AC 57         ld sp,L7+C5+VMEM_SEG_2+BUFFER_CHUNK_LENGTH
 5707+B9E6 FD E5            push iy
 5708+B9E8 DD E5            push ix
 5709+B9EA E5               push hl
 5710+B9EB D5               push de
 5711+B9EC C5               push bc
 5712+B9ED F5               push af
 5713+B9EE                  ;2/2
 5714+B9EE 31 32 93         ld sp,SEG_SIZE+SEG_SIZE+GAME_WINDOW_START+(BUFFER_MIDDLE*95)
 5715+B9F1 F1               pop af
 5716+B9F2 C1               pop bc
 5717+B9F3 D1               pop de
 5718+B9F4 E1               pop hl
 5719+B9F5 DD E1            pop ix
 5720+B9F7 FD E1            pop iy
 5721+B9F9 31 B8 57         ld sp,L7+C5+VMEM_SEG_2+(BUFFER_CHUNK_LENGTH*2)
 5722+B9FC FD E5            push iy
 5723+B9FE DD E5            push ix
 5724+BA00 E5               push hl
 5725+BA01 D5               push de
 5726+BA02 C5               push bc
 5727+BA03 F5               push af
 5728+BA04
 5729+BA04
 5730+BA04
 5731+BA04                  ;Char Row 6
 5732+BA04
 5733+BA04                  ;Scanline 0
 5734+BA04                  ;1/2
 5735+BA04 31 42 93         ld sp,BUFFER_SIDE_EXTRA+SEG_SIZE+SEG_SIZE+GAME_WINDOW_START+(BUFFER_MIDDLE*96)
 5736+BA07 F1               pop af
 5737+BA08 C1               pop bc
 5738+BA09 D1               pop de
 5739+BA0A E1               pop hl
 5740+BA0B DD E1            pop ix
 5741+BA0D FD E1            pop iy
 5742+BA0F 31 CC 50         ld sp,C6+VMEM_SEG_2+BUFFER_CHUNK_LENGTH
 5743+BA12 FD E5            push iy
 5744+BA14 DD E5            push ix
 5745+BA16 E5               push hl
 5746+BA17 D5               push de
 5747+BA18 C5               push bc
 5748+BA19 F5               push af
 5749+BA1A                  ;2/2
 5750+BA1A 31 4E 93         ld sp,SEG_SIZE+SEG_SIZE+GAME_WINDOW_START+(BUFFER_MIDDLE*97)
 5751+BA1D F1               pop af
 5752+BA1E C1               pop bc
 5753+BA1F D1               pop de
 5754+BA20 E1               pop hl
 5755+BA21 DD E1            pop ix
 5756+BA23 FD E1            pop iy
 5757+BA25 31 D8 50         ld sp,C6+VMEM_SEG_2+(BUFFER_CHUNK_LENGTH*2)
 5758+BA28 FD E5            push iy
 5759+BA2A DD E5            push ix
 5760+BA2C E5               push hl
 5761+BA2D D5               push de
 5762+BA2E C5               push bc
 5763+BA2F F5               push af
 5764+BA30                  ;Scanline 1
 5765+BA30                  ;1/2
 5766+BA30 31 5E 93         ld sp,BUFFER_SIDE_EXTRA+SEG_SIZE+SEG_SIZE+GAME_WINDOW_START+(BUFFER_MIDDLE*98)
 5767+BA33 F1               pop af
 5768+BA34 C1               pop bc
 5769+BA35 D1               pop de
 5770+BA36 E1               pop hl
 5771+BA37 DD E1            pop ix
 5772+BA39 FD E1            pop iy
 5773+BA3B 31 CC 51         ld sp,L1+C6+VMEM_SEG_2+BUFFER_CHUNK_LENGTH
 5774+BA3E FD E5            push iy
 5775+BA40 DD E5            push ix
 5776+BA42 E5               push hl
 5777+BA43 D5               push de
 5778+BA44 C5               push bc
 5779+BA45 F5               push af
 5780+BA46                  ;2/2
 5781+BA46 31 6A 93         ld sp,SEG_SIZE+SEG_SIZE+GAME_WINDOW_START+(BUFFER_MIDDLE*99)
 5782+BA49 F1               pop af
 5783+BA4A C1               pop bc
 5784+BA4B D1               pop de
 5785+BA4C E1               pop hl
 5786+BA4D DD E1            pop ix
 5787+BA4F FD E1            pop iy
 5788+BA51 31 D8 51         ld sp,L1+C6+VMEM_SEG_2+(BUFFER_CHUNK_LENGTH*2)
 5789+BA54 FD E5            push iy
 5790+BA56 DD E5            push ix
 5791+BA58 E5               push hl
 5792+BA59 D5               push de
 5793+BA5A C5               push bc
 5794+BA5B F5               push af
 5795+BA5C                  ;Scanline 2
 5796+BA5C                  ;1/2
 5797+BA5C 31 7A 93         ld sp,BUFFER_SIDE_EXTRA+SEG_SIZE+SEG_SIZE+GAME_WINDOW_START+(BUFFER_MIDDLE*100)
 5798+BA5F F1               pop af
 5799+BA60 C1               pop bc
 5800+BA61 D1               pop de
 5801+BA62 E1               pop hl
 5802+BA63 DD E1            pop ix
 5803+BA65 FD E1            pop iy
 5804+BA67 31 CC 52         ld sp,L2+C6+VMEM_SEG_2+BUFFER_CHUNK_LENGTH
 5805+BA6A FD E5            push iy
 5806+BA6C DD E5            push ix
 5807+BA6E E5               push hl
 5808+BA6F D5               push de
 5809+BA70 C5               push bc
 5810+BA71 F5               push af
 5811+BA72                  ;2/2
 5812+BA72 31 86 93         ld sp,SEG_SIZE+SEG_SIZE+GAME_WINDOW_START+(BUFFER_MIDDLE*101)
 5813+BA75 F1               pop af
 5814+BA76 C1               pop bc
 5815+BA77 D1               pop de
 5816+BA78 E1               pop hl
 5817+BA79 DD E1            pop ix
 5818+BA7B FD E1            pop iy
 5819+BA7D 31 D8 52         ld sp,L2+C6+VMEM_SEG_2+(BUFFER_CHUNK_LENGTH*2)
 5820+BA80 FD E5            push iy
 5821+BA82 DD E5            push ix
 5822+BA84 E5               push hl
 5823+BA85 D5               push de
 5824+BA86 C5               push bc
 5825+BA87 F5               push af
 5826+BA88                  ;Scanline 3
 5827+BA88                  ;1/2
 5828+BA88 31 96 93         ld sp,BUFFER_SIDE_EXTRA+SEG_SIZE+SEG_SIZE+GAME_WINDOW_START+(BUFFER_MIDDLE*102)
 5829+BA8B F1               pop af
 5830+BA8C C1               pop bc
 5831+BA8D D1               pop de
 5832+BA8E E1               pop hl
 5833+BA8F DD E1            pop ix
 5834+BA91 FD E1            pop iy
 5835+BA93 31 CC 53         ld sp,L3+C6+VMEM_SEG_2+BUFFER_CHUNK_LENGTH
 5836+BA96 FD E5            push iy
 5837+BA98 DD E5            push ix
 5838+BA9A E5               push hl
 5839+BA9B D5               push de
 5840+BA9C C5               push bc
 5841+BA9D F5               push af
 5842+BA9E                  ;2/2
 5843+BA9E 31 A2 93         ld sp,SEG_SIZE+SEG_SIZE+GAME_WINDOW_START+(BUFFER_MIDDLE*103)
 5844+BAA1 F1               pop af
 5845+BAA2 C1               pop bc
 5846+BAA3 D1               pop de
 5847+BAA4 E1               pop hl
 5848+BAA5 DD E1            pop ix
 5849+BAA7 FD E1            pop iy
 5850+BAA9 31 D8 53         ld sp,L3+C6+VMEM_SEG_2+(BUFFER_CHUNK_LENGTH*2)
 5851+BAAC FD E5            push iy
 5852+BAAE DD E5            push ix
 5853+BAB0 E5               push hl
 5854+BAB1 D5               push de
 5855+BAB2 C5               push bc
 5856+BAB3 F5               push af
 5857+BAB4                  ;Scanline 4
 5858+BAB4                  ;1/2
 5859+BAB4 31 B2 93         ld sp,BUFFER_SIDE_EXTRA+SEG_SIZE+SEG_SIZE+GAME_WINDOW_START+(BUFFER_MIDDLE*104)
 5860+BAB7 F1               pop af
 5861+BAB8 C1               pop bc
 5862+BAB9 D1               pop de
 5863+BABA E1               pop hl
 5864+BABB DD E1            pop ix
 5865+BABD FD E1            pop iy
 5866+BABF 31 CC 54         ld sp,L4+C6+VMEM_SEG_2+BUFFER_CHUNK_LENGTH
 5867+BAC2 FD E5            push iy
 5868+BAC4 DD E5            push ix
 5869+BAC6 E5               push hl
 5870+BAC7 D5               push de
 5871+BAC8 C5               push bc
 5872+BAC9 F5               push af
 5873+BACA                  ;2/2
 5874+BACA 31 BE 93         ld sp,SEG_SIZE+SEG_SIZE+GAME_WINDOW_START+(BUFFER_MIDDLE*105)
 5875+BACD F1               pop af
 5876+BACE C1               pop bc
 5877+BACF D1               pop de
 5878+BAD0 E1               pop hl
 5879+BAD1 DD E1            pop ix
 5880+BAD3 FD E1            pop iy
 5881+BAD5 31 D8 54         ld sp,L4+C6+VMEM_SEG_2+(BUFFER_CHUNK_LENGTH*2)
 5882+BAD8 FD E5            push iy
 5883+BADA DD E5            push ix
 5884+BADC E5               push hl
 5885+BADD D5               push de
 5886+BADE C5               push bc
 5887+BADF F5               push af
 5888+BAE0                  ;Scanline 5
 5889+BAE0                  ;1/2
 5890+BAE0 31 CE 93         ld sp,BUFFER_SIDE_EXTRA+SEG_SIZE+SEG_SIZE+GAME_WINDOW_START+(BUFFER_MIDDLE*106)
 5891+BAE3 F1               pop af
 5892+BAE4 C1               pop bc
 5893+BAE5 D1               pop de
 5894+BAE6 E1               pop hl
 5895+BAE7 DD E1            pop ix
 5896+BAE9 FD E1            pop iy
 5897+BAEB 31 CC 55         ld sp,L5+C6+VMEM_SEG_2+BUFFER_CHUNK_LENGTH
 5898+BAEE FD E5            push iy
 5899+BAF0 DD E5            push ix
 5900+BAF2 E5               push hl
 5901+BAF3 D5               push de
 5902+BAF4 C5               push bc
 5903+BAF5 F5               push af
 5904+BAF6                  ;2/2
 5905+BAF6 31 DA 93         ld sp,SEG_SIZE+SEG_SIZE+GAME_WINDOW_START+(BUFFER_MIDDLE*107)
 5906+BAF9 F1               pop af
 5907+BAFA C1               pop bc
 5908+BAFB D1               pop de
 5909+BAFC E1               pop hl
 5910+BAFD DD E1            pop ix
 5911+BAFF FD E1            pop iy
 5912+BB01 31 D8 55         ld sp,L5+C6+VMEM_SEG_2+(BUFFER_CHUNK_LENGTH*2)
 5913+BB04 FD E5            push iy
 5914+BB06 DD E5            push ix
 5915+BB08 E5               push hl
 5916+BB09 D5               push de
 5917+BB0A C5               push bc
 5918+BB0B F5               push af
 5919+BB0C                  ;Scanline 6
 5920+BB0C                  ;1/2
 5921+BB0C 31 EA 93         ld sp,BUFFER_SIDE_EXTRA+SEG_SIZE+SEG_SIZE+GAME_WINDOW_START+(BUFFER_MIDDLE*108)
 5922+BB0F F1               pop af
 5923+BB10 C1               pop bc
 5924+BB11 D1               pop de
 5925+BB12 E1               pop hl
 5926+BB13 DD E1            pop ix
 5927+BB15 FD E1            pop iy
 5928+BB17 31 CC 56         ld sp,L6+C6+VMEM_SEG_2+BUFFER_CHUNK_LENGTH
 5929+BB1A FD E5            push iy
 5930+BB1C DD E5            push ix
 5931+BB1E E5               push hl
 5932+BB1F D5               push de
 5933+BB20 C5               push bc
 5934+BB21 F5               push af
 5935+BB22                  ;2/2
 5936+BB22 31 F6 93         ld sp,SEG_SIZE+SEG_SIZE+GAME_WINDOW_START+(BUFFER_MIDDLE*109)
 5937+BB25 F1               pop af
 5938+BB26 C1               pop bc
 5939+BB27 D1               pop de
 5940+BB28 E1               pop hl
 5941+BB29 DD E1            pop ix
 5942+BB2B FD E1            pop iy
 5943+BB2D 31 D8 56         ld sp,L6+C6+VMEM_SEG_2+(BUFFER_CHUNK_LENGTH*2)
 5944+BB30 FD E5            push iy
 5945+BB32 DD E5            push ix
 5946+BB34 E5               push hl
 5947+BB35 D5               push de
 5948+BB36 C5               push bc
 5949+BB37 F5               push af
 5950+BB38                  ;Scanline 7
 5951+BB38                  ;1/2
 5952+BB38 31 06 94         ld sp,BUFFER_SIDE_EXTRA+SEG_SIZE+SEG_SIZE+GAME_WINDOW_START+(BUFFER_MIDDLE*110)
 5953+BB3B F1               pop af
 5954+BB3C C1               pop bc
 5955+BB3D D1               pop de
 5956+BB3E E1               pop hl
 5957+BB3F DD E1            pop ix
 5958+BB41 FD E1            pop iy
 5959+BB43 31 CC 57         ld sp,L7+C6+VMEM_SEG_2+BUFFER_CHUNK_LENGTH
 5960+BB46 FD E5            push iy
 5961+BB48 DD E5            push ix
 5962+BB4A E5               push hl
 5963+BB4B D5               push de
 5964+BB4C C5               push bc
 5965+BB4D F5               push af
 5966+BB4E                  ;2/2
 5967+BB4E 31 12 94         ld sp,SEG_SIZE+SEG_SIZE+GAME_WINDOW_START+(BUFFER_MIDDLE*111)
 5968+BB51 F1               pop af
 5969+BB52 C1               pop bc
 5970+BB53 D1               pop de
 5971+BB54 E1               pop hl
 5972+BB55 DD E1            pop ix
 5973+BB57 FD E1            pop iy
 5974+BB59 31 D8 57         ld sp,L7+C6+VMEM_SEG_2+(BUFFER_CHUNK_LENGTH*2)
 5975+BB5C FD E5            push iy
 5976+BB5E DD E5            push ix
 5977+BB60 E5               push hl
 5978+BB61 D5               push de
 5979+BB62 C5               push bc
 5980+BB63 F5               push af
 5981+BB64
 5982+BB64
 5983+BB64
 5984+BB64                  ;Char Row 7
 5985+BB64
 5986+BB64                  ;Scanline 0
 5987+BB64                  ;1/2
 5988+BB64 31 22 94         ld sp,BUFFER_SIDE_EXTRA+SEG_SIZE+SEG_SIZE+GAME_WINDOW_START+(BUFFER_MIDDLE*112)
 5989+BB67 F1               pop af
 5990+BB68 C1               pop bc
 5991+BB69 D1               pop de
 5992+BB6A E1               pop hl
 5993+BB6B DD E1            pop ix
 5994+BB6D FD E1            pop iy
 5995+BB6F 31 EC 50         ld sp,C7+VMEM_SEG_2+BUFFER_CHUNK_LENGTH
 5996+BB72 FD E5            push iy
 5997+BB74 DD E5            push ix
 5998+BB76 E5               push hl
 5999+BB77 D5               push de
 6000+BB78 C5               push bc
 6001+BB79 F5               push af
 6002+BB7A                  ;2/2
 6003+BB7A 31 2E 94         ld sp,SEG_SIZE+SEG_SIZE+GAME_WINDOW_START+(BUFFER_MIDDLE*113)
 6004+BB7D F1               pop af
 6005+BB7E C1               pop bc
 6006+BB7F D1               pop de
 6007+BB80 E1               pop hl
 6008+BB81 DD E1            pop ix
 6009+BB83 FD E1            pop iy
 6010+BB85 31 F8 50         ld sp,C7+VMEM_SEG_2+(BUFFER_CHUNK_LENGTH*2)
 6011+BB88 FD E5            push iy
 6012+BB8A DD E5            push ix
 6013+BB8C E5               push hl
 6014+BB8D D5               push de
 6015+BB8E C5               push bc
 6016+BB8F F5               push af
 6017+BB90                  ;Scanline 1
 6018+BB90                  ;1/2
 6019+BB90 31 3E 94         ld sp,BUFFER_SIDE_EXTRA+SEG_SIZE+SEG_SIZE+GAME_WINDOW_START+(BUFFER_MIDDLE*114)
 6020+BB93 F1               pop af
 6021+BB94 C1               pop bc
 6022+BB95 D1               pop de
 6023+BB96 E1               pop hl
 6024+BB97 DD E1            pop ix
 6025+BB99 FD E1            pop iy
 6026+BB9B 31 EC 51         ld sp,L1+C7+VMEM_SEG_2+BUFFER_CHUNK_LENGTH
 6027+BB9E FD E5            push iy
 6028+BBA0 DD E5            push ix
 6029+BBA2 E5               push hl
 6030+BBA3 D5               push de
 6031+BBA4 C5               push bc
 6032+BBA5 F5               push af
 6033+BBA6                  ;2/2
 6034+BBA6 31 4A 94         ld sp,SEG_SIZE+SEG_SIZE+GAME_WINDOW_START+(BUFFER_MIDDLE*115)
 6035+BBA9 F1               pop af
 6036+BBAA C1               pop bc
 6037+BBAB D1               pop de
 6038+BBAC E1               pop hl
 6039+BBAD DD E1            pop ix
 6040+BBAF FD E1            pop iy
 6041+BBB1 31 F8 51         ld sp,L1+C7+VMEM_SEG_2+(BUFFER_CHUNK_LENGTH*2)
 6042+BBB4 FD E5            push iy
 6043+BBB6 DD E5            push ix
 6044+BBB8 E5               push hl
 6045+BBB9 D5               push de
 6046+BBBA C5               push bc
 6047+BBBB F5               push af
 6048+BBBC                  ;Scanline 2
 6049+BBBC                  ;1/2
 6050+BBBC 31 5A 94         ld sp,BUFFER_SIDE_EXTRA+SEG_SIZE+SEG_SIZE+GAME_WINDOW_START+(BUFFER_MIDDLE*116)
 6051+BBBF F1               pop af
 6052+BBC0 C1               pop bc
 6053+BBC1 D1               pop de
 6054+BBC2 E1               pop hl
 6055+BBC3 DD E1            pop ix
 6056+BBC5 FD E1            pop iy
 6057+BBC7 31 EC 52         ld sp,L2+C7+VMEM_SEG_2+BUFFER_CHUNK_LENGTH
 6058+BBCA FD E5            push iy
 6059+BBCC DD E5            push ix
 6060+BBCE E5               push hl
 6061+BBCF D5               push de
 6062+BBD0 C5               push bc
 6063+BBD1 F5               push af
 6064+BBD2                  ;2/2
 6065+BBD2 31 66 94         ld sp,SEG_SIZE+SEG_SIZE+GAME_WINDOW_START+(BUFFER_MIDDLE*117)
 6066+BBD5 F1               pop af
 6067+BBD6 C1               pop bc
 6068+BBD7 D1               pop de
 6069+BBD8 E1               pop hl
 6070+BBD9 DD E1            pop ix
 6071+BBDB FD E1            pop iy
 6072+BBDD 31 F8 52         ld sp,L2+C7+VMEM_SEG_2+(BUFFER_CHUNK_LENGTH*2)
 6073+BBE0 FD E5            push iy
 6074+BBE2 DD E5            push ix
 6075+BBE4 E5               push hl
 6076+BBE5 D5               push de
 6077+BBE6 C5               push bc
 6078+BBE7 F5               push af
 6079+BBE8                  ;Scanline 3
 6080+BBE8                  ;1/2
 6081+BBE8 31 76 94         ld sp,BUFFER_SIDE_EXTRA+SEG_SIZE+SEG_SIZE+GAME_WINDOW_START+(BUFFER_MIDDLE*118)
 6082+BBEB F1               pop af
 6083+BBEC C1               pop bc
 6084+BBED D1               pop de
 6085+BBEE E1               pop hl
 6086+BBEF DD E1            pop ix
 6087+BBF1 FD E1            pop iy
 6088+BBF3 31 EC 53         ld sp,L3+C7+VMEM_SEG_2+BUFFER_CHUNK_LENGTH
 6089+BBF6 FD E5            push iy
 6090+BBF8 DD E5            push ix
 6091+BBFA E5               push hl
 6092+BBFB D5               push de
 6093+BBFC C5               push bc
 6094+BBFD F5               push af
 6095+BBFE                  ;2/2
 6096+BBFE 31 82 94         ld sp,SEG_SIZE+SEG_SIZE+GAME_WINDOW_START+(BUFFER_MIDDLE*119)
 6097+BC01 F1               pop af
 6098+BC02 C1               pop bc
 6099+BC03 D1               pop de
 6100+BC04 E1               pop hl
 6101+BC05 DD E1            pop ix
 6102+BC07 FD E1            pop iy
 6103+BC09 31 F8 53         ld sp,L3+C7+VMEM_SEG_2+(BUFFER_CHUNK_LENGTH*2)
 6104+BC0C FD E5            push iy
 6105+BC0E DD E5            push ix
 6106+BC10 E5               push hl
 6107+BC11 D5               push de
 6108+BC12 C5               push bc
 6109+BC13 F5               push af
 6110+BC14                  ;Scanline 4
 6111+BC14                  ;1/2
 6112+BC14 31 92 94         ld sp,BUFFER_SIDE_EXTRA+SEG_SIZE+SEG_SIZE+GAME_WINDOW_START+(BUFFER_MIDDLE*120)
 6113+BC17 F1               pop af
 6114+BC18 C1               pop bc
 6115+BC19 D1               pop de
 6116+BC1A E1               pop hl
 6117+BC1B DD E1            pop ix
 6118+BC1D FD E1            pop iy
 6119+BC1F 31 EC 54         ld sp,L4+C7+VMEM_SEG_2+BUFFER_CHUNK_LENGTH
 6120+BC22 FD E5            push iy
 6121+BC24 DD E5            push ix
 6122+BC26 E5               push hl
 6123+BC27 D5               push de
 6124+BC28 C5               push bc
 6125+BC29 F5               push af
 6126+BC2A                  ;2/2
 6127+BC2A 31 9E 94         ld sp,SEG_SIZE+SEG_SIZE+GAME_WINDOW_START+(BUFFER_MIDDLE*121)
 6128+BC2D F1               pop af
 6129+BC2E C1               pop bc
 6130+BC2F D1               pop de
 6131+BC30 E1               pop hl
 6132+BC31 DD E1            pop ix
 6133+BC33 FD E1            pop iy
 6134+BC35 31 F8 54         ld sp,L4+C7+VMEM_SEG_2+(BUFFER_CHUNK_LENGTH*2)
 6135+BC38 FD E5            push iy
 6136+BC3A DD E5            push ix
 6137+BC3C E5               push hl
 6138+BC3D D5               push de
 6139+BC3E C5               push bc
 6140+BC3F F5               push af
 6141+BC40                  ;Scanline 5
 6142+BC40                  ;1/2
 6143+BC40 31 AE 94         ld sp,BUFFER_SIDE_EXTRA+SEG_SIZE+SEG_SIZE+GAME_WINDOW_START+(BUFFER_MIDDLE*122)
 6144+BC43 F1               pop af
 6145+BC44 C1               pop bc
 6146+BC45 D1               pop de
 6147+BC46 E1               pop hl
 6148+BC47 DD E1            pop ix
 6149+BC49 FD E1            pop iy
 6150+BC4B 31 EC 55         ld sp,L5+C7+VMEM_SEG_2+BUFFER_CHUNK_LENGTH
 6151+BC4E FD E5            push iy
 6152+BC50 DD E5            push ix
 6153+BC52 E5               push hl
 6154+BC53 D5               push de
 6155+BC54 C5               push bc
 6156+BC55 F5               push af
 6157+BC56                  ;2/2
 6158+BC56 31 BA 94         ld sp,SEG_SIZE+SEG_SIZE+GAME_WINDOW_START+(BUFFER_MIDDLE*123)
 6159+BC59 F1               pop af
 6160+BC5A C1               pop bc
 6161+BC5B D1               pop de
 6162+BC5C E1               pop hl
 6163+BC5D DD E1            pop ix
 6164+BC5F FD E1            pop iy
 6165+BC61 31 F8 55         ld sp,L5+C7+VMEM_SEG_2+(BUFFER_CHUNK_LENGTH*2)
 6166+BC64 FD E5            push iy
 6167+BC66 DD E5            push ix
 6168+BC68 E5               push hl
 6169+BC69 D5               push de
 6170+BC6A C5               push bc
 6171+BC6B F5               push af
 6172+BC6C                  ;Scanline 6
 6173+BC6C                  ;1/2
 6174+BC6C 31 CA 94         ld sp,BUFFER_SIDE_EXTRA+SEG_SIZE+SEG_SIZE+GAME_WINDOW_START+(BUFFER_MIDDLE*124)
 6175+BC6F F1               pop af
 6176+BC70 C1               pop bc
 6177+BC71 D1               pop de
 6178+BC72 E1               pop hl
 6179+BC73 DD E1            pop ix
 6180+BC75 FD E1            pop iy
 6181+BC77 31 EC 56         ld sp,L6+C7+VMEM_SEG_2+BUFFER_CHUNK_LENGTH
 6182+BC7A FD E5            push iy
 6183+BC7C DD E5            push ix
 6184+BC7E E5               push hl
 6185+BC7F D5               push de
 6186+BC80 C5               push bc
 6187+BC81 F5               push af
 6188+BC82                  ;2/2
 6189+BC82 31 D6 94         ld sp,SEG_SIZE+SEG_SIZE+GAME_WINDOW_START+(BUFFER_MIDDLE*125)
 6190+BC85 F1               pop af
 6191+BC86 C1               pop bc
 6192+BC87 D1               pop de
 6193+BC88 E1               pop hl
 6194+BC89 DD E1            pop ix
 6195+BC8B FD E1            pop iy
 6196+BC8D 31 F8 56         ld sp,L6+C7+VMEM_SEG_2+(BUFFER_CHUNK_LENGTH*2)
 6197+BC90 FD E5            push iy
 6198+BC92 DD E5            push ix
 6199+BC94 E5               push hl
 6200+BC95 D5               push de
 6201+BC96 C5               push bc
 6202+BC97 F5               push af
 6203+BC98                  ;Scanline 7
 6204+BC98                  ;1/2
 6205+BC98 31 E6 94         ld sp,BUFFER_SIDE_EXTRA+SEG_SIZE+SEG_SIZE+GAME_WINDOW_START+(BUFFER_MIDDLE*126)
 6206+BC9B F1               pop af
 6207+BC9C C1               pop bc
 6208+BC9D D1               pop de
 6209+BC9E E1               pop hl
 6210+BC9F DD E1            pop ix
 6211+BCA1 FD E1            pop iy
 6212+BCA3 31 EC 57         ld sp,L7+C7+VMEM_SEG_2+BUFFER_CHUNK_LENGTH
 6213+BCA6 FD E5            push iy
 6214+BCA8 DD E5            push ix
 6215+BCAA E5               push hl
 6216+BCAB D5               push de
 6217+BCAC C5               push bc
 6218+BCAD F5               push af
 6219+BCAE                  ;2/2
 6220+BCAE 31 F2 94         ld sp,SEG_SIZE+SEG_SIZE+GAME_WINDOW_START+(BUFFER_MIDDLE*127)
 6221+BCB1 F1               pop af
 6222+BCB2 C1               pop bc
 6223+BCB3 D1               pop de
 6224+BCB4 E1               pop hl
 6225+BCB5 DD E1            pop ix
 6226+BCB7 FD E1            pop iy
 6227+BCB9 31 F8 57         ld sp,L7+C7+VMEM_SEG_2+(BUFFER_CHUNK_LENGTH*2)
 6228+BCBC FD E5            push iy
 6229+BCBE DD E5            push ix
 6230+BCC0 E5               push hl
 6231+BCC1 D5               push de
 6232+BCC2 C5               push bc
 6233+BCC3 F5               push af
 6234+BCC4
 6235+BCC4 ED 7B A3 9B      ld sp,(stack_ptr)
 6236+BCC8
 6237+BCC8 F1               pop af
 6238+BCC9 C1               pop bc
 6239+BCCA D1               pop de
 6240+BCCB E1               pop hl
 6241+BCCC DD E1            pop ix
 6242+BCCE FD E1            pop iy
 6243+BCD0 FB               ei
 6244+BCD1
 6245+BCD1
 6246+BCD1 C9               ret
# file closed: retrohelpers/doublebuffering.asm
   44 BCD2                  include 'retrohelpers\keycacher.asm'
# file opened: retrohelpers/keycacher.asm
    1+BCD2              ;Usage:
    2+BCD2              ;first call check_keys
    3+BCD2              ;compare states of cached values (eg. keypressed_W) before doing movement/actions etc.
    4+BCD2              ;after all actions, call reset_keys
    5+BCD2
    6+BCD2
    7+BCD2              ; 32766 B, N, M, Symbol Shift, Space
    8+BCD2              ; 49150 H, J, K, L, Enter
    9+BCD2              ; 57342 Y, U, I, O, P
   10+BCD2              ; 61438 6, 7, 8, 9, 0
   11+BCD2              ; 63486 5, 4, 3, 2, 1
   12+BCD2              ; 64510 T, R, E, W, Q
   13+BCD2              ; 65022 G, F, D, S, A
   14+BCD2              ; 65278 V, C, X, Z, Caps Shift
   15+BCD2
   16+BCD2
   17+BCD2 00           keypressed_W db FALSE
   18+BCD3 00           keypressed_A db FALSE
   19+BCD4 00           keypressed_A_Held db FALSE
   20+BCD5 00           keypressed_S db FALSE
   21+BCD6 00           keypressed_D db FALSE
   22+BCD7
   23+BCD7 00           keypressed_F db FALSE
   24+BCD8 00           keypressed_F_Held db FALSE
   25+BCD9 00           keypressed_I db FALSE
   26+BCDA 00           keypressed_Q db FALSE
   27+BCDB 00           keypressed_Q_Held db FALSE
   28+BCDC 00           keypressed_O db FALSE
   29+BCDD 00           keypressed_P db FALSE
   30+BCDE 00           keypressed_Space db FALSE
   31+BCDF 00           keypressed_Space_Held db FALSE
   32+BCE0
   33+BCE0              check_keys:
   34+BCE0 3A D7 BC         ld a,(keypressed_F)
   35+BCE3 FE 01            cp TRUE
   36+BCE5 CC A5 BD         call z, set_F_Held
   37+BCE8 C4 AB BD         call nz, reset_F_Held
   38+BCEB
   39+BCEB 3A D3 BC         ld a,(keypressed_A)
   40+BCEE FE 01            cp TRUE
   41+BCF0 CC 88 BD         call z,set_A_Held
   42+BCF3 C4 8E BD         call nz, reset_A_Held
   43+BCF6
   44+BCF6 3A DA BC         ld a,(keypressed_Q)
   45+BCF9 FE 01            cp TRUE
   46+BCFB CC BC BD         call z,set_Q_Held
   47+BCFE C4 C2 BD         call nz, reset_Q_Held
   48+BD01
   49+BD01 3A DE BC         ld a,(keypressed_Space)
   50+BD04 FE 01            cp TRUE
   51+BD06 CC D9 BD         call z,set_Space_Held
   52+BD09 C4 DF BD         call nz, reset_Space_Held
   53+BD0C
   54+BD0C AF               xor a
   55+BD0D 32 D2 BC         ld (keypressed_W),a
   56+BD10 32 D3 BC         ld (keypressed_A),a
   57+BD13 32 D5 BC         ld (keypressed_S),a
   58+BD16 32 D6 BC         ld (keypressed_D),a
   59+BD19 32 D7 BC         ld (keypressed_F),a
   60+BD1C 32 D9 BC         ld (keypressed_I),a
   61+BD1F 32 DA BC         ld (keypressed_Q),a
   62+BD22 32 DC BC         ld (keypressed_O),a
   63+BD25 32 DD BC         ld (keypressed_P),a
   64+BD28 32 DE BC         ld (keypressed_Space),a
   65+BD2B
   66+BD2B
   67+BD2B 01 FE FD         ld bc,65022 ;ASDFG
   68+BD2E ED 78            in a,(c)
   69+BD30 1F               rra
   70+BD31 F5               push af
   71+BD32 D4 82 BD         call nc, set_A
   72+BD35 F1               pop af
   73+BD36 1F               rra
   74+BD37 F5               push af
   75+BD38 D4 93 BD         call nc, set_S
   76+BD3B F1               pop af
   77+BD3C 1F               rra
   78+BD3D F5               push af
   79+BD3E D4 99 BD         call nc, set_D
   80+BD41 F1               pop af
   81+BD42 1F               rra
   82+BD43 F5               push af
   83+BD44 D4 9F BD         call nc, set_F
   84+BD47 F1               pop af
   85+BD48
   86+BD48 01 FE FB         ld bc,64510 ;QWERT
   87+BD4B ED 78            in a,(c)
   88+BD4D 1F               rra ;Q
   89+BD4E F5               push af
   90+BD4F D4 B6 BD         call nc, set_Q
   91+BD52 F1               pop af
   92+BD53 1F               rra ;W
   93+BD54 F5               push af
   94+BD55 D4 7C BD         call nc, set_W
   95+BD58 F1               pop af
   96+BD59
   97+BD59 01 FE DF         ld bc,57342 ;POIUY
   98+BD5C ED 78            in a,(c)
   99+BD5E 1F               rra ;P
  100+BD5F F5               push af
  101+BD60 D4 CD BD         call nc, set_P
  102+BD63 F1               pop af
  103+BD64 1F               rra ;O
  104+BD65 F5               push af
  105+BD66 D4 C7 BD         call nc, set_O
  106+BD69 F1               pop af
  107+BD6A 1F               rra ;I
  108+BD6B F5               push af
  109+BD6C D4 B0 BD         call nc, set_I
  110+BD6F F1               pop af
  111+BD70
  112+BD70 01 FE 7F         ld bc,32766
  113+BD73 ED 78            in a,(c)
  114+BD75 1F               rra
  115+BD76 F5               push af
  116+BD77 D4 D3 BD         call nc, set_Space
  117+BD7A F1               pop af
  118+BD7B
  119+BD7B
  120+BD7B C9               ret
  121+BD7C
  122+BD7C              set_W:
  123+BD7C 3E 01            ld a,TRUE
  124+BD7E 32 D2 BC         ld (keypressed_W),a
  125+BD81 C9               ret
  126+BD82
  127+BD82              set_A:
  128+BD82 3E 01            ld a,TRUE
  129+BD84 32 D3 BC         ld (keypressed_A),a
  130+BD87 C9               ret
  131+BD88
  132+BD88              set_A_Held:
  133+BD88 3E 01            ld a,TRUE
  134+BD8A 32 D4 BC         ld (keypressed_A_Held),a
  135+BD8D C9               ret
  136+BD8E
  137+BD8E              reset_A_Held:
  138+BD8E AF               xor a
  139+BD8F 32 D4 BC         ld (keypressed_A_Held),a
  140+BD92 C9               ret
  141+BD93
  142+BD93              set_S:
  143+BD93 3E 01            ld a,TRUE
  144+BD95 32 D5 BC         ld (keypressed_S),a
  145+BD98 C9               ret
  146+BD99
  147+BD99              set_D:
  148+BD99 3E 01            ld a,TRUE
  149+BD9B 32 D6 BC         ld (keypressed_D),a
  150+BD9E C9               ret
  151+BD9F
  152+BD9F              set_F:
  153+BD9F 3E 01            ld a,TRUE
  154+BDA1 32 D7 BC         ld (keypressed_F),a
  155+BDA4 C9               ret
  156+BDA5
  157+BDA5
  158+BDA5              set_F_Held:
  159+BDA5 3E 01            ld a,TRUE
  160+BDA7 32 D8 BC         ld (keypressed_F_Held),a
  161+BDAA C9               ret
  162+BDAB
  163+BDAB              reset_F_Held:
  164+BDAB AF               xor a
  165+BDAC 32 D8 BC         ld (keypressed_F_Held),a
  166+BDAF C9               ret
  167+BDB0
  168+BDB0
  169+BDB0
  170+BDB0              set_I:
  171+BDB0 3E 01            ld a,TRUE
  172+BDB2 32 D9 BC         ld (keypressed_I),a
  173+BDB5 C9               ret
  174+BDB6
  175+BDB6
  176+BDB6              set_Q:
  177+BDB6 3E 01            ld a,TRUE
  178+BDB8 32 DA BC         ld (keypressed_Q),a
  179+BDBB C9               ret
  180+BDBC
  181+BDBC              set_Q_Held:
  182+BDBC 3E 01            ld a,TRUE
  183+BDBE 32 DB BC         ld (keypressed_Q_Held),a
  184+BDC1 C9               ret
  185+BDC2
  186+BDC2              reset_Q_Held:
  187+BDC2 AF               xor a
  188+BDC3 32 DB BC         ld (keypressed_Q_Held),a
  189+BDC6 C9               ret
  190+BDC7
  191+BDC7              set_O:
  192+BDC7 3E 01            ld a,TRUE
  193+BDC9 32 DC BC         ld (keypressed_O),a
  194+BDCC C9               ret
  195+BDCD
  196+BDCD              set_P:
  197+BDCD 3E 01            ld a,TRUE
  198+BDCF 32 DD BC         ld (keypressed_P),a
  199+BDD2 C9               ret
  200+BDD3
  201+BDD3              set_Space:
  202+BDD3 3E 01            ld a,TRUE
  203+BDD5 32 DE BC         ld (keypressed_Space),a
  204+BDD8 C9               ret
  205+BDD9              set_Space_Held:
  206+BDD9 3E 01            ld a,TRUE
  207+BDDB 32 DF BC         ld (keypressed_Space_Held),a
  208+BDDE C9               ret
  209+BDDF
  210+BDDF              reset_Space_Held:
  211+BDDF AF               xor a
  212+BDE0 32 DF BC         ld (keypressed_Space_Held),a
  213+BDE3 C9               ret
  214+BDE4
# file closed: retrohelpers/keycacher.asm
   45 BDE4                  include 'retrohelpers\sounds.asm'
# file opened: retrohelpers/sounds.asm
    1+BDE4              ;Soundtools - collection of functions regarding sound output
    2+BDE4              ;
    3+BDE4              ;Table of Hertz values for sound notes:
    4+BDE4              ; Middle C
    5+BDE4              ; 261.63
    6+BDE4              ; C sharp
    7+BDE4              ; 277.18
    8+BDE4              ; D
    9+BDE4              ; 293.66
   10+BDE4              ; D sharp
   11+BDE4              ; 311.13
   12+BDE4              ; E
   13+BDE4              ; 329.63
   14+BDE4              ; F
   15+BDE4              ; 349.23
   16+BDE4              ; F sharp
   17+BDE4              ; 369.99
   18+BDE4              ; G
   19+BDE4              ; 392.00
   20+BDE4              ; G sharp
   21+BDE4              ; 415.30
   22+BDE4              ; A
   23+BDE4              ; 440.00
   24+BDE4              ; A sharp
   25+BDE4              ; 466.16
   26+BDE4              ; B
   27+BDE4              ; 493.88
   28+BDE4              ;
   29+BDE4              ; Octave higher = double frequency
   30+BDE4              ;
   31+BDE4              ;DE = Duration = Frequency * Seconds
   32+BDE4              ;HL = Pitch = 437500 / Frequency - 30.125
   33+BDE4
   34+BDE4
   35+BDE4
   36+BDE4
   37+BDE4              ;NOTES:
   38+BDE4              ;DE = Duration = Frequency * Seconds
   39+BDE4              ;HL = Pitch = 437500 / Frequency - 30.125
   40+BDE4
   41+BDE4              sound_GSharp_0_05:
   42+BDE4 11 15 00         ld de,21
   43+BDE7 21 FF 03         ld hl,1023
   44+BDEA CD B5 03         call 0x3b5
   45+BDED C9               ret
   46+BDEE
   47+BDEE
   48+BDEE              sound_GSharp_0_25: ;GSharp, 0.25 seconds
   49+BDEE 21 F1 01         ld hl,497 ;sound pitch
   50+BDF1 11 D0 00         ld de,208 ;sound 'duration'
   51+BDF4 CD B5 03         call 0x3b5 ;ROM beeper routine
   52+BDF7 C9               ret
   53+BDF8
   54+BDF8              sound_A_0_25:
   55+BDF8 21 6E 00         ld hl,110 ;sound pitch
   56+BDFB 11 C4 03         ld de,964 ;sound 'duration'
   57+BDFE CD B5 03         call 0x3b5 ;ROM beeper routine
   58+BE01 C9               ret
   59+BE02
   60+BE02              sound_B_0_25:
   61+BE02 21 7B 00         ld hl,123 ;sound pitch
   62+BE05 11 58 03         ld de,856 ;sound 'duration'
   63+BE08 CD B5 03         call 0x3b5 ;ROM beeper routine
   64+BE0B C9               ret
   65+BE0C
   66+BE0C              ; sound_F_0_25:
   67+BE0C              ;     ld hl,87 ;sound pitch
   68+BE0C              ;     ld de,1223 ;sound 'duration'
   69+BE0C              ;     call 0x3b5 ;ROM beeper routine
   70+BE0C              ;     ret
   71+BE0C
   72+BE0C              ; sound_F_0_50:
   73+BE0C              ;     ld hl,176 ;sound pitch
   74+BE0C              ;     ld de,856 ;sound 'duration'
   75+BE0C              ;     call 0x3b5 ;ROM beeper routine
   76+BE0C              ;     ret
   77+BE0C
   78+BE0C              ; sound_G_0_125: ;G, 0.125secs
   79+BE0C              ;     ld hl,49 ;sound pitch
   80+BE0C              ;     ld de,1086 ;sound 'duration'
   81+BE0C              ;     call 0x3b5 ;ROM beeper routine
   82+BE0C              ;     ret
   83+BE0C
   84+BE0C              ; sound_G_0_25: ;G, 0.25secs
   85+BE0C              ;     ld hl,98 ;sound pitch
   86+BE0C              ;     ld de,1086 ;sound 'duration'
   87+BE0C              ;     call 0x3b5 ;ROM beeper routine
   88+BE0C              ;     ret
   89+BE0C
   90+BE0C              ; sound_G_0_375: ;G, 0.375secs
   91+BE0C              ;     ld hl,147 ;sound pitch
   92+BE0C              ;     ld de,1086 ;sound 'duration'
   93+BE0C              ;     call 0x3b5 ;ROM beeper routine
   94+BE0C              ;     ret
   95+BE0C
   96+BE0C              ; sound_G_0_5: ;G, 0.5secs
   97+BE0C              ;     ld hl,196 ;sound pitch
   98+BE0C              ;     ld de,1086 ;sound 'duration'
   99+BE0C              ;     call 0x3b5 ;ROM beeper routine
  100+BE0C              ;     ret
  101+BE0C
# file closed: retrohelpers/sounds.asm
   46 BE0C                  include 'retrohelpers\spritedrawing.asm'
# file opened: retrohelpers/spritedrawing.asm
    1+BE0C              ;draws a sprite specified size
    2+BE0C              ;ie. drawspritex_y:
    3+BE0C
    4+BE0C
    5+BE0C
    6+BE0C
    7+BE0C
    8+BE0C
    9+BE0C
   10+BE0C
   11+BE0C
   12+BE0C
   13+BE0C
   14+BE0C
   15+BE0C
   16+BE0C
   17+BE0C
   18+BE0C
   19+BE0C
   20+BE0C
   21+BE0C
   22+BE0C              ;;Window Width of 24....
   23+BE0C              ;INPUTS:
   24+BE0C              ;wwidth=24
   25+BE0C              ;IX=current star
   26+BE0C              ;DE=xy
   27+BE0C              drawstarsprite:
   28+BE0C 21 00 00         ld hl,0
   29+BE0F 7B               ld a,e
   30+BE10 6F               ld l,a
   31+BE11 29               add hl,hl ;HL= y*2
   32+BE12 29               add hl,hl ;HL= y*4
   33+BE13 D5               push de
   34+BE14 E5               push hl
   35+BE15 D1               pop de ;DE=y*4
   36+BE16 29               add hl,hl ;HL= y*8
   37+BE17 C5               push bc
   38+BE18 E5               push hl
   39+BE19 C1               pop bc ;BC=y*8
   40+BE1A 29               add hl,hl
   41+BE1B 09               add hl,bc ;HL=y*24
   42+BE1C 19               add hl,de ;HL=y*28
   43+BE1D C1               pop bc
   44+BE1E D1               pop de
   45+BE1F 5A               ld e,d
   46+BE20 16 00            ld d,0
   47+BE22 19               add hl,de ;HL+=x
   48+BE23 11 00 80         ld de,GAME_WINDOW_START
   49+BE26 19               add hl,de ;HL+=memstart
   50+BE27                  ;start drawing bytes...
   51+BE27                  ;0,0
   52+BE27 DD 7E 03         ld a,(ix+3)
   53+BE2A 77               ld (hl),a
   54+BE2B C9               ret
   55+BE2C
   56+BE2C
   57+BE2C
   58+BE2C
   59+BE2C
   60+BE2C
   61+BE2C
   62+BE2C
   63+BE2C
   64+BE2C
   65+BE2C
   66+BE2C
   67+BE2C
   68+BE2C
   69+BE2C
   70+BE2C
   71+BE2C
   72+BE2C
   73+BE2C
   74+BE2C
   75+BE2C
   76+BE2C
   77+BE2C
   78+BE2C
   79+BE2C
   80+BE2C
   81+BE2C
   82+BE2C
   83+BE2C              ;;Window Width of 24....
   84+BE2C              ;INPUTS:
   85+BE2C              ;wwidth=24
   86+BE2C              ;BC=sprite pointer
   87+BE2C              ;DE=xy
   88+BE2C              drawsprite8_2:
   89+BE2C 21 00 00         ld hl,0
   90+BE2F 7B               ld a,e
   91+BE30 6F               ld l,a
   92+BE31 29               add hl,hl ;HL= y*2
   93+BE32 29               add hl,hl ;HL= y*4
   94+BE33 D5               push de
   95+BE34 E5               push hl
   96+BE35 D1               pop de ;DE=y*4
   97+BE36 29               add hl,hl ;HL= y*8
   98+BE37 C5               push bc
   99+BE38 E5               push hl
  100+BE39 C1               pop bc ;BC=y*8
  101+BE3A 29               add hl,hl
  102+BE3B 09               add hl,bc ;HL=y*24
  103+BE3C 19               add hl,de ;HL=y*28
  104+BE3D C1               pop bc
  105+BE3E D1               pop de
  106+BE3F 5A               ld e,d
  107+BE40 16 00            ld d,0
  108+BE42 19               add hl,de ;HL+=x
  109+BE43 11 00 80         ld de,GAME_WINDOW_START
  110+BE46 19               add hl,de ;HL+=memstart
  111+BE47                  ;start drawing bytes...
  112+BE47                  ;0,0
  113+BE47 0A               ld a,(bc)
  114+BE48 56               ld d,(hl)
  115+BE49 B2               or d
  116+BE4A 77               ld (hl),a
  117+BE4B 03               inc bc
  118+BE4C 11 1C 00         ld de,BUFFER_WINDOW_WIDTH
  119+BE4F 19               add hl,de ;increment HL pointer by wwidth
  120+BE50                  ;0,
  121+BE50 0A               ld a,(bc)
  122+BE51 56               ld d,(hl)
  123+BE52 B2               or d
  124+BE53 77               ld (hl),a
  125+BE54
  126+BE54 C9               ret
  127+BE55
  128+BE55
  129+BE55
  130+BE55
  131+BE55
  132+BE55
  133+BE55
  134+BE55
  135+BE55
  136+BE55
  137+BE55
  138+BE55
  139+BE55
  140+BE55
  141+BE55
  142+BE55
  143+BE55
  144+BE55
  145+BE55
  146+BE55
  147+BE55
  148+BE55
  149+BE55
  150+BE55              ;INPUTS:
  151+BE55              ;wwidth=24
  152+BE55              ;BC=sprite pointer
  153+BE55              ;DE=xy
  154+BE55              drawplayer16_24:
  155+BE55 21 00 00         ld hl,0
  156+BE58 7B               ld a,e
  157+BE59 6F               ld l,a
  158+BE5A 29               add hl,hl ;HL= y*2
  159+BE5B 29               add hl,hl ;HL= y*4
  160+BE5C D5               push de
  161+BE5D E5               push hl
  162+BE5E D1               pop de ;DE=y*4
  163+BE5F 29               add hl,hl ;HL= y*8
  164+BE60 C5               push bc
  165+BE61 E5               push hl
  166+BE62 C1               pop bc ;BC=y*8
  167+BE63 29               add hl,hl
  168+BE64 09               add hl,bc ;HL=y*24
  169+BE65 19               add hl,de ;HL=y*28
  170+BE66 C1               pop bc
  171+BE67 D1               pop de
  172+BE68 5A               ld e,d
  173+BE69 16 00            ld d,0
  174+BE6B 19               add hl,de ;HL+=x
  175+BE6C 11 00 80         ld de,GAME_WINDOW_START
  176+BE6F 19               add hl,de ;HL+=memstart
  177+BE70                  ;start drawing bytes...
  178+BE70                  ;0,0
  179+BE70
  180+BE70
  181+BE70 0A               ld a,(bc)
  182+BE71 56               ld d,(hl)
  183+BE72 B2               or d
  184+BE73 77               ld (hl),a
  185+BE74 03               inc bc
  186+BE75 23               inc hl
  187+BE76                  ;1,0
  188+BE76 0A               ld a,(bc)
  189+BE77 56               ld d,(hl)
  190+BE78 B2               or d
  191+BE79 77               ld (hl),a
  192+BE7A 03               inc bc
  193+BE7B
  194+BE7B 11 1B 00         ld de,BUFFER_WINDOW_WIDTH-1
  195+BE7E 19               add hl,de ;increment HL pointer by wwidth
  196+BE7F                  ;0,1
  197+BE7F 0A               ld a,(bc)
  198+BE80 56               ld d,(hl)
  199+BE81 B2               or d
  200+BE82 77               ld (hl),a
  201+BE83 03               inc bc
  202+BE84 23               inc hl
  203+BE85                  ;1,1
  204+BE85 0A               ld a,(bc)
  205+BE86 56               ld d,(hl)
  206+BE87 B2               or d
  207+BE88 77               ld (hl),a
  208+BE89 03               inc bc
  209+BE8A
  210+BE8A 11 1B 00         ld de,BUFFER_WINDOW_WIDTH-1
  211+BE8D 19               add hl,de ;increment HL pointer
  212+BE8E                  ;0,2
  213+BE8E 0A               ld a,(bc)
  214+BE8F 56               ld d,(hl)
  215+BE90 B2               or d
  216+BE91 77               ld (hl),a
  217+BE92 03               inc bc
  218+BE93 23               inc hl
  219+BE94                  ;1,2
  220+BE94 0A               ld a,(bc)
  221+BE95 56               ld d,(hl)
  222+BE96 B2               or d
  223+BE97 77               ld (hl),a
  224+BE98 03               inc bc
  225+BE99
  226+BE99 11 1B 00         ld de,BUFFER_WINDOW_WIDTH-1
  227+BE9C 19               add hl,de ;increment HL pointer
  228+BE9D                  ;0,3
  229+BE9D 0A               ld a,(bc)
  230+BE9E 56               ld d,(hl)
  231+BE9F B2               or d
  232+BEA0 77               ld (hl),a
  233+BEA1 03               inc bc
  234+BEA2 23               inc hl
  235+BEA3                  ;1,3
  236+BEA3 0A               ld a,(bc)
  237+BEA4 56               ld d,(hl)
  238+BEA5 B2               or d
  239+BEA6 77               ld (hl),a
  240+BEA7 03               inc bc
  241+BEA8
  242+BEA8 11 1B 00         ld de,BUFFER_WINDOW_WIDTH-1
  243+BEAB 19               add hl,de ;increment HL pointer
  244+BEAC                  ;0,4
  245+BEAC 0A               ld a,(bc)
  246+BEAD 56               ld d,(hl)
  247+BEAE B2               or d
  248+BEAF 77               ld (hl),a
  249+BEB0 03               inc bc
  250+BEB1 23               inc hl
  251+BEB2                  ;1,4
  252+BEB2 0A               ld a,(bc)
  253+BEB3 56               ld d,(hl)
  254+BEB4 B2               or d
  255+BEB5 77               ld (hl),a
  256+BEB6 03               inc bc
  257+BEB7
  258+BEB7 11 1B 00         ld de,BUFFER_WINDOW_WIDTH-1
  259+BEBA 19               add hl,de ;increment HL pointer
  260+BEBB                  ;0,5
  261+BEBB 0A               ld a,(bc)
  262+BEBC 56               ld d,(hl)
  263+BEBD B2               or d
  264+BEBE 77               ld (hl),a
  265+BEBF 03               inc bc
  266+BEC0 23               inc hl
  267+BEC1                  ;1,5
  268+BEC1 0A               ld a,(bc)
  269+BEC2 56               ld d,(hl)
  270+BEC3 B2               or d
  271+BEC4 77               ld (hl),a
  272+BEC5 03               inc bc
  273+BEC6
  274+BEC6 11 1B 00         ld de,BUFFER_WINDOW_WIDTH-1
  275+BEC9 19               add hl,de ;increment HL pointer
  276+BECA                  ;0,6
  277+BECA 0A               ld a,(bc)
  278+BECB 56               ld d,(hl)
  279+BECC B2               or d
  280+BECD 77               ld (hl),a
  281+BECE 03               inc bc
  282+BECF 23               inc hl
  283+BED0                  ;1,6
  284+BED0 0A               ld a,(bc)
  285+BED1 56               ld d,(hl)
  286+BED2 B2               or d
  287+BED3 77               ld (hl),a
  288+BED4 03               inc bc
  289+BED5
  290+BED5 11 1B 00         ld de,BUFFER_WINDOW_WIDTH-1
  291+BED8 19               add hl,de ;increment HL pointer
  292+BED9                  ;0,7
  293+BED9 0A               ld a,(bc)
  294+BEDA 56               ld d,(hl)
  295+BEDB B2               or d
  296+BEDC 77               ld (hl),a
  297+BEDD 03               inc bc
  298+BEDE 23               inc hl
  299+BEDF                  ;1,7
  300+BEDF 0A               ld a,(bc)
  301+BEE0 56               ld d,(hl)
  302+BEE1 B2               or d
  303+BEE2 77               ld (hl),a
  304+BEE3 03               inc bc
  305+BEE4
  306+BEE4 11 1B 00         ld de,BUFFER_WINDOW_WIDTH-1
  307+BEE7 19               add hl,de ;increment HL pointer
  308+BEE8                  ;0,8
  309+BEE8 0A               ld a,(bc)
  310+BEE9 56               ld d,(hl)
  311+BEEA B2               or d
  312+BEEB 77               ld (hl),a
  313+BEEC 03               inc bc
  314+BEED 23               inc hl
  315+BEEE                  ;1,8
  316+BEEE 0A               ld a,(bc)
  317+BEEF 56               ld d,(hl)
  318+BEF0 B2               or d
  319+BEF1 77               ld (hl),a
  320+BEF2 03               inc bc
  321+BEF3
  322+BEF3 11 1B 00         ld de,BUFFER_WINDOW_WIDTH-1
  323+BEF6 19               add hl,de ;increment HL pointer
  324+BEF7                  ;0,9
  325+BEF7 0A               ld a,(bc)
  326+BEF8 56               ld d,(hl)
  327+BEF9 B2               or d
  328+BEFA 77               ld (hl),a
  329+BEFB 03               inc bc
  330+BEFC 23               inc hl
  331+BEFD                  ;1,9
  332+BEFD 0A               ld a,(bc)
  333+BEFE 56               ld d,(hl)
  334+BEFF B2               or d
  335+BF00 77               ld (hl),a
  336+BF01 03               inc bc
  337+BF02
  338+BF02 11 1B 00         ld de,BUFFER_WINDOW_WIDTH-1
  339+BF05 19               add hl,de ;increment HL pointer
  340+BF06                  ;0,10
  341+BF06 0A               ld a,(bc)
  342+BF07 56               ld d,(hl)
  343+BF08 B2               or d
  344+BF09 77               ld (hl),a
  345+BF0A 03               inc bc
  346+BF0B 23               inc hl
  347+BF0C                  ;1,10
  348+BF0C 0A               ld a,(bc)
  349+BF0D 56               ld d,(hl)
  350+BF0E B2               or d
  351+BF0F 77               ld (hl),a
  352+BF10 03               inc bc
  353+BF11
  354+BF11 11 1B 00         ld de,BUFFER_WINDOW_WIDTH-1
  355+BF14 19               add hl,de ;increment HL pointer
  356+BF15                  ;0,11
  357+BF15 0A               ld a,(bc)
  358+BF16 56               ld d,(hl)
  359+BF17 B2               or d
  360+BF18 77               ld (hl),a
  361+BF19 03               inc bc
  362+BF1A 23               inc hl
  363+BF1B                  ;1,11
  364+BF1B 0A               ld a,(bc)
  365+BF1C 56               ld d,(hl)
  366+BF1D B2               or d
  367+BF1E 77               ld (hl),a
  368+BF1F 03               inc bc
  369+BF20
  370+BF20 11 1B 00         ld de,BUFFER_WINDOW_WIDTH-1
  371+BF23 19               add hl,de ;increment HL pointer
  372+BF24                  ;0,12
  373+BF24 0A               ld a,(bc)
  374+BF25 56               ld d,(hl)
  375+BF26 B2               or d
  376+BF27 77               ld (hl),a
  377+BF28 03               inc bc
  378+BF29 23               inc hl
  379+BF2A                  ;1,12
  380+BF2A 0A               ld a,(bc)
  381+BF2B 56               ld d,(hl)
  382+BF2C B2               or d
  383+BF2D 77               ld (hl),a
  384+BF2E 03               inc bc
  385+BF2F
  386+BF2F 11 1B 00         ld de,BUFFER_WINDOW_WIDTH-1
  387+BF32 19               add hl,de ;increment HL pointer
  388+BF33                  ;0,13
  389+BF33 0A               ld a,(bc)
  390+BF34 56               ld d,(hl)
  391+BF35 B2               or d
  392+BF36 77               ld (hl),a
  393+BF37 03               inc bc
  394+BF38 23               inc hl
  395+BF39                  ;1,13
  396+BF39 0A               ld a,(bc)
  397+BF3A 56               ld d,(hl)
  398+BF3B B2               or d
  399+BF3C 77               ld (hl),a
  400+BF3D 03               inc bc
  401+BF3E
  402+BF3E 11 1B 00         ld de,BUFFER_WINDOW_WIDTH-1
  403+BF41 19               add hl,de ;increment HL pointer
  404+BF42                  ;0,14
  405+BF42 0A               ld a,(bc)
  406+BF43 56               ld d,(hl)
  407+BF44 B2               or d
  408+BF45 77               ld (hl),a
  409+BF46 03               inc bc
  410+BF47 23               inc hl
  411+BF48                  ;1,14
  412+BF48 0A               ld a,(bc)
  413+BF49 56               ld d,(hl)
  414+BF4A B2               or d
  415+BF4B 77               ld (hl),a
  416+BF4C 03               inc bc
  417+BF4D
  418+BF4D 11 1B 00         ld de,BUFFER_WINDOW_WIDTH-1
  419+BF50 19               add hl,de ;increment HL pointer
  420+BF51                  ;0,15
  421+BF51 0A               ld a,(bc)
  422+BF52 56               ld d,(hl)
  423+BF53 B2               or d
  424+BF54 77               ld (hl),a
  425+BF55 03               inc bc
  426+BF56 23               inc hl
  427+BF57                  ;1,15
  428+BF57 0A               ld a,(bc)
  429+BF58 56               ld d,(hl)
  430+BF59 B2               or d
  431+BF5A 77               ld (hl),a
  432+BF5B 03               inc bc
  433+BF5C
  434+BF5C 11 1B 00         ld de,BUFFER_WINDOW_WIDTH-1
  435+BF5F 19               add hl,de ;increment HL pointer
  436+BF60                  ;0,16
  437+BF60 0A               ld a,(bc)
  438+BF61 56               ld d,(hl)
  439+BF62 B2               or d
  440+BF63 77               ld (hl),a
  441+BF64 03               inc bc
  442+BF65 23               inc hl
  443+BF66                  ;1,16
  444+BF66 0A               ld a,(bc)
  445+BF67 56               ld d,(hl)
  446+BF68 B2               or d
  447+BF69 77               ld (hl),a
  448+BF6A 03               inc bc
  449+BF6B
  450+BF6B 11 1B 00         ld de,BUFFER_WINDOW_WIDTH-1
  451+BF6E 19               add hl,de ;increment HL pointer
  452+BF6F                  ;0,17
  453+BF6F 0A               ld a,(bc)
  454+BF70 56               ld d,(hl)
  455+BF71 B2               or d
  456+BF72 77               ld (hl),a
  457+BF73 03               inc bc
  458+BF74 23               inc hl
  459+BF75                  ;1,17
  460+BF75 0A               ld a,(bc)
  461+BF76 56               ld d,(hl)
  462+BF77 B2               or d
  463+BF78 77               ld (hl),a
  464+BF79 03               inc bc
  465+BF7A
  466+BF7A 11 1B 00         ld de,BUFFER_WINDOW_WIDTH-1
  467+BF7D 19               add hl,de ;increment HL pointer
  468+BF7E                  ;0,18
  469+BF7E 0A               ld a,(bc)
  470+BF7F 56               ld d,(hl)
  471+BF80 B2               or d
  472+BF81 77               ld (hl),a
  473+BF82 03               inc bc
  474+BF83 23               inc hl
  475+BF84                  ;1,18
  476+BF84 0A               ld a,(bc)
  477+BF85 56               ld d,(hl)
  478+BF86 B2               or d
  479+BF87 77               ld (hl),a
  480+BF88 03               inc bc
  481+BF89
  482+BF89 11 1B 00         ld de,BUFFER_WINDOW_WIDTH-1
  483+BF8C 19               add hl,de ;increment HL pointer
  484+BF8D                  ;0,19
  485+BF8D 0A               ld a,(bc)
  486+BF8E 56               ld d,(hl)
  487+BF8F B2               or d
  488+BF90 77               ld (hl),a
  489+BF91 03               inc bc
  490+BF92 23               inc hl
  491+BF93                  ;1,19
  492+BF93 0A               ld a,(bc)
  493+BF94 56               ld d,(hl)
  494+BF95 B2               or d
  495+BF96 77               ld (hl),a
  496+BF97 03               inc bc
  497+BF98
  498+BF98 11 1B 00         ld de,BUFFER_WINDOW_WIDTH-1
  499+BF9B 19               add hl,de ;increment HL pointer
  500+BF9C                  ;0,20
  501+BF9C 0A               ld a,(bc)
  502+BF9D 56               ld d,(hl)
  503+BF9E B2               or d
  504+BF9F 77               ld (hl),a
  505+BFA0 03               inc bc
  506+BFA1 23               inc hl
  507+BFA2                  ;1,20
  508+BFA2 0A               ld a,(bc)
  509+BFA3 56               ld d,(hl)
  510+BFA4 B2               or d
  511+BFA5 77               ld (hl),a
  512+BFA6 03               inc bc
  513+BFA7
  514+BFA7 11 1B 00         ld de,BUFFER_WINDOW_WIDTH-1
  515+BFAA 19               add hl,de ;increment HL pointer
  516+BFAB                  ;0,21
  517+BFAB 0A               ld a,(bc)
  518+BFAC 56               ld d,(hl)
  519+BFAD B2               or d
  520+BFAE 77               ld (hl),a
  521+BFAF 03               inc bc
  522+BFB0 23               inc hl
  523+BFB1                  ;1,21
  524+BFB1 0A               ld a,(bc)
  525+BFB2 56               ld d,(hl)
  526+BFB3 B2               or d
  527+BFB4 77               ld (hl),a
  528+BFB5 03               inc bc
  529+BFB6
  530+BFB6 11 1B 00         ld de,BUFFER_WINDOW_WIDTH-1
  531+BFB9 19               add hl,de ;increment HL pointer
  532+BFBA                  ;0,22
  533+BFBA 0A               ld a,(bc)
  534+BFBB 56               ld d,(hl)
  535+BFBC B2               or d
  536+BFBD 77               ld (hl),a
  537+BFBE 03               inc bc
  538+BFBF 23               inc hl
  539+BFC0                  ;1,22
  540+BFC0 0A               ld a,(bc)
  541+BFC1 56               ld d,(hl)
  542+BFC2 B2               or d
  543+BFC3 77               ld (hl),a
  544+BFC4 03               inc bc
  545+BFC5
  546+BFC5 11 1B 00         ld de,BUFFER_WINDOW_WIDTH-1
  547+BFC8 19               add hl,de ;increment HL pointer
  548+BFC9                  ;0,23
  549+BFC9 0A               ld a,(bc)
  550+BFCA 56               ld d,(hl)
  551+BFCB B2               or d
  552+BFCC 77               ld (hl),a
  553+BFCD 03               inc bc
  554+BFCE 23               inc hl
  555+BFCF                  ;1,23
  556+BFCF 0A               ld a,(bc)
  557+BFD0 56               ld d,(hl)
  558+BFD1 B2               or d
  559+BFD2 77               ld (hl),a
  560+BFD3 03               inc bc
  561+BFD4
  562+BFD4 11 1B 00         ld de,BUFFER_WINDOW_WIDTH-1
  563+BFD7 19               add hl,de ;increment HL pointer
  564+BFD8 C9               ret
  565+BFD9              ;
  566+BFD9
  567+BFD9              ;;Window Width of 24....
  568+BFD9              ;INPUTS:
  569+BFD9              ;wwidth=24
  570+BFD9              ;BC=sprite pointer
  571+BFD9              ;DE=xy
  572+BFD9              drawsprite8_8:
  573+BFD9 21 00 00         ld hl,0
  574+BFDC 7B               ld a,e
  575+BFDD 6F               ld l,a
  576+BFDE 29               add hl,hl ;HL= y*2
  577+BFDF 29               add hl,hl ;HL= y*4
  578+BFE0 D5               push de
  579+BFE1 E5               push hl
  580+BFE2 D1               pop de ;DE=y*4
  581+BFE3 29               add hl,hl ;HL= y*8
  582+BFE4 C5               push bc
  583+BFE5 E5               push hl
  584+BFE6 C1               pop bc ;BC=y*8
  585+BFE7 29               add hl,hl
  586+BFE8 09               add hl,bc ;HL=y*24
  587+BFE9 19               add hl,de ;HL=y*28
  588+BFEA C1               pop bc
  589+BFEB D1               pop de
  590+BFEC 5A               ld e,d
  591+BFED 16 00            ld d,0
  592+BFEF 19               add hl,de ;HL+=x
  593+BFF0 11 00 80         ld de,GAME_WINDOW_START
  594+BFF3 19               add hl,de ;HL+=memstart
  595+BFF4                  ;start drawing bytes...
  596+BFF4                  ;0,0
  597+BFF4 0A               ld a,(bc)
  598+BFF5 56               ld d,(hl)
  599+BFF6 B2               or d
  600+BFF7 77               ld (hl),a
  601+BFF8 03               inc bc
  602+BFF9 11 1C 00         ld de,BUFFER_WINDOW_WIDTH
  603+BFFC 19               add hl,de ;increment HL pointer by wwidth
  604+BFFD                  ;0,
  605+BFFD 0A               ld a,(bc)
  606+BFFE 56               ld d,(hl)
  607+BFFF B2               or d
  608+C000 77               ld (hl),a
  609+C001 03               inc bc
  610+C002 11 1C 00         ld de,BUFFER_WINDOW_WIDTH
  611+C005 19               add hl,de ;increment HL pointer by wwidth
  612+C006                  ;0,
  613+C006 0A               ld a,(bc)
  614+C007 56               ld d,(hl)
  615+C008 B2               or d
  616+C009 77               ld (hl),a
  617+C00A 03               inc bc
  618+C00B 11 1C 00         ld de,BUFFER_WINDOW_WIDTH
  619+C00E 19               add hl,de ;increment HL pointer by wwidth
  620+C00F                  ;0,
  621+C00F 0A               ld a,(bc)
  622+C010 56               ld d,(hl)
  623+C011 B2               or d
  624+C012 77               ld (hl),a
  625+C013 03               inc bc
  626+C014 11 1C 00         ld de,BUFFER_WINDOW_WIDTH
  627+C017 19               add hl,de ;increment HL pointer by wwidth
  628+C018                  ;0,
  629+C018 0A               ld a,(bc)
  630+C019 56               ld d,(hl)
  631+C01A B2               or d
  632+C01B 77               ld (hl),a
  633+C01C 03               inc bc
  634+C01D 11 1C 00         ld de,BUFFER_WINDOW_WIDTH
  635+C020 19               add hl,de ;increment HL pointer by wwidth
  636+C021                  ;0,
  637+C021 0A               ld a,(bc)
  638+C022 56               ld d,(hl)
  639+C023 B2               or d
  640+C024 77               ld (hl),a
  641+C025 03               inc bc
  642+C026 11 1C 00         ld de,BUFFER_WINDOW_WIDTH
  643+C029 19               add hl,de ;increment HL pointer by wwidth
  644+C02A                  ;0,
  645+C02A 0A               ld a,(bc)
  646+C02B 56               ld d,(hl)
  647+C02C B2               or d
  648+C02D 77               ld (hl),a
  649+C02E 03               inc bc
  650+C02F 11 1C 00         ld de,BUFFER_WINDOW_WIDTH
  651+C032 19               add hl,de ;increment HL pointer by wwidth
  652+C033                  ;0,7
  653+C033 0A               ld a,(bc)
  654+C034 56               ld d,(hl)
  655+C035 B2               or d
  656+C036 77               ld (hl),a
  657+C037
  658+C037
  659+C037 C9               ret
  660+C038              ;
  661+C038
  662+C038              ;;Window Width of 24....
  663+C038              ;INPUTS:
  664+C038              ;wwidth=24
  665+C038              ;BC=sprite pointer
  666+C038              ;DE=xy
  667+C038              drawsprite8_8_shiftleft1:
  668+C038 21 00 00         ld hl,0
  669+C03B 7B               ld a,e
  670+C03C 6F               ld l,a
  671+C03D 29               add hl,hl ;HL= y*2
  672+C03E 29               add hl,hl ;HL= y*4
  673+C03F D5               push de
  674+C040 E5               push hl
  675+C041 D1               pop de ;DE=y*4
  676+C042 29               add hl,hl ;HL= y*8
  677+C043 C5               push bc
  678+C044 E5               push hl
  679+C045 C1               pop bc ;BC=y*8
  680+C046 29               add hl,hl
  681+C047 09               add hl,bc ;HL=y*24
  682+C048 19               add hl,de ;HL=y*28
  683+C049 C1               pop bc
  684+C04A D1               pop de
  685+C04B 5A               ld e,d
  686+C04C 16 00            ld d,0
  687+C04E 19               add hl,de ;HL+=x
  688+C04F 11 00 80         ld de,GAME_WINDOW_START
  689+C052 19               add hl,de ;HL+=memstart
  690+C053                  ;start drawing bytes...
  691+C053                  ;0,0
  692+C053 0A               ld a,(bc)
  693+C054 CB 27            sla a
  694+C056 56               ld d,(hl)
  695+C057 B2               or d
  696+C058 77               ld (hl),a
  697+C059 03               inc bc
  698+C05A 11 1C 00         ld de,BUFFER_WINDOW_WIDTH
  699+C05D 19               add hl,de ;increment HL pointer by wwidth
  700+C05E                  ;0,
  701+C05E 0A               ld a,(bc)
  702+C05F CB 27            sla a
  703+C061 56               ld d,(hl)
  704+C062 B2               or d
  705+C063 77               ld (hl),a
  706+C064 03               inc bc
  707+C065 11 1C 00         ld de,BUFFER_WINDOW_WIDTH
  708+C068 19               add hl,de ;increment HL pointer by wwidth
  709+C069                  ;0,
  710+C069 0A               ld a,(bc)
  711+C06A CB 27            sla a
  712+C06C 56               ld d,(hl)
  713+C06D B2               or d
  714+C06E 77               ld (hl),a
  715+C06F 03               inc bc
  716+C070 11 1C 00         ld de,BUFFER_WINDOW_WIDTH
  717+C073 19               add hl,de ;increment HL pointer by wwidth
  718+C074                  ;0,
  719+C074 0A               ld a,(bc)
  720+C075 CB 27            sla a
  721+C077 56               ld d,(hl)
  722+C078 B2               or d
  723+C079 77               ld (hl),a
  724+C07A 03               inc bc
  725+C07B 11 1C 00         ld de,BUFFER_WINDOW_WIDTH
  726+C07E 19               add hl,de ;increment HL pointer by wwidth
  727+C07F                  ;0,
  728+C07F 0A               ld a,(bc)
  729+C080 CB 27            sla a
  730+C082 56               ld d,(hl)
  731+C083 B2               or d
  732+C084 77               ld (hl),a
  733+C085 03               inc bc
  734+C086 11 1C 00         ld de,BUFFER_WINDOW_WIDTH
  735+C089 19               add hl,de ;increment HL pointer by wwidth
  736+C08A                  ;0,
  737+C08A 0A               ld a,(bc)
  738+C08B CB 27            sla a
  739+C08D 56               ld d,(hl)
  740+C08E B2               or d
  741+C08F 77               ld (hl),a
  742+C090 03               inc bc
  743+C091 11 1C 00         ld de,BUFFER_WINDOW_WIDTH
  744+C094 19               add hl,de ;increment HL pointer by wwidth
  745+C095                  ;0,
  746+C095 0A               ld a,(bc)
  747+C096 CB 27            sla a
  748+C098 56               ld d,(hl)
  749+C099 B2               or d
  750+C09A 77               ld (hl),a
  751+C09B 03               inc bc
  752+C09C 11 1C 00         ld de,BUFFER_WINDOW_WIDTH
  753+C09F 19               add hl,de ;increment HL pointer by wwidth
  754+C0A0                  ;0,7
  755+C0A0 0A               ld a,(bc)
  756+C0A1 CB 27            sla a
  757+C0A3 56               ld d,(hl)
  758+C0A4 B2               or d
  759+C0A5 77               ld (hl),a
  760+C0A6
  761+C0A6
  762+C0A6 C9               ret
  763+C0A7              ;
  764+C0A7
  765+C0A7
  766+C0A7
  767+C0A7
  768+C0A7
  769+C0A7              ;;Window Width of 24....
  770+C0A7              ;INPUTS:
  771+C0A7              ;wwidth=24
  772+C0A7              ;BC=sprite pointer
  773+C0A7              ;DE=xy
  774+C0A7              drawsprite8_16:
  775+C0A7 21 00 00         ld hl,0
  776+C0AA 7B               ld a,e
  777+C0AB 6F               ld l,a
  778+C0AC 29               add hl,hl ;HL= y*2
  779+C0AD 29               add hl,hl ;HL= y*4
  780+C0AE D5               push de
  781+C0AF E5               push hl
  782+C0B0 D1               pop de ;DE=y*4
  783+C0B1 29               add hl,hl ;HL= y*8
  784+C0B2 C5               push bc
  785+C0B3 E5               push hl
  786+C0B4 C1               pop bc ;BC=y*8
  787+C0B5 29               add hl,hl
  788+C0B6 09               add hl,bc ;HL=y*24
  789+C0B7 19               add hl,de ;HL=y*28
  790+C0B8 C1               pop bc
  791+C0B9 D1               pop de
  792+C0BA 5A               ld e,d
  793+C0BB 16 00            ld d,0
  794+C0BD 19               add hl,de ;HL+=x
  795+C0BE 11 00 80         ld de,GAME_WINDOW_START
  796+C0C1 19               add hl,de ;HL+=memstart
  797+C0C2                  ;start drawing bytes...
  798+C0C2                  ;0,0
  799+C0C2 0A               ld a,(bc)
  800+C0C3 56               ld d,(hl)
  801+C0C4 B2               or d
  802+C0C5 77               ld (hl),a
  803+C0C6 03               inc bc
  804+C0C7 11 1C 00         ld de,BUFFER_WINDOW_WIDTH
  805+C0CA 19               add hl,de ;increment HL pointer by wwidth
  806+C0CB                  ;0,
  807+C0CB 0A               ld a,(bc)
  808+C0CC 56               ld d,(hl)
  809+C0CD B2               or d
  810+C0CE 77               ld (hl),a
  811+C0CF 03               inc bc
  812+C0D0 11 1C 00         ld de,BUFFER_WINDOW_WIDTH
  813+C0D3 19               add hl,de ;increment HL pointer by wwidth
  814+C0D4                  ;0,
  815+C0D4 0A               ld a,(bc)
  816+C0D5 56               ld d,(hl)
  817+C0D6 B2               or d
  818+C0D7 77               ld (hl),a
  819+C0D8 03               inc bc
  820+C0D9 11 1C 00         ld de,BUFFER_WINDOW_WIDTH
  821+C0DC 19               add hl,de ;increment HL pointer by wwidth
  822+C0DD                  ;0,
  823+C0DD 0A               ld a,(bc)
  824+C0DE 56               ld d,(hl)
  825+C0DF B2               or d
  826+C0E0 77               ld (hl),a
  827+C0E1 03               inc bc
  828+C0E2 11 1C 00         ld de,BUFFER_WINDOW_WIDTH
  829+C0E5 19               add hl,de ;increment HL pointer by wwidth
  830+C0E6                  ;0,
  831+C0E6 0A               ld a,(bc)
  832+C0E7 56               ld d,(hl)
  833+C0E8 B2               or d
  834+C0E9 77               ld (hl),a
  835+C0EA 03               inc bc
  836+C0EB 11 1C 00         ld de,BUFFER_WINDOW_WIDTH
  837+C0EE 19               add hl,de ;increment HL pointer by wwidth
  838+C0EF                  ;0,
  839+C0EF 0A               ld a,(bc)
  840+C0F0 56               ld d,(hl)
  841+C0F1 B2               or d
  842+C0F2 77               ld (hl),a
  843+C0F3 03               inc bc
  844+C0F4 11 1C 00         ld de,BUFFER_WINDOW_WIDTH
  845+C0F7 19               add hl,de ;increment HL pointer by wwidth
  846+C0F8                  ;0,
  847+C0F8 0A               ld a,(bc)
  848+C0F9 56               ld d,(hl)
  849+C0FA B2               or d
  850+C0FB 77               ld (hl),a
  851+C0FC 03               inc bc
  852+C0FD 11 1C 00         ld de,BUFFER_WINDOW_WIDTH
  853+C100 19               add hl,de ;increment HL pointer by wwidth
  854+C101                  ;0,7
  855+C101 0A               ld a,(bc)
  856+C102 56               ld d,(hl)
  857+C103 B2               or d
  858+C104 77               ld (hl),a
  859+C105 03               inc bc
  860+C106 11 1C 00         ld de,BUFFER_WINDOW_WIDTH
  861+C109 19               add hl,de ;increment HL pointer by wwidth
  862+C10A
  863+C10A
  864+C10A
  865+C10A 0A               ld a,(bc)
  866+C10B 56               ld d,(hl)
  867+C10C B2               or d
  868+C10D 77               ld (hl),a
  869+C10E 03               inc bc
  870+C10F 11 1C 00         ld de,BUFFER_WINDOW_WIDTH
  871+C112 19               add hl,de ;increment HL pointer by wwidth
  872+C113                  ;0,
  873+C113 0A               ld a,(bc)
  874+C114 56               ld d,(hl)
  875+C115 B2               or d
  876+C116 77               ld (hl),a
  877+C117 03               inc bc
  878+C118 11 1C 00         ld de,BUFFER_WINDOW_WIDTH
  879+C11B 19               add hl,de ;increment HL pointer by wwidth
  880+C11C                  ;0,
  881+C11C 0A               ld a,(bc)
  882+C11D 56               ld d,(hl)
  883+C11E B2               or d
  884+C11F 77               ld (hl),a
  885+C120 03               inc bc
  886+C121 11 1C 00         ld de,BUFFER_WINDOW_WIDTH
  887+C124 19               add hl,de ;increment HL pointer by wwidth
  888+C125                  ;0,
  889+C125 0A               ld a,(bc)
  890+C126 56               ld d,(hl)
  891+C127 B2               or d
  892+C128 77               ld (hl),a
  893+C129 03               inc bc
  894+C12A 11 1C 00         ld de,BUFFER_WINDOW_WIDTH
  895+C12D 19               add hl,de ;increment HL pointer by wwidth
  896+C12E                  ;0,
  897+C12E 0A               ld a,(bc)
  898+C12F 56               ld d,(hl)
  899+C130 B2               or d
  900+C131 77               ld (hl),a
  901+C132 03               inc bc
  902+C133 11 1C 00         ld de,BUFFER_WINDOW_WIDTH
  903+C136 19               add hl,de ;increment HL pointer by wwidth
  904+C137                  ;0,
  905+C137 0A               ld a,(bc)
  906+C138 56               ld d,(hl)
  907+C139 B2               or d
  908+C13A 77               ld (hl),a
  909+C13B 03               inc bc
  910+C13C 11 1C 00         ld de,BUFFER_WINDOW_WIDTH
  911+C13F 19               add hl,de ;increment HL pointer by wwidth
  912+C140                  ;0,
  913+C140 0A               ld a,(bc)
  914+C141 56               ld d,(hl)
  915+C142 B2               or d
  916+C143 77               ld (hl),a
  917+C144 03               inc bc
  918+C145 11 1C 00         ld de,BUFFER_WINDOW_WIDTH
  919+C148 19               add hl,de ;increment HL pointer by wwidth
  920+C149                  ;0,7
  921+C149 0A               ld a,(bc)
  922+C14A 56               ld d,(hl)
  923+C14B B2               or d
  924+C14C 77               ld (hl),a
  925+C14D
  926+C14D C9               ret
  927+C14E              ;
  928+C14E
  929+C14E
  930+C14E
  931+C14E
  932+C14E              ;;Window Width of 24....
  933+C14E              ;INPUTS:
  934+C14E              ;wwidth=24
  935+C14E              ;BC=sprite pointer
  936+C14E              ;DE=xy
  937+C14E              drawsprite16_8:
  938+C14E 21 00 00         ld hl,0
  939+C151 7B               ld a,e
  940+C152 6F               ld l,a
  941+C153 29               add hl,hl ;HL= y*2
  942+C154 29               add hl,hl ;HL= y*4
  943+C155 D5               push de
  944+C156 E5               push hl
  945+C157 D1               pop de ;DE=y*4
  946+C158 29               add hl,hl ;HL= y*8
  947+C159 C5               push bc
  948+C15A E5               push hl
  949+C15B C1               pop bc ;BC=y*8
  950+C15C 29               add hl,hl
  951+C15D 09               add hl,bc ;HL=y*24
  952+C15E 19               add hl,de ;HL=y*28
  953+C15F C1               pop bc
  954+C160 D1               pop de
  955+C161 5A               ld e,d
  956+C162 16 00            ld d,0
  957+C164 19               add hl,de ;HL+=x
  958+C165 11 00 80         ld de,GAME_WINDOW_START
  959+C168 19               add hl,de ;HL+=memstart
  960+C169                  ;start drawing bytes...
  961+C169                  ;0,0
  962+C169 0A               ld a,(bc)
  963+C16A 56               ld d,(hl)
  964+C16B B2               or d
  965+C16C 77               ld (hl),a
  966+C16D 03               inc bc
  967+C16E 23               inc hl
  968+C16F                  ;1,0
  969+C16F 0A               ld a,(bc)
  970+C170 56               ld d,(hl)
  971+C171 B2               or d
  972+C172 77               ld (hl),a
  973+C173 03               inc bc
  974+C174
  975+C174 11 1B 00         ld de,BUFFER_WINDOW_WIDTH-1
  976+C177 19               add hl,de ;increment HL pointer by wwidth
  977+C178                  ;0,1
  978+C178 0A               ld a,(bc)
  979+C179 56               ld d,(hl)
  980+C17A B2               or d
  981+C17B 77               ld (hl),a
  982+C17C 03               inc bc
  983+C17D 23               inc hl
  984+C17E                  ;1,1
  985+C17E 0A               ld a,(bc)
  986+C17F 56               ld d,(hl)
  987+C180 B2               or d
  988+C181 77               ld (hl),a
  989+C182 03               inc bc
  990+C183
  991+C183 11 1B 00         ld de,BUFFER_WINDOW_WIDTH-1
  992+C186 19               add hl,de ;increment HL pointer
  993+C187                  ;0,2
  994+C187 0A               ld a,(bc)
  995+C188 56               ld d,(hl)
  996+C189 B2               or d
  997+C18A 77               ld (hl),a
  998+C18B 03               inc bc
  999+C18C 23               inc hl
 1000+C18D                  ;1,2
 1001+C18D 0A               ld a,(bc)
 1002+C18E 56               ld d,(hl)
 1003+C18F B2               or d
 1004+C190 77               ld (hl),a
 1005+C191 03               inc bc
 1006+C192
 1007+C192 11 1B 00         ld de,BUFFER_WINDOW_WIDTH-1
 1008+C195 19               add hl,de ;increment HL pointer
 1009+C196                  ;0,3
 1010+C196 0A               ld a,(bc)
 1011+C197 56               ld d,(hl)
 1012+C198 B2               or d
 1013+C199 77               ld (hl),a
 1014+C19A 03               inc bc
 1015+C19B 23               inc hl
 1016+C19C                  ;1,3
 1017+C19C 0A               ld a,(bc)
 1018+C19D 56               ld d,(hl)
 1019+C19E B2               or d
 1020+C19F 77               ld (hl),a
 1021+C1A0 03               inc bc
 1022+C1A1
 1023+C1A1 11 1B 00         ld de,BUFFER_WINDOW_WIDTH-1
 1024+C1A4 19               add hl,de ;increment HL pointer
 1025+C1A5                  ;0,4
 1026+C1A5 0A               ld a,(bc)
 1027+C1A6 56               ld d,(hl)
 1028+C1A7 B2               or d
 1029+C1A8 77               ld (hl),a
 1030+C1A9 03               inc bc
 1031+C1AA 23               inc hl
 1032+C1AB                  ;1,4
 1033+C1AB 0A               ld a,(bc)
 1034+C1AC 56               ld d,(hl)
 1035+C1AD B2               or d
 1036+C1AE 77               ld (hl),a
 1037+C1AF 03               inc bc
 1038+C1B0
 1039+C1B0 11 1B 00         ld de,BUFFER_WINDOW_WIDTH-1
 1040+C1B3 19               add hl,de ;increment HL pointer
 1041+C1B4                  ;0,5
 1042+C1B4 0A               ld a,(bc)
 1043+C1B5 56               ld d,(hl)
 1044+C1B6 B2               or d
 1045+C1B7 77               ld (hl),a
 1046+C1B8 03               inc bc
 1047+C1B9 23               inc hl
 1048+C1BA                  ;1,5
 1049+C1BA 0A               ld a,(bc)
 1050+C1BB 56               ld d,(hl)
 1051+C1BC B2               or d
 1052+C1BD 77               ld (hl),a
 1053+C1BE 03               inc bc
 1054+C1BF
 1055+C1BF 11 1B 00         ld de,BUFFER_WINDOW_WIDTH-1
 1056+C1C2 19               add hl,de ;increment HL pointer
 1057+C1C3                  ;0,6
 1058+C1C3 0A               ld a,(bc)
 1059+C1C4 56               ld d,(hl)
 1060+C1C5 B2               or d
 1061+C1C6 77               ld (hl),a
 1062+C1C7 03               inc bc
 1063+C1C8 23               inc hl
 1064+C1C9                  ;1,6
 1065+C1C9 0A               ld a,(bc)
 1066+C1CA 56               ld d,(hl)
 1067+C1CB B2               or d
 1068+C1CC 77               ld (hl),a
 1069+C1CD 03               inc bc
 1070+C1CE
 1071+C1CE 11 1B 00         ld de,BUFFER_WINDOW_WIDTH-1
 1072+C1D1 19               add hl,de ;increment HL pointer
 1073+C1D2                  ;0,7
 1074+C1D2 0A               ld a,(bc)
 1075+C1D3 56               ld d,(hl)
 1076+C1D4 B2               or d
 1077+C1D5 77               ld (hl),a
 1078+C1D6 03               inc bc
 1079+C1D7 23               inc hl
 1080+C1D8                  ;1,7
 1081+C1D8 0A               ld a,(bc)
 1082+C1D9 56               ld d,(hl)
 1083+C1DA B2               or d
 1084+C1DB 77               ld (hl),a
 1085+C1DC C9               ret
 1086+C1DD              ;
 1087+C1DD
 1088+C1DD
 1089+C1DD
 1090+C1DD              ;;Window Width of 24....
 1091+C1DD              ;INPUTS:
 1092+C1DD              ;wwidth=24
 1093+C1DD              ;BC=sprite pointer
 1094+C1DD              ;DE=xy
 1095+C1DD              drawsprite16_16:
 1096+C1DD 21 00 00         ld hl,0
 1097+C1E0 7B               ld a,e
 1098+C1E1 6F               ld l,a
 1099+C1E2 29               add hl,hl ;HL= y*2
 1100+C1E3 29               add hl,hl ;HL= y*4
 1101+C1E4 D5               push de
 1102+C1E5 E5               push hl
 1103+C1E6 D1               pop de ;DE=y*4
 1104+C1E7 29               add hl,hl ;HL= y*8
 1105+C1E8 C5               push bc
 1106+C1E9 E5               push hl
 1107+C1EA C1               pop bc ;BC=y*8
 1108+C1EB 29               add hl,hl
 1109+C1EC 09               add hl,bc ;HL=y*24
 1110+C1ED 19               add hl,de ;HL=y*28
 1111+C1EE C1               pop bc
 1112+C1EF D1               pop de
 1113+C1F0 5A               ld e,d
 1114+C1F1 16 00            ld d,0
 1115+C1F3 19               add hl,de ;HL+=x
 1116+C1F4 11 00 80         ld de,GAME_WINDOW_START
 1117+C1F7 19               add hl,de ;HL+=memstart
 1118+C1F8                  ;start drawing bytes...
 1119+C1F8                  ;0,0
 1120+C1F8 0A               ld a,(bc)
 1121+C1F9 56               ld d,(hl)
 1122+C1FA B2               or d
 1123+C1FB 77               ld (hl),a
 1124+C1FC 03               inc bc
 1125+C1FD 23               inc hl
 1126+C1FE                  ;1,0
 1127+C1FE 0A               ld a,(bc)
 1128+C1FF 56               ld d,(hl)
 1129+C200 B2               or d
 1130+C201 77               ld (hl),a
 1131+C202 03               inc bc
 1132+C203
 1133+C203 11 1B 00         ld de,BUFFER_WINDOW_WIDTH-1
 1134+C206 19               add hl,de ;increment HL pointer by wwidth
 1135+C207                  ;0,1
 1136+C207 0A               ld a,(bc)
 1137+C208 56               ld d,(hl)
 1138+C209 B2               or d
 1139+C20A 77               ld (hl),a
 1140+C20B 03               inc bc
 1141+C20C 23               inc hl
 1142+C20D                  ;1,1
 1143+C20D 0A               ld a,(bc)
 1144+C20E 56               ld d,(hl)
 1145+C20F B2               or d
 1146+C210 77               ld (hl),a
 1147+C211 03               inc bc
 1148+C212
 1149+C212 11 1B 00         ld de,BUFFER_WINDOW_WIDTH-1
 1150+C215 19               add hl,de ;increment HL pointer
 1151+C216                  ;0,2
 1152+C216 0A               ld a,(bc)
 1153+C217 56               ld d,(hl)
 1154+C218 B2               or d
 1155+C219 77               ld (hl),a
 1156+C21A 03               inc bc
 1157+C21B 23               inc hl
 1158+C21C                  ;1,2
 1159+C21C 0A               ld a,(bc)
 1160+C21D 56               ld d,(hl)
 1161+C21E B2               or d
 1162+C21F 77               ld (hl),a
 1163+C220 03               inc bc
 1164+C221
 1165+C221 11 1B 00         ld de,BUFFER_WINDOW_WIDTH-1
 1166+C224 19               add hl,de ;increment HL pointer
 1167+C225                  ;0,3
 1168+C225 0A               ld a,(bc)
 1169+C226 56               ld d,(hl)
 1170+C227 B2               or d
 1171+C228 77               ld (hl),a
 1172+C229 03               inc bc
 1173+C22A 23               inc hl
 1174+C22B                  ;1,3
 1175+C22B 0A               ld a,(bc)
 1176+C22C 56               ld d,(hl)
 1177+C22D B2               or d
 1178+C22E 77               ld (hl),a
 1179+C22F 03               inc bc
 1180+C230
 1181+C230 11 1B 00         ld de,BUFFER_WINDOW_WIDTH-1
 1182+C233 19               add hl,de ;increment HL pointer
 1183+C234                  ;0,4
 1184+C234 0A               ld a,(bc)
 1185+C235 56               ld d,(hl)
 1186+C236 B2               or d
 1187+C237 77               ld (hl),a
 1188+C238 03               inc bc
 1189+C239 23               inc hl
 1190+C23A                  ;1,4
 1191+C23A 0A               ld a,(bc)
 1192+C23B 56               ld d,(hl)
 1193+C23C B2               or d
 1194+C23D 77               ld (hl),a
 1195+C23E 03               inc bc
 1196+C23F
 1197+C23F 11 1B 00         ld de,BUFFER_WINDOW_WIDTH-1
 1198+C242 19               add hl,de ;increment HL pointer
 1199+C243                  ;0,5
 1200+C243 0A               ld a,(bc)
 1201+C244 56               ld d,(hl)
 1202+C245 B2               or d
 1203+C246 77               ld (hl),a
 1204+C247 03               inc bc
 1205+C248 23               inc hl
 1206+C249                  ;1,5
 1207+C249 0A               ld a,(bc)
 1208+C24A 56               ld d,(hl)
 1209+C24B B2               or d
 1210+C24C 77               ld (hl),a
 1211+C24D 03               inc bc
 1212+C24E
 1213+C24E 11 1B 00         ld de,BUFFER_WINDOW_WIDTH-1
 1214+C251 19               add hl,de ;increment HL pointer
 1215+C252                  ;0,6
 1216+C252 0A               ld a,(bc)
 1217+C253 56               ld d,(hl)
 1218+C254 B2               or d
 1219+C255 77               ld (hl),a
 1220+C256 03               inc bc
 1221+C257 23               inc hl
 1222+C258                  ;1,6
 1223+C258 0A               ld a,(bc)
 1224+C259 56               ld d,(hl)
 1225+C25A B2               or d
 1226+C25B 77               ld (hl),a
 1227+C25C 03               inc bc
 1228+C25D
 1229+C25D 11 1B 00         ld de,BUFFER_WINDOW_WIDTH-1
 1230+C260 19               add hl,de ;increment HL pointer
 1231+C261                  ;0,7
 1232+C261 0A               ld a,(bc)
 1233+C262 56               ld d,(hl)
 1234+C263 B2               or d
 1235+C264 77               ld (hl),a
 1236+C265 03               inc bc
 1237+C266 23               inc hl
 1238+C267                  ;1,7
 1239+C267 0A               ld a,(bc)
 1240+C268 56               ld d,(hl)
 1241+C269 B2               or d
 1242+C26A 77               ld (hl),a
 1243+C26B 03               inc bc
 1244+C26C
 1245+C26C 11 1B 00         ld de,BUFFER_WINDOW_WIDTH-1
 1246+C26F 19               add hl,de ;increment HL pointer
 1247+C270                  ;0,8
 1248+C270 0A               ld a,(bc)
 1249+C271 56               ld d,(hl)
 1250+C272 B2               or d
 1251+C273 77               ld (hl),a
 1252+C274 03               inc bc
 1253+C275 23               inc hl
 1254+C276                  ;1,8
 1255+C276 0A               ld a,(bc)
 1256+C277 56               ld d,(hl)
 1257+C278 B2               or d
 1258+C279 77               ld (hl),a
 1259+C27A 03               inc bc
 1260+C27B
 1261+C27B 11 1B 00         ld de,BUFFER_WINDOW_WIDTH-1
 1262+C27E 19               add hl,de ;increment HL pointer
 1263+C27F                  ;0,9
 1264+C27F 0A               ld a,(bc)
 1265+C280 56               ld d,(hl)
 1266+C281 B2               or d
 1267+C282 77               ld (hl),a
 1268+C283 03               inc bc
 1269+C284 23               inc hl
 1270+C285                  ;1,9
 1271+C285 0A               ld a,(bc)
 1272+C286 56               ld d,(hl)
 1273+C287 B2               or d
 1274+C288 77               ld (hl),a
 1275+C289 03               inc bc
 1276+C28A
 1277+C28A 11 1B 00         ld de,BUFFER_WINDOW_WIDTH-1
 1278+C28D 19               add hl,de ;increment HL pointer
 1279+C28E                  ;0,10
 1280+C28E 0A               ld a,(bc)
 1281+C28F 56               ld d,(hl)
 1282+C290 B2               or d
 1283+C291 77               ld (hl),a
 1284+C292 03               inc bc
 1285+C293 23               inc hl
 1286+C294                  ;1,10
 1287+C294 0A               ld a,(bc)
 1288+C295 56               ld d,(hl)
 1289+C296 B2               or d
 1290+C297 77               ld (hl),a
 1291+C298 03               inc bc
 1292+C299
 1293+C299 11 1B 00         ld de,BUFFER_WINDOW_WIDTH-1
 1294+C29C 19               add hl,de ;increment HL pointer
 1295+C29D                  ;0,11
 1296+C29D 0A               ld a,(bc)
 1297+C29E 56               ld d,(hl)
 1298+C29F B2               or d
 1299+C2A0 77               ld (hl),a
 1300+C2A1 03               inc bc
 1301+C2A2 23               inc hl
 1302+C2A3                  ;1,11
 1303+C2A3 0A               ld a,(bc)
 1304+C2A4 56               ld d,(hl)
 1305+C2A5 B2               or d
 1306+C2A6 77               ld (hl),a
 1307+C2A7 03               inc bc
 1308+C2A8
 1309+C2A8 11 1B 00         ld de,BUFFER_WINDOW_WIDTH-1
 1310+C2AB 19               add hl,de ;increment HL pointer
 1311+C2AC                  ;0,12
 1312+C2AC 0A               ld a,(bc)
 1313+C2AD 56               ld d,(hl)
 1314+C2AE B2               or d
 1315+C2AF 77               ld (hl),a
 1316+C2B0 03               inc bc
 1317+C2B1 23               inc hl
 1318+C2B2                  ;1,12
 1319+C2B2 0A               ld a,(bc)
 1320+C2B3 56               ld d,(hl)
 1321+C2B4 B2               or d
 1322+C2B5 77               ld (hl),a
 1323+C2B6 03               inc bc
 1324+C2B7
 1325+C2B7 11 1B 00         ld de,BUFFER_WINDOW_WIDTH-1
 1326+C2BA 19               add hl,de ;increment HL pointer
 1327+C2BB                  ;0,13
 1328+C2BB 0A               ld a,(bc)
 1329+C2BC 56               ld d,(hl)
 1330+C2BD B2               or d
 1331+C2BE 77               ld (hl),a
 1332+C2BF 03               inc bc
 1333+C2C0 23               inc hl
 1334+C2C1                  ;1,13
 1335+C2C1 0A               ld a,(bc)
 1336+C2C2 56               ld d,(hl)
 1337+C2C3 B2               or d
 1338+C2C4 77               ld (hl),a
 1339+C2C5 03               inc bc
 1340+C2C6
 1341+C2C6 11 1B 00         ld de,BUFFER_WINDOW_WIDTH-1
 1342+C2C9 19               add hl,de ;increment HL pointer
 1343+C2CA                  ;0,14
 1344+C2CA 0A               ld a,(bc)
 1345+C2CB 56               ld d,(hl)
 1346+C2CC B2               or d
 1347+C2CD 77               ld (hl),a
 1348+C2CE 03               inc bc
 1349+C2CF 23               inc hl
 1350+C2D0                  ;1,14
 1351+C2D0 0A               ld a,(bc)
 1352+C2D1 56               ld d,(hl)
 1353+C2D2 B2               or d
 1354+C2D3 77               ld (hl),a
 1355+C2D4 03               inc bc
 1356+C2D5
 1357+C2D5 11 1B 00         ld de,BUFFER_WINDOW_WIDTH-1
 1358+C2D8 19               add hl,de ;increment HL pointer
 1359+C2D9                  ;0,15
 1360+C2D9 0A               ld a,(bc)
 1361+C2DA 56               ld d,(hl)
 1362+C2DB B2               or d
 1363+C2DC 77               ld (hl),a
 1364+C2DD 03               inc bc
 1365+C2DE 23               inc hl
 1366+C2DF                  ;1,15
 1367+C2DF 0A               ld a,(bc)
 1368+C2E0 56               ld d,(hl)
 1369+C2E1 B2               or d
 1370+C2E2 77               ld (hl),a
 1371+C2E3 C9               ret
 1372+C2E4              ;
 1373+C2E4
 1374+C2E4
 1375+C2E4
 1376+C2E4
 1377+C2E4
 1378+C2E4              ;INPUTS:
 1379+C2E4              ;wwidth=24
 1380+C2E4              ;BC=sprite pointer
 1381+C2E4              ;DE=xy
 1382+C2E4              drawsprite16_24:
 1383+C2E4 21 00 00         ld hl,0
 1384+C2E7 7B               ld a,e
 1385+C2E8 6F               ld l,a
 1386+C2E9 29               add hl,hl ;HL= y*2
 1387+C2EA 29               add hl,hl ;HL= y*4
 1388+C2EB D5               push de
 1389+C2EC E5               push hl
 1390+C2ED D1               pop de ;DE=y*4
 1391+C2EE 29               add hl,hl ;HL= y*8
 1392+C2EF C5               push bc
 1393+C2F0 E5               push hl
 1394+C2F1 C1               pop bc ;BC=y*8
 1395+C2F2 29               add hl,hl
 1396+C2F3 09               add hl,bc ;HL=y*24
 1397+C2F4 19               add hl,de ;HL=y*28
 1398+C2F5 C1               pop bc
 1399+C2F6 D1               pop de
 1400+C2F7 5A               ld e,d
 1401+C2F8 16 00            ld d,0
 1402+C2FA 19               add hl,de ;HL+=x
 1403+C2FB 11 00 80         ld de,GAME_WINDOW_START
 1404+C2FE 19               add hl,de ;HL+=memstart
 1405+C2FF                  ;start drawing bytes...
 1406+C2FF                  ;0,0
 1407+C2FF 0A               ld a,(bc)
 1408+C300 56               ld d,(hl)
 1409+C301 B2               or d
 1410+C302 77               ld (hl),a
 1411+C303 03               inc bc
 1412+C304 23               inc hl
 1413+C305                  ;1,0
 1414+C305 0A               ld a,(bc)
 1415+C306 56               ld d,(hl)
 1416+C307 B2               or d
 1417+C308 77               ld (hl),a
 1418+C309 03               inc bc
 1419+C30A
 1420+C30A 11 1B 00         ld de,BUFFER_WINDOW_WIDTH-1
 1421+C30D 19               add hl,de ;increment HL pointer by wwidth
 1422+C30E                  ;0,1
 1423+C30E 0A               ld a,(bc)
 1424+C30F 56               ld d,(hl)
 1425+C310 B2               or d
 1426+C311 77               ld (hl),a
 1427+C312 03               inc bc
 1428+C313 23               inc hl
 1429+C314                  ;1,1
 1430+C314 0A               ld a,(bc)
 1431+C315 56               ld d,(hl)
 1432+C316 B2               or d
 1433+C317 77               ld (hl),a
 1434+C318 03               inc bc
 1435+C319
 1436+C319 11 1B 00         ld de,BUFFER_WINDOW_WIDTH-1
 1437+C31C 19               add hl,de ;increment HL pointer
 1438+C31D                  ;0,2
 1439+C31D 0A               ld a,(bc)
 1440+C31E 56               ld d,(hl)
 1441+C31F B2               or d
 1442+C320 77               ld (hl),a
 1443+C321 03               inc bc
 1444+C322 23               inc hl
 1445+C323                  ;1,2
 1446+C323 0A               ld a,(bc)
 1447+C324 56               ld d,(hl)
 1448+C325 B2               or d
 1449+C326 77               ld (hl),a
 1450+C327 03               inc bc
 1451+C328
 1452+C328 11 1B 00         ld de,BUFFER_WINDOW_WIDTH-1
 1453+C32B 19               add hl,de ;increment HL pointer
 1454+C32C                  ;0,3
 1455+C32C 0A               ld a,(bc)
 1456+C32D 56               ld d,(hl)
 1457+C32E B2               or d
 1458+C32F 77               ld (hl),a
 1459+C330 03               inc bc
 1460+C331 23               inc hl
 1461+C332                  ;1,3
 1462+C332 0A               ld a,(bc)
 1463+C333 56               ld d,(hl)
 1464+C334 B2               or d
 1465+C335 77               ld (hl),a
 1466+C336 03               inc bc
 1467+C337
 1468+C337 11 1B 00         ld de,BUFFER_WINDOW_WIDTH-1
 1469+C33A 19               add hl,de ;increment HL pointer
 1470+C33B                  ;0,4
 1471+C33B 0A               ld a,(bc)
 1472+C33C 56               ld d,(hl)
 1473+C33D B2               or d
 1474+C33E 77               ld (hl),a
 1475+C33F 03               inc bc
 1476+C340 23               inc hl
 1477+C341                  ;1,4
 1478+C341 0A               ld a,(bc)
 1479+C342 56               ld d,(hl)
 1480+C343 B2               or d
 1481+C344 77               ld (hl),a
 1482+C345 03               inc bc
 1483+C346
 1484+C346 11 1B 00         ld de,BUFFER_WINDOW_WIDTH-1
 1485+C349 19               add hl,de ;increment HL pointer
 1486+C34A                  ;0,5
 1487+C34A 0A               ld a,(bc)
 1488+C34B 56               ld d,(hl)
 1489+C34C B2               or d
 1490+C34D 77               ld (hl),a
 1491+C34E 03               inc bc
 1492+C34F 23               inc hl
 1493+C350                  ;1,5
 1494+C350 0A               ld a,(bc)
 1495+C351 56               ld d,(hl)
 1496+C352 B2               or d
 1497+C353 77               ld (hl),a
 1498+C354 03               inc bc
 1499+C355
 1500+C355 11 1B 00         ld de,BUFFER_WINDOW_WIDTH-1
 1501+C358 19               add hl,de ;increment HL pointer
 1502+C359                  ;0,6
 1503+C359 0A               ld a,(bc)
 1504+C35A 56               ld d,(hl)
 1505+C35B B2               or d
 1506+C35C 77               ld (hl),a
 1507+C35D 03               inc bc
 1508+C35E 23               inc hl
 1509+C35F                  ;1,6
 1510+C35F 0A               ld a,(bc)
 1511+C360 56               ld d,(hl)
 1512+C361 B2               or d
 1513+C362 77               ld (hl),a
 1514+C363 03               inc bc
 1515+C364
 1516+C364 11 1B 00         ld de,BUFFER_WINDOW_WIDTH-1
 1517+C367 19               add hl,de ;increment HL pointer
 1518+C368                  ;0,7
 1519+C368 0A               ld a,(bc)
 1520+C369 56               ld d,(hl)
 1521+C36A B2               or d
 1522+C36B 77               ld (hl),a
 1523+C36C 03               inc bc
 1524+C36D 23               inc hl
 1525+C36E                  ;1,7
 1526+C36E 0A               ld a,(bc)
 1527+C36F 56               ld d,(hl)
 1528+C370 B2               or d
 1529+C371 77               ld (hl),a
 1530+C372 03               inc bc
 1531+C373
 1532+C373 11 1B 00         ld de,BUFFER_WINDOW_WIDTH-1
 1533+C376 19               add hl,de ;increment HL pointer
 1534+C377                  ;0,8
 1535+C377 0A               ld a,(bc)
 1536+C378 56               ld d,(hl)
 1537+C379 B2               or d
 1538+C37A 77               ld (hl),a
 1539+C37B 03               inc bc
 1540+C37C 23               inc hl
 1541+C37D                  ;1,8
 1542+C37D 0A               ld a,(bc)
 1543+C37E 56               ld d,(hl)
 1544+C37F B2               or d
 1545+C380 77               ld (hl),a
 1546+C381 03               inc bc
 1547+C382
 1548+C382 11 1B 00         ld de,BUFFER_WINDOW_WIDTH-1
 1549+C385 19               add hl,de ;increment HL pointer
 1550+C386                  ;0,9
 1551+C386 0A               ld a,(bc)
 1552+C387 56               ld d,(hl)
 1553+C388 B2               or d
 1554+C389 77               ld (hl),a
 1555+C38A 03               inc bc
 1556+C38B 23               inc hl
 1557+C38C                  ;1,9
 1558+C38C 0A               ld a,(bc)
 1559+C38D 56               ld d,(hl)
 1560+C38E B2               or d
 1561+C38F 77               ld (hl),a
 1562+C390 03               inc bc
 1563+C391
 1564+C391 11 1B 00         ld de,BUFFER_WINDOW_WIDTH-1
 1565+C394 19               add hl,de ;increment HL pointer
 1566+C395                  ;0,10
 1567+C395 0A               ld a,(bc)
 1568+C396 56               ld d,(hl)
 1569+C397 B2               or d
 1570+C398 77               ld (hl),a
 1571+C399 03               inc bc
 1572+C39A 23               inc hl
 1573+C39B                  ;1,10
 1574+C39B 0A               ld a,(bc)
 1575+C39C 56               ld d,(hl)
 1576+C39D B2               or d
 1577+C39E 77               ld (hl),a
 1578+C39F 03               inc bc
 1579+C3A0
 1580+C3A0 11 1B 00         ld de,BUFFER_WINDOW_WIDTH-1
 1581+C3A3 19               add hl,de ;increment HL pointer
 1582+C3A4                  ;0,11
 1583+C3A4 0A               ld a,(bc)
 1584+C3A5 56               ld d,(hl)
 1585+C3A6 B2               or d
 1586+C3A7 77               ld (hl),a
 1587+C3A8 03               inc bc
 1588+C3A9 23               inc hl
 1589+C3AA                  ;1,11
 1590+C3AA 0A               ld a,(bc)
 1591+C3AB 56               ld d,(hl)
 1592+C3AC B2               or d
 1593+C3AD 77               ld (hl),a
 1594+C3AE 03               inc bc
 1595+C3AF
 1596+C3AF 11 1B 00         ld de,BUFFER_WINDOW_WIDTH-1
 1597+C3B2 19               add hl,de ;increment HL pointer
 1598+C3B3                  ;0,12
 1599+C3B3 0A               ld a,(bc)
 1600+C3B4 56               ld d,(hl)
 1601+C3B5 B2               or d
 1602+C3B6 77               ld (hl),a
 1603+C3B7 03               inc bc
 1604+C3B8 23               inc hl
 1605+C3B9                  ;1,12
 1606+C3B9 0A               ld a,(bc)
 1607+C3BA 56               ld d,(hl)
 1608+C3BB B2               or d
 1609+C3BC 77               ld (hl),a
 1610+C3BD 03               inc bc
 1611+C3BE
 1612+C3BE 11 1B 00         ld de,BUFFER_WINDOW_WIDTH-1
 1613+C3C1 19               add hl,de ;increment HL pointer
 1614+C3C2                  ;0,13
 1615+C3C2 0A               ld a,(bc)
 1616+C3C3 56               ld d,(hl)
 1617+C3C4 B2               or d
 1618+C3C5 77               ld (hl),a
 1619+C3C6 03               inc bc
 1620+C3C7 23               inc hl
 1621+C3C8                  ;1,13
 1622+C3C8 0A               ld a,(bc)
 1623+C3C9 56               ld d,(hl)
 1624+C3CA B2               or d
 1625+C3CB 77               ld (hl),a
 1626+C3CC 03               inc bc
 1627+C3CD
 1628+C3CD 11 1B 00         ld de,BUFFER_WINDOW_WIDTH-1
 1629+C3D0 19               add hl,de ;increment HL pointer
 1630+C3D1                  ;0,14
 1631+C3D1 0A               ld a,(bc)
 1632+C3D2 56               ld d,(hl)
 1633+C3D3 B2               or d
 1634+C3D4 77               ld (hl),a
 1635+C3D5 03               inc bc
 1636+C3D6 23               inc hl
 1637+C3D7                  ;1,14
 1638+C3D7 0A               ld a,(bc)
 1639+C3D8 56               ld d,(hl)
 1640+C3D9 B2               or d
 1641+C3DA 77               ld (hl),a
 1642+C3DB 03               inc bc
 1643+C3DC
 1644+C3DC 11 1B 00         ld de,BUFFER_WINDOW_WIDTH-1
 1645+C3DF 19               add hl,de ;increment HL pointer
 1646+C3E0                  ;0,15
 1647+C3E0 0A               ld a,(bc)
 1648+C3E1 56               ld d,(hl)
 1649+C3E2 B2               or d
 1650+C3E3 77               ld (hl),a
 1651+C3E4 03               inc bc
 1652+C3E5 23               inc hl
 1653+C3E6                  ;1,15
 1654+C3E6 0A               ld a,(bc)
 1655+C3E7 56               ld d,(hl)
 1656+C3E8 B2               or d
 1657+C3E9 77               ld (hl),a
 1658+C3EA 03               inc bc
 1659+C3EB
 1660+C3EB 11 1B 00         ld de,BUFFER_WINDOW_WIDTH-1
 1661+C3EE 19               add hl,de ;increment HL pointer
 1662+C3EF                  ;0,16
 1663+C3EF 0A               ld a,(bc)
 1664+C3F0 56               ld d,(hl)
 1665+C3F1 B2               or d
 1666+C3F2 77               ld (hl),a
 1667+C3F3 03               inc bc
 1668+C3F4 23               inc hl
 1669+C3F5                  ;1,16
 1670+C3F5 0A               ld a,(bc)
 1671+C3F6 56               ld d,(hl)
 1672+C3F7 B2               or d
 1673+C3F8 77               ld (hl),a
 1674+C3F9 03               inc bc
 1675+C3FA
 1676+C3FA 11 1B 00         ld de,BUFFER_WINDOW_WIDTH-1
 1677+C3FD 19               add hl,de ;increment HL pointer
 1678+C3FE                  ;0,17
 1679+C3FE 0A               ld a,(bc)
 1680+C3FF 56               ld d,(hl)
 1681+C400 B2               or d
 1682+C401 77               ld (hl),a
 1683+C402 03               inc bc
 1684+C403 23               inc hl
 1685+C404                  ;1,17
 1686+C404 0A               ld a,(bc)
 1687+C405 56               ld d,(hl)
 1688+C406 B2               or d
 1689+C407 77               ld (hl),a
 1690+C408 03               inc bc
 1691+C409
 1692+C409 11 1B 00         ld de,BUFFER_WINDOW_WIDTH-1
 1693+C40C 19               add hl,de ;increment HL pointer
 1694+C40D                  ;0,18
 1695+C40D 0A               ld a,(bc)
 1696+C40E 56               ld d,(hl)
 1697+C40F B2               or d
 1698+C410 77               ld (hl),a
 1699+C411 03               inc bc
 1700+C412 23               inc hl
 1701+C413                  ;1,18
 1702+C413 0A               ld a,(bc)
 1703+C414 56               ld d,(hl)
 1704+C415 B2               or d
 1705+C416 77               ld (hl),a
 1706+C417 03               inc bc
 1707+C418
 1708+C418 11 1B 00         ld de,BUFFER_WINDOW_WIDTH-1
 1709+C41B 19               add hl,de ;increment HL pointer
 1710+C41C                  ;0,19
 1711+C41C 0A               ld a,(bc)
 1712+C41D 56               ld d,(hl)
 1713+C41E B2               or d
 1714+C41F 77               ld (hl),a
 1715+C420 03               inc bc
 1716+C421 23               inc hl
 1717+C422                  ;1,19
 1718+C422 0A               ld a,(bc)
 1719+C423 56               ld d,(hl)
 1720+C424 B2               or d
 1721+C425 77               ld (hl),a
 1722+C426 03               inc bc
 1723+C427
 1724+C427 11 1B 00         ld de,BUFFER_WINDOW_WIDTH-1
 1725+C42A 19               add hl,de ;increment HL pointer
 1726+C42B                  ;0,20
 1727+C42B 0A               ld a,(bc)
 1728+C42C 56               ld d,(hl)
 1729+C42D B2               or d
 1730+C42E 77               ld (hl),a
 1731+C42F 03               inc bc
 1732+C430 23               inc hl
 1733+C431                  ;1,20
 1734+C431 0A               ld a,(bc)
 1735+C432 56               ld d,(hl)
 1736+C433 B2               or d
 1737+C434 77               ld (hl),a
 1738+C435 03               inc bc
 1739+C436
 1740+C436 11 1B 00         ld de,BUFFER_WINDOW_WIDTH-1
 1741+C439 19               add hl,de ;increment HL pointer
 1742+C43A                  ;0,21
 1743+C43A 0A               ld a,(bc)
 1744+C43B 56               ld d,(hl)
 1745+C43C B2               or d
 1746+C43D 77               ld (hl),a
 1747+C43E 03               inc bc
 1748+C43F 23               inc hl
 1749+C440                  ;1,21
 1750+C440 0A               ld a,(bc)
 1751+C441 56               ld d,(hl)
 1752+C442 B2               or d
 1753+C443 77               ld (hl),a
 1754+C444 03               inc bc
 1755+C445
 1756+C445 11 1B 00         ld de,BUFFER_WINDOW_WIDTH-1
 1757+C448 19               add hl,de ;increment HL pointer
 1758+C449                  ;0,22
 1759+C449 0A               ld a,(bc)
 1760+C44A 56               ld d,(hl)
 1761+C44B B2               or d
 1762+C44C 77               ld (hl),a
 1763+C44D 03               inc bc
 1764+C44E 23               inc hl
 1765+C44F                  ;1,22
 1766+C44F 0A               ld a,(bc)
 1767+C450 56               ld d,(hl)
 1768+C451 B2               or d
 1769+C452 77               ld (hl),a
 1770+C453 03               inc bc
 1771+C454
 1772+C454 11 1B 00         ld de,BUFFER_WINDOW_WIDTH-1
 1773+C457 19               add hl,de ;increment HL pointer
 1774+C458                  ;0,23
 1775+C458 0A               ld a,(bc)
 1776+C459 56               ld d,(hl)
 1777+C45A B2               or d
 1778+C45B 77               ld (hl),a
 1779+C45C 03               inc bc
 1780+C45D 23               inc hl
 1781+C45E                  ;1,23
 1782+C45E 0A               ld a,(bc)
 1783+C45F 56               ld d,(hl)
 1784+C460 B2               or d
 1785+C461 77               ld (hl),a
 1786+C462 03               inc bc
 1787+C463
 1788+C463 11 1B 00         ld de,BUFFER_WINDOW_WIDTH-1
 1789+C466 19               add hl,de ;increment HL pointer
 1790+C467 C9               ret
 1791+C468              ;
 1792+C468
 1793+C468
 1794+C468              ;INPUTS:
 1795+C468              ;wwidth=24
 1796+C468              ;BC=sprite pointer
 1797+C468              ;DE=xy
 1798+C468              drawsprite16_32:
 1799+C468 21 00 00         ld hl,0
 1800+C46B 7B               ld a,e
 1801+C46C 6F               ld l,a
 1802+C46D 29               add hl,hl ;HL= y*2
 1803+C46E 29               add hl,hl ;HL= y*4
 1804+C46F D5               push de
 1805+C470 E5               push hl
 1806+C471 D1               pop de ;DE=y*4
 1807+C472 29               add hl,hl ;HL= y*8
 1808+C473 C5               push bc
 1809+C474 E5               push hl
 1810+C475 C1               pop bc ;BC=y*8
 1811+C476 29               add hl,hl
 1812+C477 09               add hl,bc ;HL=y*24
 1813+C478 19               add hl,de ;HL=y*28
 1814+C479 C1               pop bc
 1815+C47A D1               pop de
 1816+C47B 5A               ld e,d
 1817+C47C 16 00            ld d,0
 1818+C47E 19               add hl,de ;HL+=x
 1819+C47F 11 00 80         ld de,GAME_WINDOW_START
 1820+C482 19               add hl,de ;HL+=memstart
 1821+C483                  ;start drawing bytes...
 1822+C483                  ;0,0
 1823+C483 0A               ld a,(bc)
 1824+C484 56               ld d,(hl)
 1825+C485 B2               or d
 1826+C486 77               ld (hl),a
 1827+C487 03               inc bc
 1828+C488 23               inc hl
 1829+C489                  ;1,0
 1830+C489 0A               ld a,(bc)
 1831+C48A 56               ld d,(hl)
 1832+C48B B2               or d
 1833+C48C 77               ld (hl),a
 1834+C48D 03               inc bc
 1835+C48E
 1836+C48E 11 1B 00         ld de,BUFFER_WINDOW_WIDTH-1
 1837+C491 19               add hl,de ;increment HL pointer by wwidth
 1838+C492                  ;0,1
 1839+C492 0A               ld a,(bc)
 1840+C493 56               ld d,(hl)
 1841+C494 B2               or d
 1842+C495 77               ld (hl),a
 1843+C496 03               inc bc
 1844+C497 23               inc hl
 1845+C498                  ;1,1
 1846+C498 0A               ld a,(bc)
 1847+C499 56               ld d,(hl)
 1848+C49A B2               or d
 1849+C49B 77               ld (hl),a
 1850+C49C 03               inc bc
 1851+C49D
 1852+C49D 11 1B 00         ld de,BUFFER_WINDOW_WIDTH-1
 1853+C4A0 19               add hl,de ;increment HL pointer
 1854+C4A1                  ;0,2
 1855+C4A1 0A               ld a,(bc)
 1856+C4A2 56               ld d,(hl)
 1857+C4A3 B2               or d
 1858+C4A4 77               ld (hl),a
 1859+C4A5 03               inc bc
 1860+C4A6 23               inc hl
 1861+C4A7                  ;1,2
 1862+C4A7 0A               ld a,(bc)
 1863+C4A8 56               ld d,(hl)
 1864+C4A9 B2               or d
 1865+C4AA 77               ld (hl),a
 1866+C4AB 03               inc bc
 1867+C4AC
 1868+C4AC 11 1B 00         ld de,BUFFER_WINDOW_WIDTH-1
 1869+C4AF 19               add hl,de ;increment HL pointer
 1870+C4B0                  ;0,3
 1871+C4B0 0A               ld a,(bc)
 1872+C4B1 56               ld d,(hl)
 1873+C4B2 B2               or d
 1874+C4B3 77               ld (hl),a
 1875+C4B4 03               inc bc
 1876+C4B5 23               inc hl
 1877+C4B6                  ;1,3
 1878+C4B6 0A               ld a,(bc)
 1879+C4B7 56               ld d,(hl)
 1880+C4B8 B2               or d
 1881+C4B9 77               ld (hl),a
 1882+C4BA 03               inc bc
 1883+C4BB
 1884+C4BB 11 1B 00         ld de,BUFFER_WINDOW_WIDTH-1
 1885+C4BE 19               add hl,de ;increment HL pointer
 1886+C4BF                  ;0,4
 1887+C4BF 0A               ld a,(bc)
 1888+C4C0 56               ld d,(hl)
 1889+C4C1 B2               or d
 1890+C4C2 77               ld (hl),a
 1891+C4C3 03               inc bc
 1892+C4C4 23               inc hl
 1893+C4C5                  ;1,4
 1894+C4C5 0A               ld a,(bc)
 1895+C4C6 56               ld d,(hl)
 1896+C4C7 B2               or d
 1897+C4C8 77               ld (hl),a
 1898+C4C9 03               inc bc
 1899+C4CA
 1900+C4CA 11 1B 00         ld de,BUFFER_WINDOW_WIDTH-1
 1901+C4CD 19               add hl,de ;increment HL pointer
 1902+C4CE                  ;0,5
 1903+C4CE 0A               ld a,(bc)
 1904+C4CF 56               ld d,(hl)
 1905+C4D0 B2               or d
 1906+C4D1 77               ld (hl),a
 1907+C4D2 03               inc bc
 1908+C4D3 23               inc hl
 1909+C4D4                  ;1,5
 1910+C4D4 0A               ld a,(bc)
 1911+C4D5 56               ld d,(hl)
 1912+C4D6 B2               or d
 1913+C4D7 77               ld (hl),a
 1914+C4D8 03               inc bc
 1915+C4D9
 1916+C4D9 11 1B 00         ld de,BUFFER_WINDOW_WIDTH-1
 1917+C4DC 19               add hl,de ;increment HL pointer
 1918+C4DD                  ;0,6
 1919+C4DD 0A               ld a,(bc)
 1920+C4DE 56               ld d,(hl)
 1921+C4DF B2               or d
 1922+C4E0 77               ld (hl),a
 1923+C4E1 03               inc bc
 1924+C4E2 23               inc hl
 1925+C4E3                  ;1,6
 1926+C4E3 0A               ld a,(bc)
 1927+C4E4 56               ld d,(hl)
 1928+C4E5 B2               or d
 1929+C4E6 77               ld (hl),a
 1930+C4E7 03               inc bc
 1931+C4E8
 1932+C4E8 11 1B 00         ld de,BUFFER_WINDOW_WIDTH-1
 1933+C4EB 19               add hl,de ;increment HL pointer
 1934+C4EC                  ;0,7
 1935+C4EC 0A               ld a,(bc)
 1936+C4ED 56               ld d,(hl)
 1937+C4EE B2               or d
 1938+C4EF 77               ld (hl),a
 1939+C4F0 03               inc bc
 1940+C4F1 23               inc hl
 1941+C4F2                  ;1,7
 1942+C4F2 0A               ld a,(bc)
 1943+C4F3 56               ld d,(hl)
 1944+C4F4 B2               or d
 1945+C4F5 77               ld (hl),a
 1946+C4F6 03               inc bc
 1947+C4F7
 1948+C4F7 11 1B 00         ld de,BUFFER_WINDOW_WIDTH-1
 1949+C4FA 19               add hl,de ;increment HL pointer
 1950+C4FB                  ;0,8
 1951+C4FB 0A               ld a,(bc)
 1952+C4FC 56               ld d,(hl)
 1953+C4FD B2               or d
 1954+C4FE 77               ld (hl),a
 1955+C4FF 03               inc bc
 1956+C500 23               inc hl
 1957+C501                  ;1,8
 1958+C501 0A               ld a,(bc)
 1959+C502 56               ld d,(hl)
 1960+C503 B2               or d
 1961+C504 77               ld (hl),a
 1962+C505 03               inc bc
 1963+C506
 1964+C506 11 1B 00         ld de,BUFFER_WINDOW_WIDTH-1
 1965+C509 19               add hl,de ;increment HL pointer
 1966+C50A                  ;0,9
 1967+C50A 0A               ld a,(bc)
 1968+C50B 56               ld d,(hl)
 1969+C50C B2               or d
 1970+C50D 77               ld (hl),a
 1971+C50E 03               inc bc
 1972+C50F 23               inc hl
 1973+C510                  ;1,9
 1974+C510 0A               ld a,(bc)
 1975+C511 56               ld d,(hl)
 1976+C512 B2               or d
 1977+C513 77               ld (hl),a
 1978+C514 03               inc bc
 1979+C515
 1980+C515 11 1B 00         ld de,BUFFER_WINDOW_WIDTH-1
 1981+C518 19               add hl,de ;increment HL pointer
 1982+C519                  ;0,10
 1983+C519 0A               ld a,(bc)
 1984+C51A 56               ld d,(hl)
 1985+C51B B2               or d
 1986+C51C 77               ld (hl),a
 1987+C51D 03               inc bc
 1988+C51E 23               inc hl
 1989+C51F                  ;1,10
 1990+C51F 0A               ld a,(bc)
 1991+C520 56               ld d,(hl)
 1992+C521 B2               or d
 1993+C522 77               ld (hl),a
 1994+C523 03               inc bc
 1995+C524
 1996+C524 11 1B 00         ld de,BUFFER_WINDOW_WIDTH-1
 1997+C527 19               add hl,de ;increment HL pointer
 1998+C528                  ;0,11
 1999+C528 0A               ld a,(bc)
 2000+C529 56               ld d,(hl)
 2001+C52A B2               or d
 2002+C52B 77               ld (hl),a
 2003+C52C 03               inc bc
 2004+C52D 23               inc hl
 2005+C52E                  ;1,11
 2006+C52E 0A               ld a,(bc)
 2007+C52F 56               ld d,(hl)
 2008+C530 B2               or d
 2009+C531 77               ld (hl),a
 2010+C532 03               inc bc
 2011+C533
 2012+C533 11 1B 00         ld de,BUFFER_WINDOW_WIDTH-1
 2013+C536 19               add hl,de ;increment HL pointer
 2014+C537                  ;0,12
 2015+C537 0A               ld a,(bc)
 2016+C538 56               ld d,(hl)
 2017+C539 B2               or d
 2018+C53A 77               ld (hl),a
 2019+C53B 03               inc bc
 2020+C53C 23               inc hl
 2021+C53D                  ;1,12
 2022+C53D 0A               ld a,(bc)
 2023+C53E 56               ld d,(hl)
 2024+C53F B2               or d
 2025+C540 77               ld (hl),a
 2026+C541 03               inc bc
 2027+C542
 2028+C542 11 1B 00         ld de,BUFFER_WINDOW_WIDTH-1
 2029+C545 19               add hl,de ;increment HL pointer
 2030+C546                  ;0,13
 2031+C546 0A               ld a,(bc)
 2032+C547 56               ld d,(hl)
 2033+C548 B2               or d
 2034+C549 77               ld (hl),a
 2035+C54A 03               inc bc
 2036+C54B 23               inc hl
 2037+C54C                  ;1,13
 2038+C54C 0A               ld a,(bc)
 2039+C54D 56               ld d,(hl)
 2040+C54E B2               or d
 2041+C54F 77               ld (hl),a
 2042+C550 03               inc bc
 2043+C551
 2044+C551 11 1B 00         ld de,BUFFER_WINDOW_WIDTH-1
 2045+C554 19               add hl,de ;increment HL pointer
 2046+C555                  ;0,14
 2047+C555 0A               ld a,(bc)
 2048+C556 56               ld d,(hl)
 2049+C557 B2               or d
 2050+C558 77               ld (hl),a
 2051+C559 03               inc bc
 2052+C55A 23               inc hl
 2053+C55B                  ;1,14
 2054+C55B 0A               ld a,(bc)
 2055+C55C 56               ld d,(hl)
 2056+C55D B2               or d
 2057+C55E 77               ld (hl),a
 2058+C55F 03               inc bc
 2059+C560
 2060+C560 11 1B 00         ld de,BUFFER_WINDOW_WIDTH-1
 2061+C563 19               add hl,de ;increment HL pointer
 2062+C564                  ;0,15
 2063+C564 0A               ld a,(bc)
 2064+C565 56               ld d,(hl)
 2065+C566 B2               or d
 2066+C567 77               ld (hl),a
 2067+C568 03               inc bc
 2068+C569 23               inc hl
 2069+C56A                  ;1,15
 2070+C56A 0A               ld a,(bc)
 2071+C56B 56               ld d,(hl)
 2072+C56C B2               or d
 2073+C56D 77               ld (hl),a
 2074+C56E 03               inc bc
 2075+C56F
 2076+C56F 11 1B 00         ld de,BUFFER_WINDOW_WIDTH-1
 2077+C572 19               add hl,de ;increment HL pointer
 2078+C573                  ;0,16
 2079+C573 0A               ld a,(bc)
 2080+C574 56               ld d,(hl)
 2081+C575 B2               or d
 2082+C576 77               ld (hl),a
 2083+C577 03               inc bc
 2084+C578 23               inc hl
 2085+C579                  ;1,16
 2086+C579 0A               ld a,(bc)
 2087+C57A 56               ld d,(hl)
 2088+C57B B2               or d
 2089+C57C 77               ld (hl),a
 2090+C57D 03               inc bc
 2091+C57E
 2092+C57E 11 1B 00         ld de,BUFFER_WINDOW_WIDTH-1
 2093+C581 19               add hl,de ;increment HL pointer
 2094+C582                  ;0,17
 2095+C582 0A               ld a,(bc)
 2096+C583 56               ld d,(hl)
 2097+C584 B2               or d
 2098+C585 77               ld (hl),a
 2099+C586 03               inc bc
 2100+C587 23               inc hl
 2101+C588                  ;1,17
 2102+C588 0A               ld a,(bc)
 2103+C589 56               ld d,(hl)
 2104+C58A B2               or d
 2105+C58B 77               ld (hl),a
 2106+C58C 03               inc bc
 2107+C58D
 2108+C58D 11 1B 00         ld de,BUFFER_WINDOW_WIDTH-1
 2109+C590 19               add hl,de ;increment HL pointer
 2110+C591                  ;0,18
 2111+C591 0A               ld a,(bc)
 2112+C592 56               ld d,(hl)
 2113+C593 B2               or d
 2114+C594 77               ld (hl),a
 2115+C595 03               inc bc
 2116+C596 23               inc hl
 2117+C597                  ;1,18
 2118+C597 0A               ld a,(bc)
 2119+C598 56               ld d,(hl)
 2120+C599 B2               or d
 2121+C59A 77               ld (hl),a
 2122+C59B 03               inc bc
 2123+C59C
 2124+C59C 11 1B 00         ld de,BUFFER_WINDOW_WIDTH-1
 2125+C59F 19               add hl,de ;increment HL pointer
 2126+C5A0                  ;0,19
 2127+C5A0 0A               ld a,(bc)
 2128+C5A1 56               ld d,(hl)
 2129+C5A2 B2               or d
 2130+C5A3 77               ld (hl),a
 2131+C5A4 03               inc bc
 2132+C5A5 23               inc hl
 2133+C5A6                  ;1,19
 2134+C5A6 0A               ld a,(bc)
 2135+C5A7 56               ld d,(hl)
 2136+C5A8 B2               or d
 2137+C5A9 77               ld (hl),a
 2138+C5AA 03               inc bc
 2139+C5AB
 2140+C5AB 11 1B 00         ld de,BUFFER_WINDOW_WIDTH-1
 2141+C5AE 19               add hl,de ;increment HL pointer
 2142+C5AF                  ;0,20
 2143+C5AF 0A               ld a,(bc)
 2144+C5B0 56               ld d,(hl)
 2145+C5B1 B2               or d
 2146+C5B2 77               ld (hl),a
 2147+C5B3 03               inc bc
 2148+C5B4 23               inc hl
 2149+C5B5                  ;1,20
 2150+C5B5 0A               ld a,(bc)
 2151+C5B6 56               ld d,(hl)
 2152+C5B7 B2               or d
 2153+C5B8 77               ld (hl),a
 2154+C5B9 03               inc bc
 2155+C5BA
 2156+C5BA 11 1B 00         ld de,BUFFER_WINDOW_WIDTH-1
 2157+C5BD 19               add hl,de ;increment HL pointer
 2158+C5BE                  ;0,21
 2159+C5BE 0A               ld a,(bc)
 2160+C5BF 56               ld d,(hl)
 2161+C5C0 B2               or d
 2162+C5C1 77               ld (hl),a
 2163+C5C2 03               inc bc
 2164+C5C3 23               inc hl
 2165+C5C4                  ;1,21
 2166+C5C4 0A               ld a,(bc)
 2167+C5C5 56               ld d,(hl)
 2168+C5C6 B2               or d
 2169+C5C7 77               ld (hl),a
 2170+C5C8 03               inc bc
 2171+C5C9
 2172+C5C9 11 1B 00         ld de,BUFFER_WINDOW_WIDTH-1
 2173+C5CC 19               add hl,de ;increment HL pointer
 2174+C5CD                  ;0,22
 2175+C5CD 0A               ld a,(bc)
 2176+C5CE 56               ld d,(hl)
 2177+C5CF B2               or d
 2178+C5D0 77               ld (hl),a
 2179+C5D1 03               inc bc
 2180+C5D2 23               inc hl
 2181+C5D3                  ;1,22
 2182+C5D3 0A               ld a,(bc)
 2183+C5D4 56               ld d,(hl)
 2184+C5D5 B2               or d
 2185+C5D6 77               ld (hl),a
 2186+C5D7 03               inc bc
 2187+C5D8
 2188+C5D8 11 1B 00         ld de,BUFFER_WINDOW_WIDTH-1
 2189+C5DB 19               add hl,de ;increment HL pointer
 2190+C5DC                  ;0,23
 2191+C5DC 0A               ld a,(bc)
 2192+C5DD 56               ld d,(hl)
 2193+C5DE B2               or d
 2194+C5DF 77               ld (hl),a
 2195+C5E0 03               inc bc
 2196+C5E1 23               inc hl
 2197+C5E2                  ;1,23
 2198+C5E2 0A               ld a,(bc)
 2199+C5E3 56               ld d,(hl)
 2200+C5E4 B2               or d
 2201+C5E5 77               ld (hl),a
 2202+C5E6 03               inc bc
 2203+C5E7
 2204+C5E7 11 1B 00         ld de,BUFFER_WINDOW_WIDTH-1
 2205+C5EA 19               add hl,de ;increment HL pointer
 2206+C5EB                  ;0,24
 2207+C5EB 0A               ld a,(bc)
 2208+C5EC 56               ld d,(hl)
 2209+C5ED B2               or d
 2210+C5EE 77               ld (hl),a
 2211+C5EF 03               inc bc
 2212+C5F0 23               inc hl
 2213+C5F1                  ;1,24
 2214+C5F1 0A               ld a,(bc)
 2215+C5F2 56               ld d,(hl)
 2216+C5F3 B2               or d
 2217+C5F4 77               ld (hl),a
 2218+C5F5 03               inc bc
 2219+C5F6
 2220+C5F6 11 1B 00         ld de,BUFFER_WINDOW_WIDTH-1
 2221+C5F9 19               add hl,de ;increment HL pointer
 2222+C5FA                  ;0,25
 2223+C5FA 0A               ld a,(bc)
 2224+C5FB 56               ld d,(hl)
 2225+C5FC B2               or d
 2226+C5FD 77               ld (hl),a
 2227+C5FE 03               inc bc
 2228+C5FF 23               inc hl
 2229+C600                  ;1,25
 2230+C600 0A               ld a,(bc)
 2231+C601 56               ld d,(hl)
 2232+C602 B2               or d
 2233+C603 77               ld (hl),a
 2234+C604 03               inc bc
 2235+C605
 2236+C605 11 1B 00         ld de,BUFFER_WINDOW_WIDTH-1
 2237+C608 19               add hl,de ;increment HL pointer
 2238+C609                  ;0,26
 2239+C609 0A               ld a,(bc)
 2240+C60A 56               ld d,(hl)
 2241+C60B B2               or d
 2242+C60C 77               ld (hl),a
 2243+C60D 03               inc bc
 2244+C60E 23               inc hl
 2245+C60F                  ;1,26
 2246+C60F 0A               ld a,(bc)
 2247+C610 56               ld d,(hl)
 2248+C611 B2               or d
 2249+C612 77               ld (hl),a
 2250+C613 03               inc bc
 2251+C614
 2252+C614 11 1B 00         ld de,BUFFER_WINDOW_WIDTH-1
 2253+C617 19               add hl,de ;increment HL pointer
 2254+C618                  ;0,27
 2255+C618 0A               ld a,(bc)
 2256+C619 56               ld d,(hl)
 2257+C61A B2               or d
 2258+C61B 77               ld (hl),a
 2259+C61C 03               inc bc
 2260+C61D 23               inc hl
 2261+C61E                  ;1,27
 2262+C61E 0A               ld a,(bc)
 2263+C61F 56               ld d,(hl)
 2264+C620 B2               or d
 2265+C621 77               ld (hl),a
 2266+C622 03               inc bc
 2267+C623
 2268+C623 11 1B 00         ld de,BUFFER_WINDOW_WIDTH-1
 2269+C626 19               add hl,de ;increment HL pointer
 2270+C627                  ;0,28
 2271+C627 0A               ld a,(bc)
 2272+C628 56               ld d,(hl)
 2273+C629 B2               or d
 2274+C62A 77               ld (hl),a
 2275+C62B 03               inc bc
 2276+C62C 23               inc hl
 2277+C62D                  ;1,28
 2278+C62D 0A               ld a,(bc)
 2279+C62E 56               ld d,(hl)
 2280+C62F B2               or d
 2281+C630 77               ld (hl),a
 2282+C631 03               inc bc
 2283+C632
 2284+C632 11 1B 00         ld de,BUFFER_WINDOW_WIDTH-1
 2285+C635 19               add hl,de ;increment HL pointer
 2286+C636                  ;0,29
 2287+C636 0A               ld a,(bc)
 2288+C637 56               ld d,(hl)
 2289+C638 B2               or d
 2290+C639 77               ld (hl),a
 2291+C63A 03               inc bc
 2292+C63B 23               inc hl
 2293+C63C                  ;1,29
 2294+C63C 0A               ld a,(bc)
 2295+C63D 56               ld d,(hl)
 2296+C63E B2               or d
 2297+C63F 77               ld (hl),a
 2298+C640 03               inc bc
 2299+C641
 2300+C641 11 1B 00         ld de,BUFFER_WINDOW_WIDTH-1
 2301+C644 19               add hl,de ;increment HL pointer
 2302+C645                  ;0,30
 2303+C645 0A               ld a,(bc)
 2304+C646 56               ld d,(hl)
 2305+C647 B2               or d
 2306+C648 77               ld (hl),a
 2307+C649 03               inc bc
 2308+C64A 23               inc hl
 2309+C64B                  ;1,30
 2310+C64B 0A               ld a,(bc)
 2311+C64C 56               ld d,(hl)
 2312+C64D B2               or d
 2313+C64E 77               ld (hl),a
 2314+C64F 03               inc bc
 2315+C650 11 1B 00         ld de,BUFFER_WINDOW_WIDTH-1
 2316+C653 19               add hl,de ;increment HL pointer
 2317+C654                  ;0,31
 2318+C654 0A               ld a,(bc)
 2319+C655 56               ld d,(hl)
 2320+C656 B2               or d
 2321+C657 77               ld (hl),a
 2322+C658 03               inc bc
 2323+C659 23               inc hl
 2324+C65A                  ;1,31
 2325+C65A 0A               ld a,(bc)
 2326+C65B 56               ld d,(hl)
 2327+C65C B2               or d
 2328+C65D 77               ld (hl),a
 2329+C65E 03               inc bc
 2330+C65F 11 1B 00         ld de,BUFFER_WINDOW_WIDTH-1
 2331+C662 19               add hl,de ;increment HL pointer
 2332+C663 C9               ret
 2333+C664              ;
 2334+C664
 2335+C664
 2336+C664              ; ;;Window Width of 24....
 2337+C664              ; ;INPUTS:
 2338+C664              ; ;wwidth=24
 2339+C664              ; ;BC=sprite pointer
 2340+C664              ; ;DE=xy
 2341+C664              ; drawspritedesks:
 2342+C664              ;     ld hl,0
 2343+C664              ;     ld a,e
 2344+C664              ;     ld l,a
 2345+C664              ;     add hl,hl ;HL= y*2
 2346+C664              ;     add hl,hl ;HL= y*4
 2347+C664              ;     push de
 2348+C664              ;     push hl
 2349+C664              ;     pop de ;DE=y*4
 2350+C664              ;     add hl,hl ;HL= y*8
 2351+C664              ;     push bc
 2352+C664              ;     push hl
 2353+C664              ;     pop bc ;BC=y*8
 2354+C664              ;     add hl,hl
 2355+C664              ;     add hl,bc ;HL=y*24
 2356+C664              ;     add hl,de ;HL=y*28
 2357+C664              ;     pop bc
 2358+C664              ;     pop de
 2359+C664              ;     ld e,d
 2360+C664              ;     ld d,0
 2361+C664              ;     add hl,de ;HL+=x
 2362+C664              ;     ld de,GAME_WINDOW_START
 2363+C664              ;     add hl,de ;HL+=memstart
 2364+C664              ;     ;start drawing bytes...
 2365+C664              ;     ;0,0
 2366+C664              ;     ld a,(bc)
 2367+C664              ;     ld (hl),a
 2368+C664              ;     inc bc
 2369+C664              ;     inc hl
 2370+C664              ;     ;1,0
 2371+C664              ;     ld a,(bc)
 2372+C664              ;     ld (hl),a
 2373+C664              ;     inc bc
 2374+C664              ;     inc hl
 2375+C664              ;     ;2,0
 2376+C664              ;     ld a,(bc)
 2377+C664              ;     ld (hl),a
 2378+C664              ;     inc bc
 2379+C664              ;     inc hl
 2380+C664              ;     ;3,0
 2381+C664              ;     ld a,(bc)
 2382+C664              ;     ld (hl),a
 2383+C664              ;     inc bc
 2384+C664              ;     ld de,BUFFER_WINDOW_WIDTH-3
 2385+C664              ;     add hl,de ;increment HL pointer by wwidth
 2386+C664              ;     ;0,1
 2387+C664              ;     ld a,(bc)
 2388+C664              ;     ld (hl),a
 2389+C664              ;     inc bc
 2390+C664              ;     inc hl
 2391+C664              ;     ;1,1
 2392+C664              ;     ld a,(bc)
 2393+C664              ;     ld (hl),a
 2394+C664              ;     inc bc
 2395+C664              ;     inc hl
 2396+C664              ;     ;2,1
 2397+C664              ;     ld a,(bc)
 2398+C664              ;     ld (hl),a
 2399+C664              ;     inc bc
 2400+C664              ;     inc hl
 2401+C664              ;     ;3,1
 2402+C664              ;     ld a,(bc)
 2403+C664              ;     ld (hl),a
 2404+C664              ;     inc bc
 2405+C664              ;     ld de,BUFFER_WINDOW_WIDTH-3
 2406+C664              ;     add hl,de ;increment HL pointer by wwidth
 2407+C664              ;     ;0,2
 2408+C664              ;     ld a,(bc)
 2409+C664              ;     ld (hl),a
 2410+C664              ;     inc bc
 2411+C664              ;     inc hl
 2412+C664              ;     ;1,2
 2413+C664              ;     ld a,(bc)
 2414+C664              ;     ld (hl),a
 2415+C664              ;     inc bc
 2416+C664              ;     inc hl
 2417+C664              ;     ;2,2
 2418+C664              ;     ld a,(bc)
 2419+C664              ;     ld (hl),a
 2420+C664              ;     inc bc
 2421+C664              ;     inc hl
 2422+C664              ;     ;3,2
 2423+C664              ;     ld a,(bc)
 2424+C664              ;     ld (hl),a
 2425+C664              ;     inc bc
 2426+C664              ;     ld de,BUFFER_WINDOW_WIDTH-3
 2427+C664              ;     add hl,de ;increment HL pointer by wwidth
 2428+C664              ;     ;0,3
 2429+C664              ;     ld a,(bc)
 2430+C664              ;     ld (hl),a
 2431+C664              ;     inc bc
 2432+C664              ;     inc hl
 2433+C664              ;     ;1,3
 2434+C664              ;     ld a,(bc)
 2435+C664              ;     ld (hl),a
 2436+C664              ;     inc bc
 2437+C664              ;     inc hl
 2438+C664              ;     ;2,3
 2439+C664              ;     ld a,(bc)
 2440+C664              ;     ld (hl),a
 2441+C664              ;     inc bc
 2442+C664              ;     inc hl
 2443+C664              ;     ;3,3
 2444+C664              ;     ld a,(bc)
 2445+C664              ;     ld (hl),a
 2446+C664              ;     inc bc
 2447+C664              ;     ld de,BUFFER_WINDOW_WIDTH-3
 2448+C664              ;     add hl,de ;increment HL pointer by wwidth
 2449+C664              ;     ;0,4
 2450+C664              ;     ld a,(bc)
 2451+C664              ;     ld (hl),a
 2452+C664              ;     inc bc
 2453+C664              ;     inc hl
 2454+C664              ;     ;1,4
 2455+C664              ;     ld a,(bc)
 2456+C664              ;     ld (hl),a
 2457+C664              ;     inc bc
 2458+C664              ;     inc hl
 2459+C664              ;     ;2,4
 2460+C664              ;     ld a,(bc)
 2461+C664              ;     ld (hl),a
 2462+C664              ;     inc bc
 2463+C664              ;     inc hl
 2464+C664              ;     ;3,4
 2465+C664              ;     ld a,(bc)
 2466+C664              ;     ld (hl),a
 2467+C664              ;     inc bc
 2468+C664              ;     ld de,BUFFER_WINDOW_WIDTH-3
 2469+C664              ;     add hl,de ;increment HL pointer by wwidth
 2470+C664              ;     ;0,5
 2471+C664              ;     ld a,(bc)
 2472+C664              ;     ld (hl),a
 2473+C664              ;     inc bc
 2474+C664              ;     inc hl
 2475+C664              ;     ;1,5
 2476+C664              ;     ld a,(bc)
 2477+C664              ;     ld (hl),a
 2478+C664              ;     inc bc
 2479+C664              ;     inc hl
 2480+C664              ;     ;2,5
 2481+C664              ;     ld a,(bc)
 2482+C664              ;     ld (hl),a
 2483+C664              ;     inc bc
 2484+C664              ;     inc hl
 2485+C664              ;     ;3,5
 2486+C664              ;     ld a,(bc)
 2487+C664              ;     ld (hl),a
 2488+C664              ;     inc bc
 2489+C664              ;     ld de,BUFFER_WINDOW_WIDTH-3
 2490+C664              ;     add hl,de ;increment HL pointer by wwidth
 2491+C664              ;     ;0,6
 2492+C664              ;     ld a,(bc)
 2493+C664              ;     ld (hl),a
 2494+C664              ;     inc bc
 2495+C664              ;     inc hl
 2496+C664              ;     ;1,6
 2497+C664              ;     ld a,(bc)
 2498+C664              ;     ld (hl),a
 2499+C664              ;     inc bc
 2500+C664              ;     inc hl
 2501+C664              ;     ;2,6
 2502+C664              ;     ld a,(bc)
 2503+C664              ;     ld (hl),a
 2504+C664              ;     inc bc
 2505+C664              ;     inc hl
 2506+C664              ;     ;3,6
 2507+C664              ;     ld a,(bc)
 2508+C664              ;     ld (hl),a
 2509+C664              ;     inc bc
 2510+C664              ;     ld de,BUFFER_WINDOW_WIDTH-3
 2511+C664              ;     add hl,de ;increment HL pointer by wwidth
 2512+C664              ;     ;0,7
 2513+C664              ;     ld a,(bc)
 2514+C664              ;     ld (hl),a
 2515+C664              ;     inc bc
 2516+C664              ;     inc hl
 2517+C664              ;     ;1,7
 2518+C664              ;     ld a,(bc)
 2519+C664              ;     ld (hl),a
 2520+C664              ;     inc bc
 2521+C664              ;     inc hl
 2522+C664              ;     ;2,7
 2523+C664              ;     ld a,(bc)
 2524+C664              ;     ld (hl),a
 2525+C664              ;     inc bc
 2526+C664              ;     inc hl
 2527+C664              ;     ;3,7
 2528+C664              ;     ld a,(bc)
 2529+C664              ;     ld (hl),a
 2530+C664              ;     inc bc
 2531+C664              ;     ld de,BUFFER_WINDOW_WIDTH-3
 2532+C664              ;     add hl,de ;increment HL pointer by wwidth
 2533+C664              ;     ;0,8
 2534+C664              ;     ld a,(bc)
 2535+C664              ;     ld (hl),a
 2536+C664              ;     inc bc
 2537+C664              ;     inc hl
 2538+C664              ;     ;1,8
 2539+C664              ;     ld a,(bc)
 2540+C664              ;     ld (hl),a
 2541+C664              ;     inc bc
 2542+C664              ;     inc hl
 2543+C664              ;     ;2,8
 2544+C664              ;     ld a,(bc)
 2545+C664              ;     ld (hl),a
 2546+C664              ;     inc bc
 2547+C664              ;     inc hl
 2548+C664              ;     ;3,8
 2549+C664              ;     ld a,(bc)
 2550+C664              ;     ld (hl),a
 2551+C664              ;     inc bc
 2552+C664              ;     ld de,BUFFER_WINDOW_WIDTH-3
 2553+C664              ;     add hl,de ;increment HL pointer by wwidth
 2554+C664              ;     ;0,9
 2555+C664              ;     ld a,(bc)
 2556+C664              ;     ld (hl),a
 2557+C664              ;     inc bc
 2558+C664              ;     inc hl
 2559+C664              ;     ;1,9
 2560+C664              ;     ld a,(bc)
 2561+C664              ;     ld (hl),a
 2562+C664              ;     inc bc
 2563+C664              ;     inc hl
 2564+C664              ;     ;2,9
 2565+C664              ;     ld a,(bc)
 2566+C664              ;     ld (hl),a
 2567+C664              ;     inc bc
 2568+C664              ;     inc hl
 2569+C664              ;     ;3,9
 2570+C664              ;     ld a,(bc)
 2571+C664              ;     ld (hl),a
 2572+C664              ;     inc bc
 2573+C664              ;     ld de,BUFFER_WINDOW_WIDTH-3
 2574+C664              ;     add hl,de ;increment HL pointer by wwidth
 2575+C664              ;     ;0,10
 2576+C664              ;     ld a,(bc)
 2577+C664              ;     ld (hl),a
 2578+C664              ;     inc bc
 2579+C664              ;     inc hl
 2580+C664              ;     ;1,10
 2581+C664              ;     ld a,(bc)
 2582+C664              ;     ld (hl),a
 2583+C664              ;     inc bc
 2584+C664              ;     inc hl
 2585+C664              ;     ;2,10
 2586+C664              ;     ld a,(bc)
 2587+C664              ;     ld (hl),a
 2588+C664              ;     inc bc
 2589+C664              ;     inc hl
 2590+C664              ;     ;3,10
 2591+C664              ;     ld a,(bc)
 2592+C664              ;     ld (hl),a
 2593+C664              ;     inc bc
 2594+C664              ;     ld de,BUFFER_WINDOW_WIDTH-3
 2595+C664              ;     add hl,de ;increment HL pointer by wwidth
 2596+C664              ;     ;0,11
 2597+C664              ;     ld a,(bc)
 2598+C664              ;     ld (hl),a
 2599+C664              ;     inc bc
 2600+C664              ;     inc hl
 2601+C664              ;     ;1,11
 2602+C664              ;     ld a,(bc)
 2603+C664              ;     ld (hl),a
 2604+C664              ;     inc bc
 2605+C664              ;     inc hl
 2606+C664              ;     ;2,11
 2607+C664              ;     ld a,(bc)
 2608+C664              ;     ld (hl),a
 2609+C664              ;     inc bc
 2610+C664              ;     inc hl
 2611+C664              ;     ;3,11
 2612+C664              ;     ld a,(bc)
 2613+C664              ;     ld (hl),a
 2614+C664              ;     inc bc
 2615+C664              ;     ld de,BUFFER_WINDOW_WIDTH-3
 2616+C664              ;     add hl,de ;increment HL pointer by wwidth
 2617+C664              ;     ;0,12
 2618+C664              ;     ld a,(bc)
 2619+C664              ;     ld (hl),a
 2620+C664              ;     inc bc
 2621+C664              ;     inc hl
 2622+C664              ;     ;1,12
 2623+C664              ;     ld a,(bc)
 2624+C664              ;     ld (hl),a
 2625+C664              ;     inc bc
 2626+C664              ;     inc hl
 2627+C664              ;     ;2,12
 2628+C664              ;     ld a,(bc)
 2629+C664              ;     ld (hl),a
 2630+C664              ;     inc bc
 2631+C664              ;     inc hl
 2632+C664              ;     ;3,12
 2633+C664              ;     ld a,(bc)
 2634+C664              ;     ld (hl),a
 2635+C664              ;     inc bc
 2636+C664              ;     ld de,BUFFER_WINDOW_WIDTH-3
 2637+C664              ;     add hl,de ;increment HL pointer by wwidth
 2638+C664              ;     ;0,13
 2639+C664              ;     ld a,(bc)
 2640+C664              ;     ld (hl),a
 2641+C664              ;     inc bc
 2642+C664              ;     inc hl
 2643+C664              ;     ;1,13
 2644+C664              ;     ld a,(bc)
 2645+C664              ;     ld (hl),a
 2646+C664              ;     inc bc
 2647+C664              ;     inc hl
 2648+C664              ;     ;2,13
 2649+C664              ;     ld a,(bc)
 2650+C664              ;     ld (hl),a
 2651+C664              ;     inc bc
 2652+C664              ;     inc hl
 2653+C664              ;     ;3,13
 2654+C664              ;     ld a,(bc)
 2655+C664              ;     ld (hl),a
 2656+C664              ;     inc bc
 2657+C664              ;     ld de,BUFFER_WINDOW_WIDTH-3
 2658+C664              ;     add hl,de ;increment HL pointer by wwidth
 2659+C664              ;     ;0,14
 2660+C664              ;     ld a,(bc)
 2661+C664              ;     ld (hl),a
 2662+C664              ;     inc bc
 2663+C664              ;     inc hl
 2664+C664              ;     ;1,14
 2665+C664              ;     ld a,(bc)
 2666+C664              ;     ld (hl),a
 2667+C664              ;     inc bc
 2668+C664              ;     inc hl
 2669+C664              ;     ;2,14
 2670+C664              ;     ld a,(bc)
 2671+C664              ;     ld (hl),a
 2672+C664              ;     inc bc
 2673+C664              ;     inc hl
 2674+C664              ;     ;3,14
 2675+C664              ;     ld a,(bc)
 2676+C664              ;     ld (hl),a
 2677+C664              ;     inc bc
 2678+C664              ;     ld de,BUFFER_WINDOW_WIDTH-3
 2679+C664              ;     add hl,de ;increment HL pointer by wwidth
 2680+C664              ;     ;0,15
 2681+C664              ;     ld a,(bc)
 2682+C664              ;     ld (hl),a
 2683+C664              ;     inc bc
 2684+C664              ;     inc hl
 2685+C664              ;     ;1,
 2686+C664              ;     ld a,(bc)
 2687+C664              ;     ld (hl),a
 2688+C664              ;     inc bc
 2689+C664              ;     inc hl
 2690+C664              ;     ;2,
 2691+C664              ;     ld a,(bc)
 2692+C664              ;     ld (hl),a
 2693+C664              ;     inc bc
 2694+C664              ;     inc hl
 2695+C664              ;     ;3,
 2696+C664              ;     ld a,(bc)
 2697+C664              ;     ld (hl),a
 2698+C664              ;     inc bc
 2699+C664              ;     ld de,BUFFER_WINDOW_WIDTH-3
 2700+C664              ;     add hl,de ;increment HL pointer by wwidth
 2701+C664              ;     ;0,16
 2702+C664              ;     ld a,(bc)
 2703+C664              ;     ld (hl),a
 2704+C664              ;     inc bc
 2705+C664              ;     inc hl
 2706+C664              ;     ;1,
 2707+C664              ;     ld a,(bc)
 2708+C664              ;     ld (hl),a
 2709+C664              ;     inc bc
 2710+C664              ;     inc hl
 2711+C664              ;     ;2,
 2712+C664              ;     ld a,(bc)
 2713+C664              ;     ld (hl),a
 2714+C664              ;     inc bc
 2715+C664              ;     inc hl
 2716+C664              ;     ;3,
 2717+C664              ;     ld a,(bc)
 2718+C664              ;     ld (hl),a
 2719+C664              ;     inc bc
 2720+C664              ;     ld de,BUFFER_WINDOW_WIDTH-3
 2721+C664              ;     add hl,de ;increment HL pointer by wwidth
 2722+C664              ;     ;0,17
 2723+C664              ;     ld a,(bc)
 2724+C664              ;     ld (hl),a
 2725+C664              ;     inc bc
 2726+C664              ;     inc hl
 2727+C664              ;     ;1,
 2728+C664              ;     ld a,(bc)
 2729+C664              ;     ld (hl),a
 2730+C664              ;     inc bc
 2731+C664              ;     inc hl
 2732+C664              ;     ;2,
 2733+C664              ;     ld a,(bc)
 2734+C664              ;     ld (hl),a
 2735+C664              ;     inc bc
 2736+C664              ;     inc hl
 2737+C664              ;     ;3,
 2738+C664              ;     ld a,(bc)
 2739+C664              ;     ld (hl),a
 2740+C664              ;     inc bc
 2741+C664              ;     ld de,BUFFER_WINDOW_WIDTH-3
 2742+C664              ;     add hl,de ;increment HL pointer by wwidth
 2743+C664              ;     ;0,18
 2744+C664              ;     ld a,(bc)
 2745+C664              ;     ld (hl),a
 2746+C664              ;     inc bc
 2747+C664              ;     inc hl
 2748+C664              ;     ;1,
 2749+C664              ;     ld a,(bc)
 2750+C664              ;     ld (hl),a
 2751+C664              ;     inc bc
 2752+C664              ;     inc hl
 2753+C664              ;     ;2,
 2754+C664              ;     ld a,(bc)
 2755+C664              ;     ld (hl),a
 2756+C664              ;     inc bc
 2757+C664              ;     inc hl
 2758+C664              ;     ;3,
 2759+C664              ;     ld a,(bc)
 2760+C664              ;     ld (hl),a
 2761+C664              ;     inc bc
 2762+C664              ;     ld de,BUFFER_WINDOW_WIDTH-3
 2763+C664              ;     add hl,de ;increment HL pointer by wwidth
 2764+C664              ;     ;0,19
 2765+C664              ;     ld a,(bc)
 2766+C664              ;     ld (hl),a
 2767+C664              ;     inc bc
 2768+C664              ;     inc hl
 2769+C664              ;     ;1,
 2770+C664              ;     ld a,(bc)
 2771+C664              ;     ld (hl),a
 2772+C664              ;     inc bc
 2773+C664              ;     inc hl
 2774+C664              ;     ;2,
 2775+C664              ;     ld a,(bc)
 2776+C664              ;     ld (hl),a
 2777+C664              ;     inc bc
 2778+C664              ;     inc hl
 2779+C664              ;     ;3,
 2780+C664              ;     ld a,(bc)
 2781+C664              ;     ld (hl),a
 2782+C664              ;     inc bc
 2783+C664              ;     ld de,BUFFER_WINDOW_WIDTH-3
 2784+C664              ;     add hl,de ;increment HL pointer by wwidth
 2785+C664              ;     ;0,20
 2786+C664              ;     ld a,(bc)
 2787+C664              ;     ld (hl),a
 2788+C664              ;     inc bc
 2789+C664              ;     inc hl
 2790+C664              ;     ;1,
 2791+C664              ;     ld a,(bc)
 2792+C664              ;     ld (hl),a
 2793+C664              ;     inc bc
 2794+C664              ;     inc hl
 2795+C664              ;     ;2,
 2796+C664              ;     ld a,(bc)
 2797+C664              ;     ld (hl),a
 2798+C664              ;     inc bc
 2799+C664              ;     inc hl
 2800+C664              ;     ;3,
 2801+C664              ;     ld a,(bc)
 2802+C664              ;     ld (hl),a
 2803+C664              ;     inc bc
 2804+C664              ;     ld de,BUFFER_WINDOW_WIDTH-3
 2805+C664              ;     add hl,de ;increment HL pointer by wwidth
 2806+C664              ;     ;0,21
 2807+C664              ;     ld a,(bc)
 2808+C664              ;     ld (hl),a
 2809+C664              ;     inc bc
 2810+C664              ;     inc hl
 2811+C664              ;     ;1,
 2812+C664              ;     ld a,(bc)
 2813+C664              ;     ld (hl),a
 2814+C664              ;     inc bc
 2815+C664              ;     inc hl
 2816+C664              ;     ;2,
 2817+C664              ;     ld a,(bc)
 2818+C664              ;     ld (hl),a
 2819+C664              ;     inc bc
 2820+C664              ;     inc hl
 2821+C664              ;     ;3,
 2822+C664              ;     ld a,(bc)
 2823+C664              ;     ld (hl),a
 2824+C664              ;     inc bc
 2825+C664              ;     ld de,BUFFER_WINDOW_WIDTH-3
 2826+C664              ;     add hl,de ;increment HL pointer by wwidth
 2827+C664              ;     ;0,22
 2828+C664              ;     ld a,(bc)
 2829+C664              ;     ld (hl),a
 2830+C664              ;     inc bc
 2831+C664              ;     inc hl
 2832+C664              ;     ;1,
 2833+C664              ;     ld a,(bc)
 2834+C664              ;     ld (hl),a
 2835+C664              ;     inc bc
 2836+C664              ;     inc hl
 2837+C664              ;     ;2,
 2838+C664              ;     ld a,(bc)
 2839+C664              ;     ld (hl),a
 2840+C664              ;     inc bc
 2841+C664              ;     inc hl
 2842+C664              ;     ;3,
 2843+C664              ;     ld a,(bc)
 2844+C664              ;     ld (hl),a
 2845+C664              ;     inc bc
 2846+C664              ;     ld de,BUFFER_WINDOW_WIDTH-3
 2847+C664              ;     add hl,de ;increment HL pointer by wwidth
 2848+C664              ;     ;0,23
 2849+C664              ;     ld a,(bc)
 2850+C664              ;     ld (hl),a
 2851+C664              ;     inc bc
 2852+C664              ;     inc hl
 2853+C664              ;     ;1,
 2854+C664              ;     ld a,(bc)
 2855+C664              ;     ld (hl),a
 2856+C664              ;     inc bc
 2857+C664              ;     inc hl
 2858+C664              ;     ;2,
 2859+C664              ;     ld a,(bc)
 2860+C664              ;     ld (hl),a
 2861+C664              ;     inc bc
 2862+C664              ;     inc hl
 2863+C664              ;     ;3,
 2864+C664              ;     ld a,(bc)
 2865+C664              ;     ld (hl),a
 2866+C664              ;     inc bc
 2867+C664              ;     ld de,BUFFER_WINDOW_WIDTH-3
 2868+C664              ;     add hl,de ;increment HL pointer by wwidth
 2869+C664              ;     ret
 2870+C664              ; ;
 2871+C664
 2872+C664
 2873+C664
 2874+C664
 2875+C664
 2876+C664
 2877+C664
 2878+C664
 2879+C664
 2880+C664
 2881+C664
 2882+C664
 2883+C664
 2884+C664
 2885+C664
 2886+C664
 2887+C664
 2888+C664
 2889+C664
 2890+C664
 2891+C664              ;;Window Width of 24....
 2892+C664              ;INPUTS:
 2893+C664              ;wwidth=24
 2894+C664              ;BC=sprite pointer
 2895+C664              ;DE=xy
 2896+C664              drawsprite32_16:
 2897+C664 21 00 00         ld hl,0
 2898+C667 7B               ld a,e
 2899+C668 6F               ld l,a
 2900+C669 29               add hl,hl ;HL= y*2
 2901+C66A 29               add hl,hl ;HL= y*4
 2902+C66B D5               push de
 2903+C66C E5               push hl
 2904+C66D D1               pop de ;DE=y*4
 2905+C66E 29               add hl,hl ;HL= y*8
 2906+C66F C5               push bc
 2907+C670 E5               push hl
 2908+C671 C1               pop bc ;BC=y*8
 2909+C672 29               add hl,hl
 2910+C673 09               add hl,bc ;HL=y*24
 2911+C674 19               add hl,de ;HL=y*28
 2912+C675 C1               pop bc
 2913+C676 D1               pop de
 2914+C677 5A               ld e,d
 2915+C678 16 00            ld d,0
 2916+C67A 19               add hl,de ;HL+=x
 2917+C67B 11 00 80         ld de,GAME_WINDOW_START
 2918+C67E 19               add hl,de ;HL+=memstart
 2919+C67F                  ;start drawing bytes...
 2920+C67F                  ;0,0
 2921+C67F 0A               ld a,(bc)
 2922+C680 56               ld d,(hl)
 2923+C681 B2               or d
 2924+C682 77               ld (hl),a
 2925+C683 03               inc bc
 2926+C684 23               inc hl
 2927+C685                  ;1,0
 2928+C685 0A               ld a,(bc)
 2929+C686 56               ld d,(hl)
 2930+C687 B2               or d
 2931+C688 77               ld (hl),a
 2932+C689 03               inc bc
 2933+C68A 23               inc hl
 2934+C68B                  ;2,0
 2935+C68B 0A               ld a,(bc)
 2936+C68C 56               ld d,(hl)
 2937+C68D B2               or d
 2938+C68E 77               ld (hl),a
 2939+C68F 03               inc bc
 2940+C690 23               inc hl
 2941+C691                  ;3,0
 2942+C691 0A               ld a,(bc)
 2943+C692 56               ld d,(hl)
 2944+C693 B2               or d
 2945+C694 77               ld (hl),a
 2946+C695 03               inc bc
 2947+C696 11 19 00         ld de,BUFFER_WINDOW_WIDTH-3
 2948+C699 19               add hl,de ;increment HL pointer by wwidth
 2949+C69A                  ;0,1
 2950+C69A 0A               ld a,(bc)
 2951+C69B 56               ld d,(hl)
 2952+C69C B2               or d
 2953+C69D 77               ld (hl),a
 2954+C69E 03               inc bc
 2955+C69F 23               inc hl
 2956+C6A0                  ;1,1
 2957+C6A0 0A               ld a,(bc)
 2958+C6A1 56               ld d,(hl)
 2959+C6A2 B2               or d
 2960+C6A3 77               ld (hl),a
 2961+C6A4 03               inc bc
 2962+C6A5 23               inc hl
 2963+C6A6                  ;2,1
 2964+C6A6 0A               ld a,(bc)
 2965+C6A7 56               ld d,(hl)
 2966+C6A8 B2               or d
 2967+C6A9 77               ld (hl),a
 2968+C6AA 03               inc bc
 2969+C6AB 23               inc hl
 2970+C6AC                  ;3,1
 2971+C6AC 0A               ld a,(bc)
 2972+C6AD 56               ld d,(hl)
 2973+C6AE B2               or d
 2974+C6AF 77               ld (hl),a
 2975+C6B0 03               inc bc
 2976+C6B1 11 19 00         ld de,BUFFER_WINDOW_WIDTH-3
 2977+C6B4 19               add hl,de ;increment HL pointer by wwidth
 2978+C6B5                  ;0,2
 2979+C6B5 0A               ld a,(bc)
 2980+C6B6 56               ld d,(hl)
 2981+C6B7 B2               or d
 2982+C6B8 77               ld (hl),a
 2983+C6B9 03               inc bc
 2984+C6BA 23               inc hl
 2985+C6BB                  ;1,2
 2986+C6BB 0A               ld a,(bc)
 2987+C6BC 56               ld d,(hl)
 2988+C6BD B2               or d
 2989+C6BE 77               ld (hl),a
 2990+C6BF 03               inc bc
 2991+C6C0 23               inc hl
 2992+C6C1                  ;2,2
 2993+C6C1 0A               ld a,(bc)
 2994+C6C2 56               ld d,(hl)
 2995+C6C3 B2               or d
 2996+C6C4 77               ld (hl),a
 2997+C6C5 03               inc bc
 2998+C6C6 23               inc hl
 2999+C6C7                  ;3,2
 3000+C6C7 0A               ld a,(bc)
 3001+C6C8 56               ld d,(hl)
 3002+C6C9 B2               or d
 3003+C6CA 77               ld (hl),a
 3004+C6CB 03               inc bc
 3005+C6CC 11 19 00         ld de,BUFFER_WINDOW_WIDTH-3
 3006+C6CF 19               add hl,de ;increment HL pointer by wwidth
 3007+C6D0                  ;0,3
 3008+C6D0 0A               ld a,(bc)
 3009+C6D1 56               ld d,(hl)
 3010+C6D2 B2               or d
 3011+C6D3 77               ld (hl),a
 3012+C6D4 03               inc bc
 3013+C6D5 23               inc hl
 3014+C6D6                  ;1,3
 3015+C6D6 0A               ld a,(bc)
 3016+C6D7 56               ld d,(hl)
 3017+C6D8 B2               or d
 3018+C6D9 77               ld (hl),a
 3019+C6DA 03               inc bc
 3020+C6DB 23               inc hl
 3021+C6DC                  ;2,3
 3022+C6DC 0A               ld a,(bc)
 3023+C6DD 56               ld d,(hl)
 3024+C6DE B2               or d
 3025+C6DF 77               ld (hl),a
 3026+C6E0 03               inc bc
 3027+C6E1 23               inc hl
 3028+C6E2                  ;3,3
 3029+C6E2 0A               ld a,(bc)
 3030+C6E3 56               ld d,(hl)
 3031+C6E4 B2               or d
 3032+C6E5 77               ld (hl),a
 3033+C6E6 03               inc bc
 3034+C6E7 11 19 00         ld de,BUFFER_WINDOW_WIDTH-3
 3035+C6EA 19               add hl,de ;increment HL pointer by wwidth
 3036+C6EB                  ;0,4
 3037+C6EB 0A               ld a,(bc)
 3038+C6EC 56               ld d,(hl)
 3039+C6ED B2               or d
 3040+C6EE 77               ld (hl),a
 3041+C6EF 03               inc bc
 3042+C6F0 23               inc hl
 3043+C6F1                  ;1,4
 3044+C6F1 0A               ld a,(bc)
 3045+C6F2 56               ld d,(hl)
 3046+C6F3 B2               or d
 3047+C6F4 77               ld (hl),a
 3048+C6F5 03               inc bc
 3049+C6F6 23               inc hl
 3050+C6F7                  ;2,4
 3051+C6F7 0A               ld a,(bc)
 3052+C6F8 56               ld d,(hl)
 3053+C6F9 B2               or d
 3054+C6FA 77               ld (hl),a
 3055+C6FB 03               inc bc
 3056+C6FC 23               inc hl
 3057+C6FD                  ;3,4
 3058+C6FD 0A               ld a,(bc)
 3059+C6FE 56               ld d,(hl)
 3060+C6FF B2               or d
 3061+C700 77               ld (hl),a
 3062+C701 03               inc bc
 3063+C702 11 19 00         ld de,BUFFER_WINDOW_WIDTH-3
 3064+C705 19               add hl,de ;increment HL pointer by wwidth
 3065+C706                  ;0,5
 3066+C706 0A               ld a,(bc)
 3067+C707 56               ld d,(hl)
 3068+C708 B2               or d
 3069+C709 77               ld (hl),a
 3070+C70A 03               inc bc
 3071+C70B 23               inc hl
 3072+C70C                  ;1,5
 3073+C70C 0A               ld a,(bc)
 3074+C70D 56               ld d,(hl)
 3075+C70E B2               or d
 3076+C70F 77               ld (hl),a
 3077+C710 03               inc bc
 3078+C711 23               inc hl
 3079+C712                  ;2,5
 3080+C712 0A               ld a,(bc)
 3081+C713 56               ld d,(hl)
 3082+C714 B2               or d
 3083+C715 77               ld (hl),a
 3084+C716 03               inc bc
 3085+C717 23               inc hl
 3086+C718                  ;3,5
 3087+C718 0A               ld a,(bc)
 3088+C719 56               ld d,(hl)
 3089+C71A B2               or d
 3090+C71B 77               ld (hl),a
 3091+C71C 03               inc bc
 3092+C71D 11 19 00         ld de,BUFFER_WINDOW_WIDTH-3
 3093+C720 19               add hl,de ;increment HL pointer by wwidth
 3094+C721                  ;0,6
 3095+C721 0A               ld a,(bc)
 3096+C722 56               ld d,(hl)
 3097+C723 B2               or d
 3098+C724 77               ld (hl),a
 3099+C725 03               inc bc
 3100+C726 23               inc hl
 3101+C727                  ;1,6
 3102+C727 0A               ld a,(bc)
 3103+C728 56               ld d,(hl)
 3104+C729 B2               or d
 3105+C72A 77               ld (hl),a
 3106+C72B 03               inc bc
 3107+C72C 23               inc hl
 3108+C72D                  ;2,6
 3109+C72D 0A               ld a,(bc)
 3110+C72E 56               ld d,(hl)
 3111+C72F B2               or d
 3112+C730 77               ld (hl),a
 3113+C731 03               inc bc
 3114+C732 23               inc hl
 3115+C733                  ;3,6
 3116+C733 0A               ld a,(bc)
 3117+C734 56               ld d,(hl)
 3118+C735 B2               or d
 3119+C736 77               ld (hl),a
 3120+C737 03               inc bc
 3121+C738 11 19 00         ld de,BUFFER_WINDOW_WIDTH-3
 3122+C73B 19               add hl,de ;increment HL pointer by wwidth
 3123+C73C                  ;0,7
 3124+C73C 0A               ld a,(bc)
 3125+C73D 56               ld d,(hl)
 3126+C73E B2               or d
 3127+C73F 77               ld (hl),a
 3128+C740 03               inc bc
 3129+C741 23               inc hl
 3130+C742                  ;1,7
 3131+C742 0A               ld a,(bc)
 3132+C743 56               ld d,(hl)
 3133+C744 B2               or d
 3134+C745 77               ld (hl),a
 3135+C746 03               inc bc
 3136+C747 23               inc hl
 3137+C748                  ;2,7
 3138+C748 0A               ld a,(bc)
 3139+C749 56               ld d,(hl)
 3140+C74A B2               or d
 3141+C74B 77               ld (hl),a
 3142+C74C 03               inc bc
 3143+C74D 23               inc hl
 3144+C74E                  ;3,7
 3145+C74E 0A               ld a,(bc)
 3146+C74F 56               ld d,(hl)
 3147+C750 B2               or d
 3148+C751 77               ld (hl),a
 3149+C752 03               inc bc
 3150+C753 11 19 00         ld de,BUFFER_WINDOW_WIDTH-3
 3151+C756 19               add hl,de ;increment HL pointer by wwidth
 3152+C757                  ;0,8
 3153+C757 0A               ld a,(bc)
 3154+C758 56               ld d,(hl)
 3155+C759 B2               or d
 3156+C75A 77               ld (hl),a
 3157+C75B 03               inc bc
 3158+C75C 23               inc hl
 3159+C75D                  ;1,8
 3160+C75D 0A               ld a,(bc)
 3161+C75E 56               ld d,(hl)
 3162+C75F B2               or d
 3163+C760 77               ld (hl),a
 3164+C761 03               inc bc
 3165+C762 23               inc hl
 3166+C763                  ;2,8
 3167+C763 0A               ld a,(bc)
 3168+C764 56               ld d,(hl)
 3169+C765 B2               or d
 3170+C766 77               ld (hl),a
 3171+C767 03               inc bc
 3172+C768 23               inc hl
 3173+C769                  ;3,8
 3174+C769 0A               ld a,(bc)
 3175+C76A 56               ld d,(hl)
 3176+C76B B2               or d
 3177+C76C 77               ld (hl),a
 3178+C76D 03               inc bc
 3179+C76E 11 19 00         ld de,BUFFER_WINDOW_WIDTH-3
 3180+C771 19               add hl,de ;increment HL pointer by wwidth
 3181+C772                  ;0,9
 3182+C772 0A               ld a,(bc)
 3183+C773 56               ld d,(hl)
 3184+C774 B2               or d
 3185+C775 77               ld (hl),a
 3186+C776 03               inc bc
 3187+C777 23               inc hl
 3188+C778                  ;1,9
 3189+C778 0A               ld a,(bc)
 3190+C779 56               ld d,(hl)
 3191+C77A B2               or d
 3192+C77B 77               ld (hl),a
 3193+C77C 03               inc bc
 3194+C77D 23               inc hl
 3195+C77E                  ;2,9
 3196+C77E 0A               ld a,(bc)
 3197+C77F 56               ld d,(hl)
 3198+C780 B2               or d
 3199+C781 77               ld (hl),a
 3200+C782 03               inc bc
 3201+C783 23               inc hl
 3202+C784                  ;3,9
 3203+C784 0A               ld a,(bc)
 3204+C785 56               ld d,(hl)
 3205+C786 B2               or d
 3206+C787 77               ld (hl),a
 3207+C788 03               inc bc
 3208+C789 11 19 00         ld de,BUFFER_WINDOW_WIDTH-3
 3209+C78C 19               add hl,de ;increment HL pointer by wwidth
 3210+C78D                  ;0,10
 3211+C78D 0A               ld a,(bc)
 3212+C78E 56               ld d,(hl)
 3213+C78F B2               or d
 3214+C790 77               ld (hl),a
 3215+C791 03               inc bc
 3216+C792 23               inc hl
 3217+C793                  ;1,10
 3218+C793 0A               ld a,(bc)
 3219+C794 56               ld d,(hl)
 3220+C795 B2               or d
 3221+C796 77               ld (hl),a
 3222+C797 03               inc bc
 3223+C798 23               inc hl
 3224+C799                  ;2,10
 3225+C799 0A               ld a,(bc)
 3226+C79A 56               ld d,(hl)
 3227+C79B B2               or d
 3228+C79C 77               ld (hl),a
 3229+C79D 03               inc bc
 3230+C79E 23               inc hl
 3231+C79F                  ;3,10
 3232+C79F 0A               ld a,(bc)
 3233+C7A0 56               ld d,(hl)
 3234+C7A1 B2               or d
 3235+C7A2 77               ld (hl),a
 3236+C7A3 03               inc bc
 3237+C7A4 11 19 00         ld de,BUFFER_WINDOW_WIDTH-3
 3238+C7A7 19               add hl,de ;increment HL pointer by wwidth
 3239+C7A8                  ;0,11
 3240+C7A8 0A               ld a,(bc)
 3241+C7A9 56               ld d,(hl)
 3242+C7AA B2               or d
 3243+C7AB 77               ld (hl),a
 3244+C7AC 03               inc bc
 3245+C7AD 23               inc hl
 3246+C7AE                  ;1,11
 3247+C7AE 0A               ld a,(bc)
 3248+C7AF 56               ld d,(hl)
 3249+C7B0 B2               or d
 3250+C7B1 77               ld (hl),a
 3251+C7B2 03               inc bc
 3252+C7B3 23               inc hl
 3253+C7B4                  ;2,11
 3254+C7B4 0A               ld a,(bc)
 3255+C7B5 56               ld d,(hl)
 3256+C7B6 B2               or d
 3257+C7B7 77               ld (hl),a
 3258+C7B8 03               inc bc
 3259+C7B9 23               inc hl
 3260+C7BA                  ;3,11
 3261+C7BA 0A               ld a,(bc)
 3262+C7BB 56               ld d,(hl)
 3263+C7BC B2               or d
 3264+C7BD 77               ld (hl),a
 3265+C7BE 03               inc bc
 3266+C7BF 11 19 00         ld de,BUFFER_WINDOW_WIDTH-3
 3267+C7C2 19               add hl,de ;increment HL pointer by wwidth
 3268+C7C3                  ;0,12
 3269+C7C3 0A               ld a,(bc)
 3270+C7C4 56               ld d,(hl)
 3271+C7C5 B2               or d
 3272+C7C6 77               ld (hl),a
 3273+C7C7 03               inc bc
 3274+C7C8 23               inc hl
 3275+C7C9                  ;1,12
 3276+C7C9 0A               ld a,(bc)
 3277+C7CA 56               ld d,(hl)
 3278+C7CB B2               or d
 3279+C7CC 77               ld (hl),a
 3280+C7CD 03               inc bc
 3281+C7CE 23               inc hl
 3282+C7CF                  ;2,12
 3283+C7CF 0A               ld a,(bc)
 3284+C7D0 56               ld d,(hl)
 3285+C7D1 B2               or d
 3286+C7D2 77               ld (hl),a
 3287+C7D3 03               inc bc
 3288+C7D4 23               inc hl
 3289+C7D5                  ;3,12
 3290+C7D5 0A               ld a,(bc)
 3291+C7D6 56               ld d,(hl)
 3292+C7D7 B2               or d
 3293+C7D8 77               ld (hl),a
 3294+C7D9 03               inc bc
 3295+C7DA 11 19 00         ld de,BUFFER_WINDOW_WIDTH-3
 3296+C7DD 19               add hl,de ;increment HL pointer by wwidth
 3297+C7DE                  ;0,13
 3298+C7DE 0A               ld a,(bc)
 3299+C7DF 56               ld d,(hl)
 3300+C7E0 B2               or d
 3301+C7E1 77               ld (hl),a
 3302+C7E2 03               inc bc
 3303+C7E3 23               inc hl
 3304+C7E4                  ;1,13
 3305+C7E4 0A               ld a,(bc)
 3306+C7E5 56               ld d,(hl)
 3307+C7E6 B2               or d
 3308+C7E7 77               ld (hl),a
 3309+C7E8 03               inc bc
 3310+C7E9 23               inc hl
 3311+C7EA                  ;2,13
 3312+C7EA 0A               ld a,(bc)
 3313+C7EB 56               ld d,(hl)
 3314+C7EC B2               or d
 3315+C7ED 77               ld (hl),a
 3316+C7EE 03               inc bc
 3317+C7EF 23               inc hl
 3318+C7F0                  ;3,13
 3319+C7F0 0A               ld a,(bc)
 3320+C7F1 56               ld d,(hl)
 3321+C7F2 B2               or d
 3322+C7F3 77               ld (hl),a
 3323+C7F4 03               inc bc
 3324+C7F5 11 19 00         ld de,BUFFER_WINDOW_WIDTH-3
 3325+C7F8 19               add hl,de ;increment HL pointer by wwidth
 3326+C7F9                  ;0,14
 3327+C7F9 0A               ld a,(bc)
 3328+C7FA 56               ld d,(hl)
 3329+C7FB B2               or d
 3330+C7FC 77               ld (hl),a
 3331+C7FD 03               inc bc
 3332+C7FE 23               inc hl
 3333+C7FF                  ;1,14
 3334+C7FF 0A               ld a,(bc)
 3335+C800 56               ld d,(hl)
 3336+C801 B2               or d
 3337+C802 77               ld (hl),a
 3338+C803 03               inc bc
 3339+C804 23               inc hl
 3340+C805                  ;2,14
 3341+C805 0A               ld a,(bc)
 3342+C806 56               ld d,(hl)
 3343+C807 B2               or d
 3344+C808 77               ld (hl),a
 3345+C809 03               inc bc
 3346+C80A 23               inc hl
 3347+C80B                  ;3,14
 3348+C80B 0A               ld a,(bc)
 3349+C80C 56               ld d,(hl)
 3350+C80D B2               or d
 3351+C80E 77               ld (hl),a
 3352+C80F 03               inc bc
 3353+C810 11 19 00         ld de,BUFFER_WINDOW_WIDTH-3
 3354+C813 19               add hl,de ;increment HL pointer by wwidth
 3355+C814                  ;0,15
 3356+C814 0A               ld a,(bc)
 3357+C815 56               ld d,(hl)
 3358+C816 B2               or d
 3359+C817 77               ld (hl),a
 3360+C818 03               inc bc
 3361+C819 23               inc hl
 3362+C81A                  ;1,15
 3363+C81A 0A               ld a,(bc)
 3364+C81B 56               ld d,(hl)
 3365+C81C B2               or d
 3366+C81D 77               ld (hl),a
 3367+C81E 03               inc bc
 3368+C81F 23               inc hl
 3369+C820                  ;2,15
 3370+C820 0A               ld a,(bc)
 3371+C821 56               ld d,(hl)
 3372+C822 B2               or d
 3373+C823 77               ld (hl),a
 3374+C824 03               inc bc
 3375+C825 23               inc hl
 3376+C826                  ;3,15
 3377+C826 0A               ld a,(bc)
 3378+C827 56               ld d,(hl)
 3379+C828 B2               or d
 3380+C829 77               ld (hl),a
 3381+C82A C9               ret
 3382+C82B              ;
 3383+C82B
 3384+C82B
 3385+C82B
 3386+C82B
 3387+C82B
 3388+C82B
 3389+C82B              ;;Window Width of 24....
 3390+C82B              ;INPUTS:
 3391+C82B              ;wwidth=24
 3392+C82B              ;BC=sprite pointer
 3393+C82B              ;DE=xy
 3394+C82B              drawsprite32_24:
 3395+C82B 21 00 00         ld hl,0
 3396+C82E 7B               ld a,e
 3397+C82F 6F               ld l,a
 3398+C830 29               add hl,hl ;HL= y*2
 3399+C831 29               add hl,hl ;HL= y*4
 3400+C832 D5               push de
 3401+C833 E5               push hl
 3402+C834 D1               pop de ;DE=y*4
 3403+C835 29               add hl,hl ;HL= y*8
 3404+C836 C5               push bc
 3405+C837 E5               push hl
 3406+C838 C1               pop bc ;BC=y*8
 3407+C839 29               add hl,hl
 3408+C83A 09               add hl,bc ;HL=y*24
 3409+C83B 19               add hl,de ;HL=y*28
 3410+C83C C1               pop bc
 3411+C83D D1               pop de
 3412+C83E 5A               ld e,d
 3413+C83F 16 00            ld d,0
 3414+C841 19               add hl,de ;HL+=x
 3415+C842 11 00 80         ld de,GAME_WINDOW_START
 3416+C845 19               add hl,de ;HL+=memstart
 3417+C846                  ;start drawing bytes...
 3418+C846                  ;0,0
 3419+C846 0A               ld a,(bc)
 3420+C847 77               ld (hl),a
 3421+C848 03               inc bc
 3422+C849 23               inc hl
 3423+C84A                  ;1,0
 3424+C84A 0A               ld a,(bc)
 3425+C84B 77               ld (hl),a
 3426+C84C 03               inc bc
 3427+C84D 23               inc hl
 3428+C84E                  ;2,0
 3429+C84E 0A               ld a,(bc)
 3430+C84F 77               ld (hl),a
 3431+C850 03               inc bc
 3432+C851 23               inc hl
 3433+C852                  ;3,0
 3434+C852 0A               ld a,(bc)
 3435+C853 77               ld (hl),a
 3436+C854 03               inc bc
 3437+C855 11 19 00         ld de,BUFFER_WINDOW_WIDTH-3
 3438+C858 19               add hl,de ;increment HL pointer by wwidth
 3439+C859                  ;0,1
 3440+C859 0A               ld a,(bc)
 3441+C85A 77               ld (hl),a
 3442+C85B 03               inc bc
 3443+C85C 23               inc hl
 3444+C85D                  ;1,1
 3445+C85D 0A               ld a,(bc)
 3446+C85E 77               ld (hl),a
 3447+C85F 03               inc bc
 3448+C860 23               inc hl
 3449+C861                  ;2,1
 3450+C861 0A               ld a,(bc)
 3451+C862 77               ld (hl),a
 3452+C863 03               inc bc
 3453+C864 23               inc hl
 3454+C865                  ;3,1
 3455+C865 0A               ld a,(bc)
 3456+C866 77               ld (hl),a
 3457+C867 03               inc bc
 3458+C868 11 19 00         ld de,BUFFER_WINDOW_WIDTH-3
 3459+C86B 19               add hl,de ;increment HL pointer by wwidth
 3460+C86C                  ;0,2
 3461+C86C 0A               ld a,(bc)
 3462+C86D 77               ld (hl),a
 3463+C86E 03               inc bc
 3464+C86F 23               inc hl
 3465+C870                  ;1,2
 3466+C870 0A               ld a,(bc)
 3467+C871 77               ld (hl),a
 3468+C872 03               inc bc
 3469+C873 23               inc hl
 3470+C874                  ;2,2
 3471+C874 0A               ld a,(bc)
 3472+C875 77               ld (hl),a
 3473+C876 03               inc bc
 3474+C877 23               inc hl
 3475+C878                  ;3,2
 3476+C878 0A               ld a,(bc)
 3477+C879 77               ld (hl),a
 3478+C87A 03               inc bc
 3479+C87B 11 19 00         ld de,BUFFER_WINDOW_WIDTH-3
 3480+C87E 19               add hl,de ;increment HL pointer by wwidth
 3481+C87F                  ;0,3
 3482+C87F 0A               ld a,(bc)
 3483+C880 77               ld (hl),a
 3484+C881 03               inc bc
 3485+C882 23               inc hl
 3486+C883                  ;1,3
 3487+C883 0A               ld a,(bc)
 3488+C884 77               ld (hl),a
 3489+C885 03               inc bc
 3490+C886 23               inc hl
 3491+C887                  ;2,3
 3492+C887 0A               ld a,(bc)
 3493+C888 77               ld (hl),a
 3494+C889 03               inc bc
 3495+C88A 23               inc hl
 3496+C88B                  ;3,3
 3497+C88B 0A               ld a,(bc)
 3498+C88C 77               ld (hl),a
 3499+C88D 03               inc bc
 3500+C88E 11 19 00         ld de,BUFFER_WINDOW_WIDTH-3
 3501+C891 19               add hl,de ;increment HL pointer by wwidth
 3502+C892                  ;0,4
 3503+C892 0A               ld a,(bc)
 3504+C893 77               ld (hl),a
 3505+C894 03               inc bc
 3506+C895 23               inc hl
 3507+C896                  ;1,4
 3508+C896 0A               ld a,(bc)
 3509+C897 77               ld (hl),a
 3510+C898 03               inc bc
 3511+C899 23               inc hl
 3512+C89A                  ;2,4
 3513+C89A 0A               ld a,(bc)
 3514+C89B 77               ld (hl),a
 3515+C89C 03               inc bc
 3516+C89D 23               inc hl
 3517+C89E                  ;3,4
 3518+C89E 0A               ld a,(bc)
 3519+C89F 77               ld (hl),a
 3520+C8A0 03               inc bc
 3521+C8A1 11 19 00         ld de,BUFFER_WINDOW_WIDTH-3
 3522+C8A4 19               add hl,de ;increment HL pointer by wwidth
 3523+C8A5                  ;0,5
 3524+C8A5 0A               ld a,(bc)
 3525+C8A6 77               ld (hl),a
 3526+C8A7 03               inc bc
 3527+C8A8 23               inc hl
 3528+C8A9                  ;1,5
 3529+C8A9 0A               ld a,(bc)
 3530+C8AA 77               ld (hl),a
 3531+C8AB 03               inc bc
 3532+C8AC 23               inc hl
 3533+C8AD                  ;2,5
 3534+C8AD 0A               ld a,(bc)
 3535+C8AE 77               ld (hl),a
 3536+C8AF 03               inc bc
 3537+C8B0 23               inc hl
 3538+C8B1                  ;3,5
 3539+C8B1 0A               ld a,(bc)
 3540+C8B2 77               ld (hl),a
 3541+C8B3 03               inc bc
 3542+C8B4 11 19 00         ld de,BUFFER_WINDOW_WIDTH-3
 3543+C8B7 19               add hl,de ;increment HL pointer by wwidth
 3544+C8B8                  ;0,6
 3545+C8B8 0A               ld a,(bc)
 3546+C8B9 77               ld (hl),a
 3547+C8BA 03               inc bc
 3548+C8BB 23               inc hl
 3549+C8BC                  ;1,6
 3550+C8BC 0A               ld a,(bc)
 3551+C8BD 77               ld (hl),a
 3552+C8BE 03               inc bc
 3553+C8BF 23               inc hl
 3554+C8C0                  ;2,6
 3555+C8C0 0A               ld a,(bc)
 3556+C8C1 77               ld (hl),a
 3557+C8C2 03               inc bc
 3558+C8C3 23               inc hl
 3559+C8C4                  ;3,6
 3560+C8C4 0A               ld a,(bc)
 3561+C8C5 77               ld (hl),a
 3562+C8C6 03               inc bc
 3563+C8C7 11 19 00         ld de,BUFFER_WINDOW_WIDTH-3
 3564+C8CA 19               add hl,de ;increment HL pointer by wwidth
 3565+C8CB                  ;0,7
 3566+C8CB 0A               ld a,(bc)
 3567+C8CC 77               ld (hl),a
 3568+C8CD 03               inc bc
 3569+C8CE 23               inc hl
 3570+C8CF                  ;1,7
 3571+C8CF 0A               ld a,(bc)
 3572+C8D0 77               ld (hl),a
 3573+C8D1 03               inc bc
 3574+C8D2 23               inc hl
 3575+C8D3                  ;2,7
 3576+C8D3 0A               ld a,(bc)
 3577+C8D4 77               ld (hl),a
 3578+C8D5 03               inc bc
 3579+C8D6 23               inc hl
 3580+C8D7                  ;3,7
 3581+C8D7 0A               ld a,(bc)
 3582+C8D8 77               ld (hl),a
 3583+C8D9 03               inc bc
 3584+C8DA 11 19 00         ld de,BUFFER_WINDOW_WIDTH-3
 3585+C8DD 19               add hl,de ;increment HL pointer by wwidth
 3586+C8DE                  ;0,8
 3587+C8DE 0A               ld a,(bc)
 3588+C8DF 77               ld (hl),a
 3589+C8E0 03               inc bc
 3590+C8E1 23               inc hl
 3591+C8E2                  ;1,8
 3592+C8E2 0A               ld a,(bc)
 3593+C8E3 77               ld (hl),a
 3594+C8E4 03               inc bc
 3595+C8E5 23               inc hl
 3596+C8E6                  ;2,8
 3597+C8E6 0A               ld a,(bc)
 3598+C8E7 77               ld (hl),a
 3599+C8E8 03               inc bc
 3600+C8E9 23               inc hl
 3601+C8EA                  ;3,8
 3602+C8EA 0A               ld a,(bc)
 3603+C8EB 77               ld (hl),a
 3604+C8EC 03               inc bc
 3605+C8ED 11 19 00         ld de,BUFFER_WINDOW_WIDTH-3
 3606+C8F0 19               add hl,de ;increment HL pointer by wwidth
 3607+C8F1                  ;0,9
 3608+C8F1 0A               ld a,(bc)
 3609+C8F2 77               ld (hl),a
 3610+C8F3 03               inc bc
 3611+C8F4 23               inc hl
 3612+C8F5                  ;1,9
 3613+C8F5 0A               ld a,(bc)
 3614+C8F6 77               ld (hl),a
 3615+C8F7 03               inc bc
 3616+C8F8 23               inc hl
 3617+C8F9                  ;2,9
 3618+C8F9 0A               ld a,(bc)
 3619+C8FA 77               ld (hl),a
 3620+C8FB 03               inc bc
 3621+C8FC 23               inc hl
 3622+C8FD                  ;3,9
 3623+C8FD 0A               ld a,(bc)
 3624+C8FE 77               ld (hl),a
 3625+C8FF 03               inc bc
 3626+C900 11 19 00         ld de,BUFFER_WINDOW_WIDTH-3
 3627+C903 19               add hl,de ;increment HL pointer by wwidth
 3628+C904                  ;0,10
 3629+C904 0A               ld a,(bc)
 3630+C905 77               ld (hl),a
 3631+C906 03               inc bc
 3632+C907 23               inc hl
 3633+C908                  ;1,10
 3634+C908 0A               ld a,(bc)
 3635+C909 77               ld (hl),a
 3636+C90A 03               inc bc
 3637+C90B 23               inc hl
 3638+C90C                  ;2,10
 3639+C90C 0A               ld a,(bc)
 3640+C90D 77               ld (hl),a
 3641+C90E 03               inc bc
 3642+C90F 23               inc hl
 3643+C910                  ;3,10
 3644+C910 0A               ld a,(bc)
 3645+C911 77               ld (hl),a
 3646+C912 03               inc bc
 3647+C913 11 19 00         ld de,BUFFER_WINDOW_WIDTH-3
 3648+C916 19               add hl,de ;increment HL pointer by wwidth
 3649+C917                  ;0,11
 3650+C917 0A               ld a,(bc)
 3651+C918 77               ld (hl),a
 3652+C919 03               inc bc
 3653+C91A 23               inc hl
 3654+C91B                  ;1,11
 3655+C91B 0A               ld a,(bc)
 3656+C91C 77               ld (hl),a
 3657+C91D 03               inc bc
 3658+C91E 23               inc hl
 3659+C91F                  ;2,11
 3660+C91F 0A               ld a,(bc)
 3661+C920 77               ld (hl),a
 3662+C921 03               inc bc
 3663+C922 23               inc hl
 3664+C923                  ;3,11
 3665+C923 0A               ld a,(bc)
 3666+C924 77               ld (hl),a
 3667+C925 03               inc bc
 3668+C926 11 19 00         ld de,BUFFER_WINDOW_WIDTH-3
 3669+C929 19               add hl,de ;increment HL pointer by wwidth
 3670+C92A                  ;0,12
 3671+C92A 0A               ld a,(bc)
 3672+C92B 77               ld (hl),a
 3673+C92C 03               inc bc
 3674+C92D 23               inc hl
 3675+C92E                  ;1,12
 3676+C92E 0A               ld a,(bc)
 3677+C92F 77               ld (hl),a
 3678+C930 03               inc bc
 3679+C931 23               inc hl
 3680+C932                  ;2,12
 3681+C932 0A               ld a,(bc)
 3682+C933 77               ld (hl),a
 3683+C934 03               inc bc
 3684+C935 23               inc hl
 3685+C936                  ;3,12
 3686+C936 0A               ld a,(bc)
 3687+C937 77               ld (hl),a
 3688+C938 03               inc bc
 3689+C939 11 19 00         ld de,BUFFER_WINDOW_WIDTH-3
 3690+C93C 19               add hl,de ;increment HL pointer by wwidth
 3691+C93D                  ;0,13
 3692+C93D 0A               ld a,(bc)
 3693+C93E 77               ld (hl),a
 3694+C93F 03               inc bc
 3695+C940 23               inc hl
 3696+C941                  ;1,13
 3697+C941 0A               ld a,(bc)
 3698+C942 77               ld (hl),a
 3699+C943 03               inc bc
 3700+C944 23               inc hl
 3701+C945                  ;2,13
 3702+C945 0A               ld a,(bc)
 3703+C946 77               ld (hl),a
 3704+C947 03               inc bc
 3705+C948 23               inc hl
 3706+C949                  ;3,13
 3707+C949 0A               ld a,(bc)
 3708+C94A 77               ld (hl),a
 3709+C94B 03               inc bc
 3710+C94C 11 19 00         ld de,BUFFER_WINDOW_WIDTH-3
 3711+C94F 19               add hl,de ;increment HL pointer by wwidth
 3712+C950                  ;0,14
 3713+C950 0A               ld a,(bc)
 3714+C951 77               ld (hl),a
 3715+C952 03               inc bc
 3716+C953 23               inc hl
 3717+C954                  ;1,14
 3718+C954 0A               ld a,(bc)
 3719+C955 77               ld (hl),a
 3720+C956 03               inc bc
 3721+C957 23               inc hl
 3722+C958                  ;2,14
 3723+C958 0A               ld a,(bc)
 3724+C959 77               ld (hl),a
 3725+C95A 03               inc bc
 3726+C95B 23               inc hl
 3727+C95C                  ;3,14
 3728+C95C 0A               ld a,(bc)
 3729+C95D 77               ld (hl),a
 3730+C95E 03               inc bc
 3731+C95F 11 19 00         ld de,BUFFER_WINDOW_WIDTH-3
 3732+C962 19               add hl,de ;increment HL pointer by wwidth
 3733+C963                  ;0,15
 3734+C963 0A               ld a,(bc)
 3735+C964 77               ld (hl),a
 3736+C965 03               inc bc
 3737+C966 23               inc hl
 3738+C967                  ;1,15
 3739+C967 0A               ld a,(bc)
 3740+C968 77               ld (hl),a
 3741+C969 03               inc bc
 3742+C96A 23               inc hl
 3743+C96B                  ;2,15
 3744+C96B 0A               ld a,(bc)
 3745+C96C 77               ld (hl),a
 3746+C96D 03               inc bc
 3747+C96E 23               inc hl
 3748+C96F                  ;3,15
 3749+C96F 0A               ld a,(bc)
 3750+C970 77               ld (hl),a
 3751+C971 03               inc bc
 3752+C972 11 19 00         ld de,BUFFER_WINDOW_WIDTH-3
 3753+C975 19               add hl,de ;increment HL pointer by wwidth
 3754+C976                  ;0,16
 3755+C976 0A               ld a,(bc)
 3756+C977 77               ld (hl),a
 3757+C978 03               inc bc
 3758+C979 23               inc hl
 3759+C97A                  ;1,16
 3760+C97A 0A               ld a,(bc)
 3761+C97B 77               ld (hl),a
 3762+C97C 03               inc bc
 3763+C97D 23               inc hl
 3764+C97E                  ;2,16
 3765+C97E 0A               ld a,(bc)
 3766+C97F 77               ld (hl),a
 3767+C980 03               inc bc
 3768+C981 23               inc hl
 3769+C982                  ;3,16
 3770+C982 0A               ld a,(bc)
 3771+C983 77               ld (hl),a
 3772+C984 03               inc bc
 3773+C985 11 19 00         ld de,BUFFER_WINDOW_WIDTH-3
 3774+C988 19               add hl,de ;increment HL pointer by wwidth
 3775+C989                  ;0,17
 3776+C989 0A               ld a,(bc)
 3777+C98A 77               ld (hl),a
 3778+C98B 03               inc bc
 3779+C98C 23               inc hl
 3780+C98D                  ;1,17
 3781+C98D 0A               ld a,(bc)
 3782+C98E 77               ld (hl),a
 3783+C98F 03               inc bc
 3784+C990 23               inc hl
 3785+C991                  ;2,17
 3786+C991 0A               ld a,(bc)
 3787+C992 77               ld (hl),a
 3788+C993 03               inc bc
 3789+C994 23               inc hl
 3790+C995                  ;3,17
 3791+C995 0A               ld a,(bc)
 3792+C996 77               ld (hl),a
 3793+C997 03               inc bc
 3794+C998 11 19 00         ld de,BUFFER_WINDOW_WIDTH-3
 3795+C99B 19               add hl,de ;increment HL pointer by wwidth
 3796+C99C                  ;0,18
 3797+C99C 0A               ld a,(bc)
 3798+C99D 77               ld (hl),a
 3799+C99E 03               inc bc
 3800+C99F 23               inc hl
 3801+C9A0                  ;1,18
 3802+C9A0 0A               ld a,(bc)
 3803+C9A1 77               ld (hl),a
 3804+C9A2 03               inc bc
 3805+C9A3 23               inc hl
 3806+C9A4                  ;2,18
 3807+C9A4 0A               ld a,(bc)
 3808+C9A5 77               ld (hl),a
 3809+C9A6 03               inc bc
 3810+C9A7 23               inc hl
 3811+C9A8                  ;3,18
 3812+C9A8 0A               ld a,(bc)
 3813+C9A9 77               ld (hl),a
 3814+C9AA 03               inc bc
 3815+C9AB 11 19 00         ld de,BUFFER_WINDOW_WIDTH-3
 3816+C9AE 19               add hl,de ;increment HL pointer by wwidth
 3817+C9AF                  ;0,19
 3818+C9AF 0A               ld a,(bc)
 3819+C9B0 77               ld (hl),a
 3820+C9B1 03               inc bc
 3821+C9B2 23               inc hl
 3822+C9B3                  ;1,19
 3823+C9B3 0A               ld a,(bc)
 3824+C9B4 77               ld (hl),a
 3825+C9B5 03               inc bc
 3826+C9B6 23               inc hl
 3827+C9B7                  ;2,19
 3828+C9B7 0A               ld a,(bc)
 3829+C9B8 77               ld (hl),a
 3830+C9B9 03               inc bc
 3831+C9BA 23               inc hl
 3832+C9BB                  ;3,19
 3833+C9BB 0A               ld a,(bc)
 3834+C9BC 77               ld (hl),a
 3835+C9BD 03               inc bc
 3836+C9BE 11 19 00         ld de,BUFFER_WINDOW_WIDTH-3
 3837+C9C1 19               add hl,de ;increment HL pointer by wwidth
 3838+C9C2                  ;0,20
 3839+C9C2 0A               ld a,(bc)
 3840+C9C3 77               ld (hl),a
 3841+C9C4 03               inc bc
 3842+C9C5 23               inc hl
 3843+C9C6                  ;1,20
 3844+C9C6 0A               ld a,(bc)
 3845+C9C7 77               ld (hl),a
 3846+C9C8 03               inc bc
 3847+C9C9 23               inc hl
 3848+C9CA                  ;2,20
 3849+C9CA 0A               ld a,(bc)
 3850+C9CB 77               ld (hl),a
 3851+C9CC 03               inc bc
 3852+C9CD 23               inc hl
 3853+C9CE                  ;3,20
 3854+C9CE 0A               ld a,(bc)
 3855+C9CF 77               ld (hl),a
 3856+C9D0 03               inc bc
 3857+C9D1 11 19 00         ld de,BUFFER_WINDOW_WIDTH-3
 3858+C9D4 19               add hl,de ;increment HL pointer by wwidth
 3859+C9D5                  ;0,21
 3860+C9D5 0A               ld a,(bc)
 3861+C9D6 77               ld (hl),a
 3862+C9D7 03               inc bc
 3863+C9D8 23               inc hl
 3864+C9D9                  ;1,21
 3865+C9D9 0A               ld a,(bc)
 3866+C9DA 77               ld (hl),a
 3867+C9DB 03               inc bc
 3868+C9DC 23               inc hl
 3869+C9DD                  ;2,21
 3870+C9DD 0A               ld a,(bc)
 3871+C9DE 77               ld (hl),a
 3872+C9DF 03               inc bc
 3873+C9E0 23               inc hl
 3874+C9E1                  ;3,21
 3875+C9E1 0A               ld a,(bc)
 3876+C9E2 77               ld (hl),a
 3877+C9E3 03               inc bc
 3878+C9E4 11 19 00         ld de,BUFFER_WINDOW_WIDTH-3
 3879+C9E7 19               add hl,de ;increment HL pointer by wwidth
 3880+C9E8                  ;0,22
 3881+C9E8 0A               ld a,(bc)
 3882+C9E9 77               ld (hl),a
 3883+C9EA 03               inc bc
 3884+C9EB 23               inc hl
 3885+C9EC                  ;1,22
 3886+C9EC 0A               ld a,(bc)
 3887+C9ED 77               ld (hl),a
 3888+C9EE 03               inc bc
 3889+C9EF 23               inc hl
 3890+C9F0                  ;2,22
 3891+C9F0 0A               ld a,(bc)
 3892+C9F1 77               ld (hl),a
 3893+C9F2 03               inc bc
 3894+C9F3 23               inc hl
 3895+C9F4                  ;3,22
 3896+C9F4 0A               ld a,(bc)
 3897+C9F5 77               ld (hl),a
 3898+C9F6 03               inc bc
 3899+C9F7 11 19 00         ld de,BUFFER_WINDOW_WIDTH-3
 3900+C9FA 19               add hl,de ;increment HL pointer by wwidth
 3901+C9FB                  ;0,23
 3902+C9FB 0A               ld a,(bc)
 3903+C9FC 77               ld (hl),a
 3904+C9FD 03               inc bc
 3905+C9FE 23               inc hl
 3906+C9FF                  ;1,23
 3907+C9FF 0A               ld a,(bc)
 3908+CA00 77               ld (hl),a
 3909+CA01 03               inc bc
 3910+CA02 23               inc hl
 3911+CA03                  ;2,23
 3912+CA03 0A               ld a,(bc)
 3913+CA04 77               ld (hl),a
 3914+CA05 03               inc bc
 3915+CA06 23               inc hl
 3916+CA07                  ;3,23
 3917+CA07 0A               ld a,(bc)
 3918+CA08 77               ld (hl),a
 3919+CA09 C9               ret
 3920+CA0A              ;
 3921+CA0A
 3922+CA0A
 3923+CA0A
 3924+CA0A
 3925+CA0A
 3926+CA0A
 3927+CA0A
 3928+CA0A
 3929+CA0A
 3930+CA0A
 3931+CA0A
 3932+CA0A
 3933+CA0A
 3934+CA0A
 3935+CA0A              ;;Window Width of 24....
 3936+CA0A              ;INPUTS:
 3937+CA0A              ;wwidth=24
 3938+CA0A              ;BC=sprite pointer
 3939+CA0A              ;DE=xy
 3940+CA0A              drawsprite24_8:
 3941+CA0A 21 00 00         ld hl,0
 3942+CA0D 7B               ld a,e
 3943+CA0E 6F               ld l,a
 3944+CA0F 29               add hl,hl ;HL= y*2
 3945+CA10 29               add hl,hl ;HL= y*4
 3946+CA11 D5               push de
 3947+CA12 E5               push hl
 3948+CA13 D1               pop de ;DE=y*4
 3949+CA14 29               add hl,hl ;HL= y*8
 3950+CA15 C5               push bc
 3951+CA16 E5               push hl
 3952+CA17 C1               pop bc ;BC=y*8
 3953+CA18 29               add hl,hl
 3954+CA19 09               add hl,bc ;HL=y*24
 3955+CA1A 19               add hl,de ;HL=y*28
 3956+CA1B C1               pop bc
 3957+CA1C D1               pop de
 3958+CA1D 5A               ld e,d
 3959+CA1E 16 00            ld d,0
 3960+CA20 19               add hl,de ;HL+=x
 3961+CA21 11 00 80         ld de,GAME_WINDOW_START
 3962+CA24 19               add hl,de ;HL+=memstart
 3963+CA25                  ;start drawing bytes...
 3964+CA25
 3965+CA25                  ;0,0
 3966+CA25 0A               ld a,(bc)
 3967+CA26 77               ld (hl),a
 3968+CA27 03               inc bc
 3969+CA28 23               inc hl
 3970+CA29                  ;1,
 3971+CA29 0A               ld a,(bc)
 3972+CA2A 77               ld (hl),a
 3973+CA2B 03               inc bc
 3974+CA2C 23               inc hl
 3975+CA2D                  ;2,
 3976+CA2D 0A               ld a,(bc)
 3977+CA2E 77               ld (hl),a
 3978+CA2F 03               inc bc
 3979+CA30 11 1A 00         ld de,BUFFER_WINDOW_WIDTH-2
 3980+CA33 19               add hl,de ;increment HL pointer by wwidth
 3981+CA34
 3982+CA34                  ;0,0
 3983+CA34 0A               ld a,(bc)
 3984+CA35 77               ld (hl),a
 3985+CA36 03               inc bc
 3986+CA37 23               inc hl
 3987+CA38                  ;1,
 3988+CA38 0A               ld a,(bc)
 3989+CA39 77               ld (hl),a
 3990+CA3A 03               inc bc
 3991+CA3B 23               inc hl
 3992+CA3C                  ;2,
 3993+CA3C 0A               ld a,(bc)
 3994+CA3D 77               ld (hl),a
 3995+CA3E 03               inc bc
 3996+CA3F 11 1A 00         ld de,BUFFER_WINDOW_WIDTH-2
 3997+CA42 19               add hl,de ;increment HL pointer by wwidth
 3998+CA43
 3999+CA43                  ;0,0
 4000+CA43 0A               ld a,(bc)
 4001+CA44 77               ld (hl),a
 4002+CA45 03               inc bc
 4003+CA46 23               inc hl
 4004+CA47                  ;1,
 4005+CA47 0A               ld a,(bc)
 4006+CA48 77               ld (hl),a
 4007+CA49 03               inc bc
 4008+CA4A 23               inc hl
 4009+CA4B                  ;2,
 4010+CA4B 0A               ld a,(bc)
 4011+CA4C 77               ld (hl),a
 4012+CA4D 03               inc bc
 4013+CA4E 11 1A 00         ld de,BUFFER_WINDOW_WIDTH-2
 4014+CA51 19               add hl,de ;increment HL pointer by wwidth
 4015+CA52
 4016+CA52                  ;0,0
 4017+CA52 0A               ld a,(bc)
 4018+CA53 77               ld (hl),a
 4019+CA54 03               inc bc
 4020+CA55 23               inc hl
 4021+CA56                  ;1,
 4022+CA56 0A               ld a,(bc)
 4023+CA57 77               ld (hl),a
 4024+CA58 03               inc bc
 4025+CA59 23               inc hl
 4026+CA5A                  ;2,
 4027+CA5A 0A               ld a,(bc)
 4028+CA5B 77               ld (hl),a
 4029+CA5C 03               inc bc
 4030+CA5D 11 1A 00         ld de,BUFFER_WINDOW_WIDTH-2
 4031+CA60 19               add hl,de ;increment HL pointer by wwidth
 4032+CA61
 4033+CA61                  ;0,0
 4034+CA61 0A               ld a,(bc)
 4035+CA62 77               ld (hl),a
 4036+CA63 03               inc bc
 4037+CA64 23               inc hl
 4038+CA65                  ;1,
 4039+CA65 0A               ld a,(bc)
 4040+CA66 77               ld (hl),a
 4041+CA67 03               inc bc
 4042+CA68 23               inc hl
 4043+CA69                  ;2,
 4044+CA69 0A               ld a,(bc)
 4045+CA6A 77               ld (hl),a
 4046+CA6B 03               inc bc
 4047+CA6C 11 1A 00         ld de,BUFFER_WINDOW_WIDTH-2
 4048+CA6F 19               add hl,de ;increment HL pointer by wwidth
 4049+CA70
 4050+CA70                  ;0,0
 4051+CA70 0A               ld a,(bc)
 4052+CA71 77               ld (hl),a
 4053+CA72 03               inc bc
 4054+CA73 23               inc hl
 4055+CA74                  ;1,
 4056+CA74 0A               ld a,(bc)
 4057+CA75 77               ld (hl),a
 4058+CA76 03               inc bc
 4059+CA77 23               inc hl
 4060+CA78                  ;2,
 4061+CA78 0A               ld a,(bc)
 4062+CA79 77               ld (hl),a
 4063+CA7A 03               inc bc
 4064+CA7B 11 1A 00         ld de,BUFFER_WINDOW_WIDTH-2
 4065+CA7E 19               add hl,de ;increment HL pointer by wwidth
 4066+CA7F
 4067+CA7F                  ;0,0
 4068+CA7F 0A               ld a,(bc)
 4069+CA80 77               ld (hl),a
 4070+CA81 03               inc bc
 4071+CA82 23               inc hl
 4072+CA83                  ;1,
 4073+CA83 0A               ld a,(bc)
 4074+CA84 77               ld (hl),a
 4075+CA85 03               inc bc
 4076+CA86 23               inc hl
 4077+CA87                  ;2,
 4078+CA87 0A               ld a,(bc)
 4079+CA88 77               ld (hl),a
 4080+CA89
 4081+CA89 C9               ret
 4082+CA8A
 4083+CA8A
 4084+CA8A
 4085+CA8A
 4086+CA8A
 4087+CA8A
 4088+CA8A
 4089+CA8A
 4090+CA8A
 4091+CA8A
 4092+CA8A
 4093+CA8A
 4094+CA8A
 4095+CA8A
 4096+CA8A
 4097+CA8A
 4098+CA8A
 4099+CA8A
 4100+CA8A
 4101+CA8A
 4102+CA8A
 4103+CA8A
 4104+CA8A
 4105+CA8A
 4106+CA8A
 4107+CA8A              ;;Window Width of 24....
 4108+CA8A              ;INPUTS:
 4109+CA8A              ;wwidth=24
 4110+CA8A              ;BC=sprite pointer
 4111+CA8A              ;DE=xy
 4112+CA8A              drawsprite24_64:
 4113+CA8A 21 00 00         ld hl,0
 4114+CA8D 7B               ld a,e
 4115+CA8E 6F               ld l,a
 4116+CA8F 29               add hl,hl ;HL= y*2
 4117+CA90 29               add hl,hl ;HL= y*4
 4118+CA91 D5               push de
 4119+CA92 E5               push hl
 4120+CA93 D1               pop de ;DE=y*4
 4121+CA94 29               add hl,hl ;HL= y*8
 4122+CA95 C5               push bc
 4123+CA96 E5               push hl
 4124+CA97 C1               pop bc ;BC=y*8
 4125+CA98 29               add hl,hl
 4126+CA99 09               add hl,bc ;HL=y*24
 4127+CA9A 19               add hl,de ;HL=y*28
 4128+CA9B C1               pop bc
 4129+CA9C D1               pop de
 4130+CA9D 5A               ld e,d
 4131+CA9E 16 00            ld d,0
 4132+CAA0 19               add hl,de ;HL+=x
 4133+CAA1 11 00 80         ld de,GAME_WINDOW_START
 4134+CAA4 19               add hl,de ;HL+=memstart
 4135+CAA5                  ;start drawing bytes...
 4136+CAA5
 4137+CAA5                  ;0,0
 4138+CAA5 0A               ld a,(bc)
 4139+CAA6 77               ld (hl),a
 4140+CAA7 03               inc bc
 4141+CAA8 23               inc hl
 4142+CAA9                  ;1,
 4143+CAA9 0A               ld a,(bc)
 4144+CAAA 77               ld (hl),a
 4145+CAAB 03               inc bc
 4146+CAAC 23               inc hl
 4147+CAAD                  ;2,
 4148+CAAD 0A               ld a,(bc)
 4149+CAAE 77               ld (hl),a
 4150+CAAF 03               inc bc
 4151+CAB0 11 1A 00         ld de,BUFFER_WINDOW_WIDTH-2
 4152+CAB3 19               add hl,de ;increment HL pointer by wwidth
 4153+CAB4                  ;0,1
 4154+CAB4 0A               ld a,(bc)
 4155+CAB5 77               ld (hl),a
 4156+CAB6 03               inc bc
 4157+CAB7 23               inc hl
 4158+CAB8                  ;1,
 4159+CAB8 0A               ld a,(bc)
 4160+CAB9 77               ld (hl),a
 4161+CABA 03               inc bc
 4162+CABB 23               inc hl
 4163+CABC                  ;2,
 4164+CABC 0A               ld a,(bc)
 4165+CABD 77               ld (hl),a
 4166+CABE 03               inc bc
 4167+CABF 11 1A 00         ld de,BUFFER_WINDOW_WIDTH-2
 4168+CAC2 19               add hl,de ;increment HL pointer by wwidth
 4169+CAC3                  ;0,2
 4170+CAC3 0A               ld a,(bc)
 4171+CAC4 77               ld (hl),a
 4172+CAC5 03               inc bc
 4173+CAC6 23               inc hl
 4174+CAC7                  ;1,
 4175+CAC7 0A               ld a,(bc)
 4176+CAC8 77               ld (hl),a
 4177+CAC9 03               inc bc
 4178+CACA 23               inc hl
 4179+CACB                  ;2,
 4180+CACB 0A               ld a,(bc)
 4181+CACC 77               ld (hl),a
 4182+CACD 03               inc bc
 4183+CACE 11 1A 00         ld de,BUFFER_WINDOW_WIDTH-2
 4184+CAD1 19               add hl,de ;increment HL pointer by wwidth
 4185+CAD2                  ;0,3
 4186+CAD2 0A               ld a,(bc)
 4187+CAD3 77               ld (hl),a
 4188+CAD4 03               inc bc
 4189+CAD5 23               inc hl
 4190+CAD6                  ;1,
 4191+CAD6 0A               ld a,(bc)
 4192+CAD7 77               ld (hl),a
 4193+CAD8 03               inc bc
 4194+CAD9 23               inc hl
 4195+CADA                  ;2,
 4196+CADA 0A               ld a,(bc)
 4197+CADB 77               ld (hl),a
 4198+CADC 03               inc bc
 4199+CADD 11 1A 00         ld de,BUFFER_WINDOW_WIDTH-2
 4200+CAE0 19               add hl,de ;increment HL pointer by wwidth
 4201+CAE1                  ;0,4
 4202+CAE1 0A               ld a,(bc)
 4203+CAE2 77               ld (hl),a
 4204+CAE3 03               inc bc
 4205+CAE4 23               inc hl
 4206+CAE5                  ;1,
 4207+CAE5 0A               ld a,(bc)
 4208+CAE6 77               ld (hl),a
 4209+CAE7 03               inc bc
 4210+CAE8 23               inc hl
 4211+CAE9                  ;2,
 4212+CAE9 0A               ld a,(bc)
 4213+CAEA 77               ld (hl),a
 4214+CAEB 03               inc bc
 4215+CAEC 11 1A 00         ld de,BUFFER_WINDOW_WIDTH-2
 4216+CAEF 19               add hl,de ;increment HL pointer by wwidth
 4217+CAF0                  ;0,5
 4218+CAF0 0A               ld a,(bc)
 4219+CAF1 77               ld (hl),a
 4220+CAF2 03               inc bc
 4221+CAF3 23               inc hl
 4222+CAF4                  ;1,
 4223+CAF4 0A               ld a,(bc)
 4224+CAF5 77               ld (hl),a
 4225+CAF6 03               inc bc
 4226+CAF7 23               inc hl
 4227+CAF8                  ;2,
 4228+CAF8 0A               ld a,(bc)
 4229+CAF9 77               ld (hl),a
 4230+CAFA 03               inc bc
 4231+CAFB 11 1A 00         ld de,BUFFER_WINDOW_WIDTH-2
 4232+CAFE 19               add hl,de ;increment HL pointer by wwidth
 4233+CAFF                  ;0,6
 4234+CAFF 0A               ld a,(bc)
 4235+CB00 77               ld (hl),a
 4236+CB01 03               inc bc
 4237+CB02 23               inc hl
 4238+CB03                  ;1,
 4239+CB03 0A               ld a,(bc)
 4240+CB04 77               ld (hl),a
 4241+CB05 03               inc bc
 4242+CB06 23               inc hl
 4243+CB07                  ;2,
 4244+CB07 0A               ld a,(bc)
 4245+CB08 77               ld (hl),a
 4246+CB09 03               inc bc
 4247+CB0A 11 1A 00         ld de,BUFFER_WINDOW_WIDTH-2
 4248+CB0D 19               add hl,de ;increment HL pointer by wwidth
 4249+CB0E                  ;0,7
 4250+CB0E 0A               ld a,(bc)
 4251+CB0F 77               ld (hl),a
 4252+CB10 03               inc bc
 4253+CB11 23               inc hl
 4254+CB12                  ;1,
 4255+CB12 0A               ld a,(bc)
 4256+CB13 77               ld (hl),a
 4257+CB14 03               inc bc
 4258+CB15 23               inc hl
 4259+CB16                  ;2,
 4260+CB16 0A               ld a,(bc)
 4261+CB17 77               ld (hl),a
 4262+CB18 03               inc bc
 4263+CB19 11 1A 00         ld de,BUFFER_WINDOW_WIDTH-2
 4264+CB1C 19               add hl,de ;increment HL pointer by wwidth
 4265+CB1D                  ;0,8
 4266+CB1D 0A               ld a,(bc)
 4267+CB1E 77               ld (hl),a
 4268+CB1F 03               inc bc
 4269+CB20 23               inc hl
 4270+CB21                  ;1,
 4271+CB21 0A               ld a,(bc)
 4272+CB22 77               ld (hl),a
 4273+CB23 03               inc bc
 4274+CB24 23               inc hl
 4275+CB25                  ;2,
 4276+CB25 0A               ld a,(bc)
 4277+CB26 77               ld (hl),a
 4278+CB27 03               inc bc
 4279+CB28 11 1A 00         ld de,BUFFER_WINDOW_WIDTH-2
 4280+CB2B 19               add hl,de ;increment HL pointer by wwidth
 4281+CB2C                  ;0,9
 4282+CB2C 0A               ld a,(bc)
 4283+CB2D 77               ld (hl),a
 4284+CB2E 03               inc bc
 4285+CB2F 23               inc hl
 4286+CB30                  ;1,
 4287+CB30 0A               ld a,(bc)
 4288+CB31 77               ld (hl),a
 4289+CB32 03               inc bc
 4290+CB33 23               inc hl
 4291+CB34                  ;2,
 4292+CB34 0A               ld a,(bc)
 4293+CB35 77               ld (hl),a
 4294+CB36 03               inc bc
 4295+CB37 11 1A 00         ld de,BUFFER_WINDOW_WIDTH-2
 4296+CB3A 19               add hl,de ;increment HL pointer by wwidth
 4297+CB3B
 4298+CB3B                  ;0,10 ;;;;;;;;;;;;;;;;;;;;;;;;;;;;;;;;;;;;;;;;;;;;;;;;;;;;;;;;;;;;
 4299+CB3B 0A               ld a,(bc)
 4300+CB3C 77               ld (hl),a
 4301+CB3D 03               inc bc
 4302+CB3E 23               inc hl
 4303+CB3F                  ;1,
 4304+CB3F 0A               ld a,(bc)
 4305+CB40 77               ld (hl),a
 4306+CB41 03               inc bc
 4307+CB42 23               inc hl
 4308+CB43                  ;2,
 4309+CB43 0A               ld a,(bc)
 4310+CB44 77               ld (hl),a
 4311+CB45 03               inc bc
 4312+CB46 11 1A 00         ld de,BUFFER_WINDOW_WIDTH-2
 4313+CB49 19               add hl,de ;increment HL pointer by wwidth
 4314+CB4A                  ;0,1
 4315+CB4A 0A               ld a,(bc)
 4316+CB4B 77               ld (hl),a
 4317+CB4C 03               inc bc
 4318+CB4D 23               inc hl
 4319+CB4E                  ;1,
 4320+CB4E 0A               ld a,(bc)
 4321+CB4F 77               ld (hl),a
 4322+CB50 03               inc bc
 4323+CB51 23               inc hl
 4324+CB52                  ;2,
 4325+CB52 0A               ld a,(bc)
 4326+CB53 77               ld (hl),a
 4327+CB54 03               inc bc
 4328+CB55 11 1A 00         ld de,BUFFER_WINDOW_WIDTH-2
 4329+CB58 19               add hl,de ;increment HL pointer by wwidth
 4330+CB59                  ;0,2
 4331+CB59 0A               ld a,(bc)
 4332+CB5A 77               ld (hl),a
 4333+CB5B 03               inc bc
 4334+CB5C 23               inc hl
 4335+CB5D                  ;1,
 4336+CB5D 0A               ld a,(bc)
 4337+CB5E 77               ld (hl),a
 4338+CB5F 03               inc bc
 4339+CB60 23               inc hl
 4340+CB61                  ;2,
 4341+CB61 0A               ld a,(bc)
 4342+CB62 77               ld (hl),a
 4343+CB63 03               inc bc
 4344+CB64 11 1A 00         ld de,BUFFER_WINDOW_WIDTH-2
 4345+CB67 19               add hl,de ;increment HL pointer by wwidth
 4346+CB68                  ;0,3
 4347+CB68 0A               ld a,(bc)
 4348+CB69 77               ld (hl),a
 4349+CB6A 03               inc bc
 4350+CB6B 23               inc hl
 4351+CB6C                  ;1,
 4352+CB6C 0A               ld a,(bc)
 4353+CB6D 77               ld (hl),a
 4354+CB6E 03               inc bc
 4355+CB6F 23               inc hl
 4356+CB70                  ;2,
 4357+CB70 0A               ld a,(bc)
 4358+CB71 77               ld (hl),a
 4359+CB72 03               inc bc
 4360+CB73 11 1A 00         ld de,BUFFER_WINDOW_WIDTH-2
 4361+CB76 19               add hl,de ;increment HL pointer by wwidth
 4362+CB77                  ;0,4
 4363+CB77 0A               ld a,(bc)
 4364+CB78 77               ld (hl),a
 4365+CB79 03               inc bc
 4366+CB7A 23               inc hl
 4367+CB7B                  ;1,
 4368+CB7B 0A               ld a,(bc)
 4369+CB7C 77               ld (hl),a
 4370+CB7D 03               inc bc
 4371+CB7E 23               inc hl
 4372+CB7F                  ;2,
 4373+CB7F 0A               ld a,(bc)
 4374+CB80 77               ld (hl),a
 4375+CB81 03               inc bc
 4376+CB82 11 1A 00         ld de,BUFFER_WINDOW_WIDTH-2
 4377+CB85 19               add hl,de ;increment HL pointer by wwidth
 4378+CB86                  ;0,5
 4379+CB86 0A               ld a,(bc)
 4380+CB87 77               ld (hl),a
 4381+CB88 03               inc bc
 4382+CB89 23               inc hl
 4383+CB8A                  ;1,
 4384+CB8A 0A               ld a,(bc)
 4385+CB8B 77               ld (hl),a
 4386+CB8C 03               inc bc
 4387+CB8D 23               inc hl
 4388+CB8E                  ;2,
 4389+CB8E 0A               ld a,(bc)
 4390+CB8F 77               ld (hl),a
 4391+CB90 03               inc bc
 4392+CB91 11 1A 00         ld de,BUFFER_WINDOW_WIDTH-2
 4393+CB94 19               add hl,de ;increment HL pointer by wwidth
 4394+CB95                  ;0,6
 4395+CB95 0A               ld a,(bc)
 4396+CB96 77               ld (hl),a
 4397+CB97 03               inc bc
 4398+CB98 23               inc hl
 4399+CB99                  ;1,
 4400+CB99 0A               ld a,(bc)
 4401+CB9A 77               ld (hl),a
 4402+CB9B 03               inc bc
 4403+CB9C 23               inc hl
 4404+CB9D                  ;2,
 4405+CB9D 0A               ld a,(bc)
 4406+CB9E 77               ld (hl),a
 4407+CB9F 03               inc bc
 4408+CBA0 11 1A 00         ld de,BUFFER_WINDOW_WIDTH-2
 4409+CBA3 19               add hl,de ;increment HL pointer by wwidth
 4410+CBA4                  ;0,7
 4411+CBA4 0A               ld a,(bc)
 4412+CBA5 77               ld (hl),a
 4413+CBA6 03               inc bc
 4414+CBA7 23               inc hl
 4415+CBA8                  ;1,
 4416+CBA8 0A               ld a,(bc)
 4417+CBA9 77               ld (hl),a
 4418+CBAA 03               inc bc
 4419+CBAB 23               inc hl
 4420+CBAC                  ;2,
 4421+CBAC 0A               ld a,(bc)
 4422+CBAD 77               ld (hl),a
 4423+CBAE 03               inc bc
 4424+CBAF 11 1A 00         ld de,BUFFER_WINDOW_WIDTH-2
 4425+CBB2 19               add hl,de ;increment HL pointer by wwidth
 4426+CBB3                  ;0,8
 4427+CBB3 0A               ld a,(bc)
 4428+CBB4 77               ld (hl),a
 4429+CBB5 03               inc bc
 4430+CBB6 23               inc hl
 4431+CBB7                  ;1,
 4432+CBB7 0A               ld a,(bc)
 4433+CBB8 77               ld (hl),a
 4434+CBB9 03               inc bc
 4435+CBBA 23               inc hl
 4436+CBBB                  ;2,
 4437+CBBB 0A               ld a,(bc)
 4438+CBBC 77               ld (hl),a
 4439+CBBD 03               inc bc
 4440+CBBE 11 1A 00         ld de,BUFFER_WINDOW_WIDTH-2
 4441+CBC1 19               add hl,de ;increment HL pointer by wwidth
 4442+CBC2                  ;0,9
 4443+CBC2 0A               ld a,(bc)
 4444+CBC3 77               ld (hl),a
 4445+CBC4 03               inc bc
 4446+CBC5 23               inc hl
 4447+CBC6                  ;1,
 4448+CBC6 0A               ld a,(bc)
 4449+CBC7 77               ld (hl),a
 4450+CBC8 03               inc bc
 4451+CBC9 23               inc hl
 4452+CBCA                  ;2,
 4453+CBCA 0A               ld a,(bc)
 4454+CBCB 77               ld (hl),a
 4455+CBCC 03               inc bc
 4456+CBCD 11 1A 00         ld de,BUFFER_WINDOW_WIDTH-2
 4457+CBD0 19               add hl,de ;increment HL pointer by wwidth
 4458+CBD1
 4459+CBD1
 4460+CBD1
 4461+CBD1
 4462+CBD1                   ;0,20 ;;;;;;;;;;;;;;;;;;;;;;;;;;;;;;;;;;;;;;;;;;;;;;;;;;;;;;;;;;;;
 4463+CBD1 0A               ld a,(bc)
 4464+CBD2 77               ld (hl),a
 4465+CBD3 03               inc bc
 4466+CBD4 23               inc hl
 4467+CBD5                  ;1,
 4468+CBD5 0A               ld a,(bc)
 4469+CBD6 77               ld (hl),a
 4470+CBD7 03               inc bc
 4471+CBD8 23               inc hl
 4472+CBD9                  ;2,
 4473+CBD9 0A               ld a,(bc)
 4474+CBDA 77               ld (hl),a
 4475+CBDB 03               inc bc
 4476+CBDC 11 1A 00         ld de,BUFFER_WINDOW_WIDTH-2
 4477+CBDF 19               add hl,de ;increment HL pointer by wwidth
 4478+CBE0                  ;0,1
 4479+CBE0 0A               ld a,(bc)
 4480+CBE1 77               ld (hl),a
 4481+CBE2 03               inc bc
 4482+CBE3 23               inc hl
 4483+CBE4                  ;1,
 4484+CBE4 0A               ld a,(bc)
 4485+CBE5 77               ld (hl),a
 4486+CBE6 03               inc bc
 4487+CBE7 23               inc hl
 4488+CBE8                  ;2,
 4489+CBE8 0A               ld a,(bc)
 4490+CBE9 77               ld (hl),a
 4491+CBEA 03               inc bc
 4492+CBEB 11 1A 00         ld de,BUFFER_WINDOW_WIDTH-2
 4493+CBEE 19               add hl,de ;increment HL pointer by wwidth
 4494+CBEF                  ;0,2
 4495+CBEF 0A               ld a,(bc)
 4496+CBF0 77               ld (hl),a
 4497+CBF1 03               inc bc
 4498+CBF2 23               inc hl
 4499+CBF3                  ;1,
 4500+CBF3 0A               ld a,(bc)
 4501+CBF4 77               ld (hl),a
 4502+CBF5 03               inc bc
 4503+CBF6 23               inc hl
 4504+CBF7                  ;2,
 4505+CBF7 0A               ld a,(bc)
 4506+CBF8 77               ld (hl),a
 4507+CBF9 03               inc bc
 4508+CBFA 11 1A 00         ld de,BUFFER_WINDOW_WIDTH-2
 4509+CBFD 19               add hl,de ;increment HL pointer by wwidth
 4510+CBFE                  ;0,3
 4511+CBFE 0A               ld a,(bc)
 4512+CBFF 77               ld (hl),a
 4513+CC00 03               inc bc
 4514+CC01 23               inc hl
 4515+CC02                  ;1,
 4516+CC02 0A               ld a,(bc)
 4517+CC03 77               ld (hl),a
 4518+CC04 03               inc bc
 4519+CC05 23               inc hl
 4520+CC06                  ;2,
 4521+CC06 0A               ld a,(bc)
 4522+CC07 77               ld (hl),a
 4523+CC08 03               inc bc
 4524+CC09 11 1A 00         ld de,BUFFER_WINDOW_WIDTH-2
 4525+CC0C 19               add hl,de ;increment HL pointer by wwidth
 4526+CC0D                  ;0,4
 4527+CC0D 0A               ld a,(bc)
 4528+CC0E 77               ld (hl),a
 4529+CC0F 03               inc bc
 4530+CC10 23               inc hl
 4531+CC11                  ;1,
 4532+CC11 0A               ld a,(bc)
 4533+CC12 77               ld (hl),a
 4534+CC13 03               inc bc
 4535+CC14 23               inc hl
 4536+CC15                  ;2,
 4537+CC15 0A               ld a,(bc)
 4538+CC16 77               ld (hl),a
 4539+CC17 03               inc bc
 4540+CC18 11 1A 00         ld de,BUFFER_WINDOW_WIDTH-2
 4541+CC1B 19               add hl,de ;increment HL pointer by wwidth
 4542+CC1C                  ;0,5
 4543+CC1C 0A               ld a,(bc)
 4544+CC1D 77               ld (hl),a
 4545+CC1E 03               inc bc
 4546+CC1F 23               inc hl
 4547+CC20                  ;1,
 4548+CC20 0A               ld a,(bc)
 4549+CC21 77               ld (hl),a
 4550+CC22 03               inc bc
 4551+CC23 23               inc hl
 4552+CC24                  ;2,
 4553+CC24 0A               ld a,(bc)
 4554+CC25 77               ld (hl),a
 4555+CC26 03               inc bc
 4556+CC27 11 1A 00         ld de,BUFFER_WINDOW_WIDTH-2
 4557+CC2A 19               add hl,de ;increment HL pointer by wwidth
 4558+CC2B                  ;0,6
 4559+CC2B 0A               ld a,(bc)
 4560+CC2C 77               ld (hl),a
 4561+CC2D 03               inc bc
 4562+CC2E 23               inc hl
 4563+CC2F                  ;1,
 4564+CC2F 0A               ld a,(bc)
 4565+CC30 77               ld (hl),a
 4566+CC31 03               inc bc
 4567+CC32 23               inc hl
 4568+CC33                  ;2,
 4569+CC33 0A               ld a,(bc)
 4570+CC34 77               ld (hl),a
 4571+CC35 03               inc bc
 4572+CC36 11 1A 00         ld de,BUFFER_WINDOW_WIDTH-2
 4573+CC39 19               add hl,de ;increment HL pointer by wwidth
 4574+CC3A                  ;0,7
 4575+CC3A 0A               ld a,(bc)
 4576+CC3B 77               ld (hl),a
 4577+CC3C 03               inc bc
 4578+CC3D 23               inc hl
 4579+CC3E                  ;1,
 4580+CC3E 0A               ld a,(bc)
 4581+CC3F 77               ld (hl),a
 4582+CC40 03               inc bc
 4583+CC41 23               inc hl
 4584+CC42                  ;2,
 4585+CC42 0A               ld a,(bc)
 4586+CC43 77               ld (hl),a
 4587+CC44 03               inc bc
 4588+CC45 11 1A 00         ld de,BUFFER_WINDOW_WIDTH-2
 4589+CC48 19               add hl,de ;increment HL pointer by wwidth
 4590+CC49                  ;0,8
 4591+CC49 0A               ld a,(bc)
 4592+CC4A 77               ld (hl),a
 4593+CC4B 03               inc bc
 4594+CC4C 23               inc hl
 4595+CC4D                  ;1,
 4596+CC4D 0A               ld a,(bc)
 4597+CC4E 77               ld (hl),a
 4598+CC4F 03               inc bc
 4599+CC50 23               inc hl
 4600+CC51                  ;2,
 4601+CC51 0A               ld a,(bc)
 4602+CC52 77               ld (hl),a
 4603+CC53 03               inc bc
 4604+CC54 11 1A 00         ld de,BUFFER_WINDOW_WIDTH-2
 4605+CC57 19               add hl,de ;increment HL pointer by wwidth
 4606+CC58                  ;0,9
 4607+CC58 0A               ld a,(bc)
 4608+CC59 77               ld (hl),a
 4609+CC5A 03               inc bc
 4610+CC5B 23               inc hl
 4611+CC5C                  ;1,
 4612+CC5C 0A               ld a,(bc)
 4613+CC5D 77               ld (hl),a
 4614+CC5E 03               inc bc
 4615+CC5F 23               inc hl
 4616+CC60                  ;2,
 4617+CC60 0A               ld a,(bc)
 4618+CC61 77               ld (hl),a
 4619+CC62 03               inc bc
 4620+CC63 11 1A 00         ld de,BUFFER_WINDOW_WIDTH-2
 4621+CC66 19               add hl,de ;increment HL pointer by wwidth
 4622+CC67
 4623+CC67
 4624+CC67
 4625+CC67
 4626+CC67
 4627+CC67
 4628+CC67
 4629+CC67
 4630+CC67                   ;0,30 ;;;;;;;;;;;;;;;;;;;;;;;;;;;;;;;;;;;;;;;;;;;;;;;;;;;;;;;;;;;;
 4631+CC67 0A               ld a,(bc)
 4632+CC68 77               ld (hl),a
 4633+CC69 03               inc bc
 4634+CC6A 23               inc hl
 4635+CC6B                  ;1,
 4636+CC6B 0A               ld a,(bc)
 4637+CC6C 77               ld (hl),a
 4638+CC6D 03               inc bc
 4639+CC6E 23               inc hl
 4640+CC6F                  ;2,
 4641+CC6F 0A               ld a,(bc)
 4642+CC70 77               ld (hl),a
 4643+CC71 03               inc bc
 4644+CC72 11 1A 00         ld de,BUFFER_WINDOW_WIDTH-2
 4645+CC75 19               add hl,de ;increment HL pointer by wwidth
 4646+CC76                  ;0,1
 4647+CC76 0A               ld a,(bc)
 4648+CC77 77               ld (hl),a
 4649+CC78 03               inc bc
 4650+CC79 23               inc hl
 4651+CC7A                  ;1,
 4652+CC7A 0A               ld a,(bc)
 4653+CC7B 77               ld (hl),a
 4654+CC7C 03               inc bc
 4655+CC7D 23               inc hl
 4656+CC7E                  ;2,
 4657+CC7E 0A               ld a,(bc)
 4658+CC7F 77               ld (hl),a
 4659+CC80 03               inc bc
 4660+CC81 11 1A 00         ld de,BUFFER_WINDOW_WIDTH-2
 4661+CC84 19               add hl,de ;increment HL pointer by wwidth
 4662+CC85                  ;0,2
 4663+CC85 0A               ld a,(bc)
 4664+CC86 77               ld (hl),a
 4665+CC87 03               inc bc
 4666+CC88 23               inc hl
 4667+CC89                  ;1,
 4668+CC89 0A               ld a,(bc)
 4669+CC8A 77               ld (hl),a
 4670+CC8B 03               inc bc
 4671+CC8C 23               inc hl
 4672+CC8D                  ;2,
 4673+CC8D 0A               ld a,(bc)
 4674+CC8E 77               ld (hl),a
 4675+CC8F 03               inc bc
 4676+CC90 11 1A 00         ld de,BUFFER_WINDOW_WIDTH-2
 4677+CC93 19               add hl,de ;increment HL pointer by wwidth
 4678+CC94                  ;0,3
 4679+CC94 0A               ld a,(bc)
 4680+CC95 77               ld (hl),a
 4681+CC96 03               inc bc
 4682+CC97 23               inc hl
 4683+CC98                  ;1,
 4684+CC98 0A               ld a,(bc)
 4685+CC99 77               ld (hl),a
 4686+CC9A 03               inc bc
 4687+CC9B 23               inc hl
 4688+CC9C                  ;2,
 4689+CC9C 0A               ld a,(bc)
 4690+CC9D 77               ld (hl),a
 4691+CC9E 03               inc bc
 4692+CC9F 11 1A 00         ld de,BUFFER_WINDOW_WIDTH-2
 4693+CCA2 19               add hl,de ;increment HL pointer by wwidth
 4694+CCA3                  ;0,4
 4695+CCA3 0A               ld a,(bc)
 4696+CCA4 77               ld (hl),a
 4697+CCA5 03               inc bc
 4698+CCA6 23               inc hl
 4699+CCA7                  ;1,
 4700+CCA7 0A               ld a,(bc)
 4701+CCA8 77               ld (hl),a
 4702+CCA9 03               inc bc
 4703+CCAA 23               inc hl
 4704+CCAB                  ;2,
 4705+CCAB 0A               ld a,(bc)
 4706+CCAC 77               ld (hl),a
 4707+CCAD 03               inc bc
 4708+CCAE 11 1A 00         ld de,BUFFER_WINDOW_WIDTH-2
 4709+CCB1 19               add hl,de ;increment HL pointer by wwidth
 4710+CCB2                  ;0,5
 4711+CCB2 0A               ld a,(bc)
 4712+CCB3 77               ld (hl),a
 4713+CCB4 03               inc bc
 4714+CCB5 23               inc hl
 4715+CCB6                  ;1,
 4716+CCB6 0A               ld a,(bc)
 4717+CCB7 77               ld (hl),a
 4718+CCB8 03               inc bc
 4719+CCB9 23               inc hl
 4720+CCBA                  ;2,
 4721+CCBA 0A               ld a,(bc)
 4722+CCBB 77               ld (hl),a
 4723+CCBC 03               inc bc
 4724+CCBD 11 1A 00         ld de,BUFFER_WINDOW_WIDTH-2
 4725+CCC0 19               add hl,de ;increment HL pointer by wwidth
 4726+CCC1                  ;0,6
 4727+CCC1 0A               ld a,(bc)
 4728+CCC2 77               ld (hl),a
 4729+CCC3 03               inc bc
 4730+CCC4 23               inc hl
 4731+CCC5                  ;1,
 4732+CCC5 0A               ld a,(bc)
 4733+CCC6 77               ld (hl),a
 4734+CCC7 03               inc bc
 4735+CCC8 23               inc hl
 4736+CCC9                  ;2,
 4737+CCC9 0A               ld a,(bc)
 4738+CCCA 77               ld (hl),a
 4739+CCCB 03               inc bc
 4740+CCCC 11 1A 00         ld de,BUFFER_WINDOW_WIDTH-2
 4741+CCCF 19               add hl,de ;increment HL pointer by wwidth
 4742+CCD0                  ;0,7
 4743+CCD0 0A               ld a,(bc)
 4744+CCD1 77               ld (hl),a
 4745+CCD2 03               inc bc
 4746+CCD3 23               inc hl
 4747+CCD4                  ;1,
 4748+CCD4 0A               ld a,(bc)
 4749+CCD5 77               ld (hl),a
 4750+CCD6 03               inc bc
 4751+CCD7 23               inc hl
 4752+CCD8                  ;2,
 4753+CCD8 0A               ld a,(bc)
 4754+CCD9 77               ld (hl),a
 4755+CCDA 03               inc bc
 4756+CCDB 11 1A 00         ld de,BUFFER_WINDOW_WIDTH-2
 4757+CCDE 19               add hl,de ;increment HL pointer by wwidth
 4758+CCDF                  ;0,8
 4759+CCDF 0A               ld a,(bc)
 4760+CCE0 77               ld (hl),a
 4761+CCE1 03               inc bc
 4762+CCE2 23               inc hl
 4763+CCE3                  ;1,
 4764+CCE3 0A               ld a,(bc)
 4765+CCE4 77               ld (hl),a
 4766+CCE5 03               inc bc
 4767+CCE6 23               inc hl
 4768+CCE7                  ;2,
 4769+CCE7 0A               ld a,(bc)
 4770+CCE8 77               ld (hl),a
 4771+CCE9 03               inc bc
 4772+CCEA 11 1A 00         ld de,BUFFER_WINDOW_WIDTH-2
 4773+CCED 19               add hl,de ;increment HL pointer by wwidth
 4774+CCEE                  ;0,9
 4775+CCEE 0A               ld a,(bc)
 4776+CCEF 77               ld (hl),a
 4777+CCF0 03               inc bc
 4778+CCF1 23               inc hl
 4779+CCF2                  ;1,
 4780+CCF2 0A               ld a,(bc)
 4781+CCF3 77               ld (hl),a
 4782+CCF4 03               inc bc
 4783+CCF5 23               inc hl
 4784+CCF6                  ;2,
 4785+CCF6 0A               ld a,(bc)
 4786+CCF7 77               ld (hl),a
 4787+CCF8 03               inc bc
 4788+CCF9 11 1A 00         ld de,BUFFER_WINDOW_WIDTH-2
 4789+CCFC 19               add hl,de ;increment HL pointer by wwidth
 4790+CCFD
 4791+CCFD
 4792+CCFD
 4793+CCFD
 4794+CCFD
 4795+CCFD
 4796+CCFD                   ;0,40 ;;;;;;;;;;;;;;;;;;;;;;;;;;;;;;;;;;;;;;;;;;;;;;;;;;;;;;;;;;;;
 4797+CCFD 0A               ld a,(bc)
 4798+CCFE 77               ld (hl),a
 4799+CCFF 03               inc bc
 4800+CD00 23               inc hl
 4801+CD01                  ;1,
 4802+CD01 0A               ld a,(bc)
 4803+CD02 77               ld (hl),a
 4804+CD03 03               inc bc
 4805+CD04 23               inc hl
 4806+CD05                  ;2,
 4807+CD05 0A               ld a,(bc)
 4808+CD06 77               ld (hl),a
 4809+CD07 03               inc bc
 4810+CD08 11 1A 00         ld de,BUFFER_WINDOW_WIDTH-2
 4811+CD0B 19               add hl,de ;increment HL pointer by wwidth
 4812+CD0C                  ;0,1
 4813+CD0C 0A               ld a,(bc)
 4814+CD0D 77               ld (hl),a
 4815+CD0E 03               inc bc
 4816+CD0F 23               inc hl
 4817+CD10                  ;1,
 4818+CD10 0A               ld a,(bc)
 4819+CD11 77               ld (hl),a
 4820+CD12 03               inc bc
 4821+CD13 23               inc hl
 4822+CD14                  ;2,
 4823+CD14 0A               ld a,(bc)
 4824+CD15 77               ld (hl),a
 4825+CD16 03               inc bc
 4826+CD17 11 1A 00         ld de,BUFFER_WINDOW_WIDTH-2
 4827+CD1A 19               add hl,de ;increment HL pointer by wwidth
 4828+CD1B                  ;0,2
 4829+CD1B 0A               ld a,(bc)
 4830+CD1C 77               ld (hl),a
 4831+CD1D 03               inc bc
 4832+CD1E 23               inc hl
 4833+CD1F                  ;1,
 4834+CD1F 0A               ld a,(bc)
 4835+CD20 77               ld (hl),a
 4836+CD21 03               inc bc
 4837+CD22 23               inc hl
 4838+CD23                  ;2,
 4839+CD23 0A               ld a,(bc)
 4840+CD24 77               ld (hl),a
 4841+CD25 03               inc bc
 4842+CD26 11 1A 00         ld de,BUFFER_WINDOW_WIDTH-2
 4843+CD29 19               add hl,de ;increment HL pointer by wwidth
 4844+CD2A                  ;0,3
 4845+CD2A 0A               ld a,(bc)
 4846+CD2B 77               ld (hl),a
 4847+CD2C 03               inc bc
 4848+CD2D 23               inc hl
 4849+CD2E                  ;1,
 4850+CD2E 0A               ld a,(bc)
 4851+CD2F 77               ld (hl),a
 4852+CD30 03               inc bc
 4853+CD31 23               inc hl
 4854+CD32                  ;2,
 4855+CD32 0A               ld a,(bc)
 4856+CD33 77               ld (hl),a
 4857+CD34 03               inc bc
 4858+CD35 11 1A 00         ld de,BUFFER_WINDOW_WIDTH-2
 4859+CD38 19               add hl,de ;increment HL pointer by wwidth
 4860+CD39                  ;0,4
 4861+CD39 0A               ld a,(bc)
 4862+CD3A 77               ld (hl),a
 4863+CD3B 03               inc bc
 4864+CD3C 23               inc hl
 4865+CD3D                  ;1,
 4866+CD3D 0A               ld a,(bc)
 4867+CD3E 77               ld (hl),a
 4868+CD3F 03               inc bc
 4869+CD40 23               inc hl
 4870+CD41                  ;2,
 4871+CD41 0A               ld a,(bc)
 4872+CD42 77               ld (hl),a
 4873+CD43 03               inc bc
 4874+CD44 11 1A 00         ld de,BUFFER_WINDOW_WIDTH-2
 4875+CD47 19               add hl,de ;increment HL pointer by wwidth
 4876+CD48                  ;0,5
 4877+CD48 0A               ld a,(bc)
 4878+CD49 77               ld (hl),a
 4879+CD4A 03               inc bc
 4880+CD4B 23               inc hl
 4881+CD4C                  ;1,
 4882+CD4C 0A               ld a,(bc)
 4883+CD4D 77               ld (hl),a
 4884+CD4E 03               inc bc
 4885+CD4F 23               inc hl
 4886+CD50                  ;2,
 4887+CD50 0A               ld a,(bc)
 4888+CD51 77               ld (hl),a
 4889+CD52 03               inc bc
 4890+CD53 11 1A 00         ld de,BUFFER_WINDOW_WIDTH-2
 4891+CD56 19               add hl,de ;increment HL pointer by wwidth
 4892+CD57                  ;0,6
 4893+CD57 0A               ld a,(bc)
 4894+CD58 77               ld (hl),a
 4895+CD59 03               inc bc
 4896+CD5A 23               inc hl
 4897+CD5B                  ;1,
 4898+CD5B 0A               ld a,(bc)
 4899+CD5C 77               ld (hl),a
 4900+CD5D 03               inc bc
 4901+CD5E 23               inc hl
 4902+CD5F                  ;2,
 4903+CD5F 0A               ld a,(bc)
 4904+CD60 77               ld (hl),a
 4905+CD61 03               inc bc
 4906+CD62 11 1A 00         ld de,BUFFER_WINDOW_WIDTH-2
 4907+CD65 19               add hl,de ;increment HL pointer by wwidth
 4908+CD66                  ;0,7
 4909+CD66 0A               ld a,(bc)
 4910+CD67 77               ld (hl),a
 4911+CD68 03               inc bc
 4912+CD69 23               inc hl
 4913+CD6A                  ;1,
 4914+CD6A 0A               ld a,(bc)
 4915+CD6B 77               ld (hl),a
 4916+CD6C 03               inc bc
 4917+CD6D 23               inc hl
 4918+CD6E                  ;2,
 4919+CD6E 0A               ld a,(bc)
 4920+CD6F 77               ld (hl),a
 4921+CD70 03               inc bc
 4922+CD71 11 1A 00         ld de,BUFFER_WINDOW_WIDTH-2
 4923+CD74 19               add hl,de ;increment HL pointer by wwidth
 4924+CD75                  ;0,8
 4925+CD75 0A               ld a,(bc)
 4926+CD76 77               ld (hl),a
 4927+CD77 03               inc bc
 4928+CD78 23               inc hl
 4929+CD79                  ;1,
 4930+CD79 0A               ld a,(bc)
 4931+CD7A 77               ld (hl),a
 4932+CD7B 03               inc bc
 4933+CD7C 23               inc hl
 4934+CD7D                  ;2,
 4935+CD7D 0A               ld a,(bc)
 4936+CD7E 77               ld (hl),a
 4937+CD7F 03               inc bc
 4938+CD80 11 1A 00         ld de,BUFFER_WINDOW_WIDTH-2
 4939+CD83 19               add hl,de ;increment HL pointer by wwidth
 4940+CD84                  ;0,9
 4941+CD84 0A               ld a,(bc)
 4942+CD85 77               ld (hl),a
 4943+CD86 03               inc bc
 4944+CD87 23               inc hl
 4945+CD88                  ;1,
 4946+CD88 0A               ld a,(bc)
 4947+CD89 77               ld (hl),a
 4948+CD8A 03               inc bc
 4949+CD8B 23               inc hl
 4950+CD8C                  ;2,
 4951+CD8C 0A               ld a,(bc)
 4952+CD8D 77               ld (hl),a
 4953+CD8E 03               inc bc
 4954+CD8F 11 1A 00         ld de,BUFFER_WINDOW_WIDTH-2
 4955+CD92 19               add hl,de ;increment HL pointer by wwidth
 4956+CD93
 4957+CD93
 4958+CD93
 4959+CD93
 4960+CD93
 4961+CD93
 4962+CD93                   ;0,50 ;;;;;;;;;;;;;;;;;;;;;;;;;;;;;;;;;;;;;;;;;;;;;;;;;;;;;;;;;;;;
 4963+CD93 0A               ld a,(bc)
 4964+CD94 77               ld (hl),a
 4965+CD95 03               inc bc
 4966+CD96 23               inc hl
 4967+CD97                  ;1,
 4968+CD97 0A               ld a,(bc)
 4969+CD98 77               ld (hl),a
 4970+CD99 03               inc bc
 4971+CD9A 23               inc hl
 4972+CD9B                  ;2,
 4973+CD9B 0A               ld a,(bc)
 4974+CD9C 77               ld (hl),a
 4975+CD9D 03               inc bc
 4976+CD9E 11 1A 00         ld de,BUFFER_WINDOW_WIDTH-2
 4977+CDA1 19               add hl,de ;increment HL pointer by wwidth
 4978+CDA2                  ;0,1
 4979+CDA2 0A               ld a,(bc)
 4980+CDA3 77               ld (hl),a
 4981+CDA4 03               inc bc
 4982+CDA5 23               inc hl
 4983+CDA6                  ;1,
 4984+CDA6 0A               ld a,(bc)
 4985+CDA7 77               ld (hl),a
 4986+CDA8 03               inc bc
 4987+CDA9 23               inc hl
 4988+CDAA                  ;2,
 4989+CDAA 0A               ld a,(bc)
 4990+CDAB 77               ld (hl),a
 4991+CDAC 03               inc bc
 4992+CDAD 11 1A 00         ld de,BUFFER_WINDOW_WIDTH-2
 4993+CDB0 19               add hl,de ;increment HL pointer by wwidth
 4994+CDB1                  ;0,2
 4995+CDB1 0A               ld a,(bc)
 4996+CDB2 77               ld (hl),a
 4997+CDB3 03               inc bc
 4998+CDB4 23               inc hl
 4999+CDB5                  ;1,
 5000+CDB5 0A               ld a,(bc)
 5001+CDB6 77               ld (hl),a
 5002+CDB7 03               inc bc
 5003+CDB8 23               inc hl
 5004+CDB9                  ;2,
 5005+CDB9 0A               ld a,(bc)
 5006+CDBA 77               ld (hl),a
 5007+CDBB 03               inc bc
 5008+CDBC 11 1A 00         ld de,BUFFER_WINDOW_WIDTH-2
 5009+CDBF 19               add hl,de ;increment HL pointer by wwidth
 5010+CDC0                  ;0,3
 5011+CDC0 0A               ld a,(bc)
 5012+CDC1 77               ld (hl),a
 5013+CDC2 03               inc bc
 5014+CDC3 23               inc hl
 5015+CDC4                  ;1,
 5016+CDC4 0A               ld a,(bc)
 5017+CDC5 77               ld (hl),a
 5018+CDC6 03               inc bc
 5019+CDC7 23               inc hl
 5020+CDC8                  ;2,
 5021+CDC8 0A               ld a,(bc)
 5022+CDC9 77               ld (hl),a
 5023+CDCA 03               inc bc
 5024+CDCB 11 1A 00         ld de,BUFFER_WINDOW_WIDTH-2
 5025+CDCE 19               add hl,de ;increment HL pointer by wwidth
 5026+CDCF                  ;0,4
 5027+CDCF 0A               ld a,(bc)
 5028+CDD0 77               ld (hl),a
 5029+CDD1 03               inc bc
 5030+CDD2 23               inc hl
 5031+CDD3                  ;1,
 5032+CDD3 0A               ld a,(bc)
 5033+CDD4 77               ld (hl),a
 5034+CDD5 03               inc bc
 5035+CDD6 23               inc hl
 5036+CDD7                  ;2,
 5037+CDD7 0A               ld a,(bc)
 5038+CDD8 77               ld (hl),a
 5039+CDD9 03               inc bc
 5040+CDDA 11 1A 00         ld de,BUFFER_WINDOW_WIDTH-2
 5041+CDDD 19               add hl,de ;increment HL pointer by wwidth
 5042+CDDE                  ;0,5
 5043+CDDE 0A               ld a,(bc)
 5044+CDDF 77               ld (hl),a
 5045+CDE0 03               inc bc
 5046+CDE1 23               inc hl
 5047+CDE2                  ;1,
 5048+CDE2 0A               ld a,(bc)
 5049+CDE3 77               ld (hl),a
 5050+CDE4 03               inc bc
 5051+CDE5 23               inc hl
 5052+CDE6                  ;2,
 5053+CDE6 0A               ld a,(bc)
 5054+CDE7 77               ld (hl),a
 5055+CDE8 03               inc bc
 5056+CDE9 11 1A 00         ld de,BUFFER_WINDOW_WIDTH-2
 5057+CDEC 19               add hl,de ;increment HL pointer by wwidth
 5058+CDED                  ;0,6
 5059+CDED 0A               ld a,(bc)
 5060+CDEE 77               ld (hl),a
 5061+CDEF 03               inc bc
 5062+CDF0 23               inc hl
 5063+CDF1                  ;1,
 5064+CDF1 0A               ld a,(bc)
 5065+CDF2 77               ld (hl),a
 5066+CDF3 03               inc bc
 5067+CDF4 23               inc hl
 5068+CDF5                  ;2,
 5069+CDF5 0A               ld a,(bc)
 5070+CDF6 77               ld (hl),a
 5071+CDF7 03               inc bc
 5072+CDF8 11 1A 00         ld de,BUFFER_WINDOW_WIDTH-2
 5073+CDFB 19               add hl,de ;increment HL pointer by wwidth
 5074+CDFC                  ;0,7
 5075+CDFC 0A               ld a,(bc)
 5076+CDFD 77               ld (hl),a
 5077+CDFE 03               inc bc
 5078+CDFF 23               inc hl
 5079+CE00                  ;1,
 5080+CE00 0A               ld a,(bc)
 5081+CE01 77               ld (hl),a
 5082+CE02 03               inc bc
 5083+CE03 23               inc hl
 5084+CE04                  ;2,
 5085+CE04 0A               ld a,(bc)
 5086+CE05 77               ld (hl),a
 5087+CE06 03               inc bc
 5088+CE07 11 1A 00         ld de,BUFFER_WINDOW_WIDTH-2
 5089+CE0A 19               add hl,de ;increment HL pointer by wwidth
 5090+CE0B                  ;0,8
 5091+CE0B 0A               ld a,(bc)
 5092+CE0C 77               ld (hl),a
 5093+CE0D 03               inc bc
 5094+CE0E 23               inc hl
 5095+CE0F                  ;1,
 5096+CE0F 0A               ld a,(bc)
 5097+CE10 77               ld (hl),a
 5098+CE11 03               inc bc
 5099+CE12 23               inc hl
 5100+CE13                  ;2,
 5101+CE13 0A               ld a,(bc)
 5102+CE14 77               ld (hl),a
 5103+CE15 03               inc bc
 5104+CE16 11 1A 00         ld de,BUFFER_WINDOW_WIDTH-2
 5105+CE19 19               add hl,de ;increment HL pointer by wwidth
 5106+CE1A                  ;0,9
 5107+CE1A 0A               ld a,(bc)
 5108+CE1B 77               ld (hl),a
 5109+CE1C 03               inc bc
 5110+CE1D 23               inc hl
 5111+CE1E                  ;1,
 5112+CE1E 0A               ld a,(bc)
 5113+CE1F 77               ld (hl),a
 5114+CE20 03               inc bc
 5115+CE21 23               inc hl
 5116+CE22                  ;2,
 5117+CE22 0A               ld a,(bc)
 5118+CE23 77               ld (hl),a
 5119+CE24 03               inc bc
 5120+CE25 11 1A 00         ld de,BUFFER_WINDOW_WIDTH-2
 5121+CE28 19               add hl,de ;increment HL pointer by wwidth
 5122+CE29
 5123+CE29
 5124+CE29                   ;0,60 ;;;;;;;;;;;;;;;;;;;;;;;;;;;;;;;;;;;;;;;;;;;;;;;;;;;;;;;;;;;;
 5125+CE29 0A               ld a,(bc)
 5126+CE2A 77               ld (hl),a
 5127+CE2B 03               inc bc
 5128+CE2C 23               inc hl
 5129+CE2D                  ;1,
 5130+CE2D 0A               ld a,(bc)
 5131+CE2E 77               ld (hl),a
 5132+CE2F 03               inc bc
 5133+CE30 23               inc hl
 5134+CE31                  ;2,
 5135+CE31 0A               ld a,(bc)
 5136+CE32 77               ld (hl),a
 5137+CE33 03               inc bc
 5138+CE34 11 1A 00         ld de,BUFFER_WINDOW_WIDTH-2
 5139+CE37 19               add hl,de ;increment HL pointer by wwidth
 5140+CE38                  ;0,1
 5141+CE38 0A               ld a,(bc)
 5142+CE39 77               ld (hl),a
 5143+CE3A 03               inc bc
 5144+CE3B 23               inc hl
 5145+CE3C                  ;1,
 5146+CE3C 0A               ld a,(bc)
 5147+CE3D 77               ld (hl),a
 5148+CE3E 03               inc bc
 5149+CE3F 23               inc hl
 5150+CE40                  ;2,
 5151+CE40 0A               ld a,(bc)
 5152+CE41 77               ld (hl),a
 5153+CE42 03               inc bc
 5154+CE43 11 1A 00         ld de,BUFFER_WINDOW_WIDTH-2
 5155+CE46 19               add hl,de ;increment HL pointer by wwidth
 5156+CE47                  ;0,2
 5157+CE47 0A               ld a,(bc)
 5158+CE48 77               ld (hl),a
 5159+CE49 03               inc bc
 5160+CE4A 23               inc hl
 5161+CE4B                  ;1,
 5162+CE4B 0A               ld a,(bc)
 5163+CE4C 77               ld (hl),a
 5164+CE4D 03               inc bc
 5165+CE4E 23               inc hl
 5166+CE4F                  ;2,
 5167+CE4F 0A               ld a,(bc)
 5168+CE50 77               ld (hl),a
 5169+CE51 03               inc bc
 5170+CE52 11 1A 00         ld de,BUFFER_WINDOW_WIDTH-2
 5171+CE55 19               add hl,de ;increment HL pointer by wwidth
 5172+CE56                  ;0,3
 5173+CE56 0A               ld a,(bc)
 5174+CE57 77               ld (hl),a
 5175+CE58 03               inc bc
 5176+CE59 23               inc hl
 5177+CE5A                  ;1,
 5178+CE5A 0A               ld a,(bc)
 5179+CE5B 77               ld (hl),a
 5180+CE5C 03               inc bc
 5181+CE5D 23               inc hl
 5182+CE5E                  ;2,
 5183+CE5E 0A               ld a,(bc)
 5184+CE5F 77               ld (hl),a
 5185+CE60 C9               ret
 5186+CE61              ;
 5187+CE61
 5188+CE61
 5189+CE61
 5190+CE61              ;;Window Width of 24....
 5191+CE61              ;INPUTS:
 5192+CE61              ;wwidth=24
 5193+CE61              ;BC=sprite pointer
 5194+CE61              ;DE=xy
 5195+CE61              drawsprite16_128:
 5196+CE61 21 00 00         ld hl,0
 5197+CE64 7B               ld a,e
 5198+CE65 6F               ld l,a
 5199+CE66 29               add hl,hl ;HL= y*2
 5200+CE67 29               add hl,hl ;HL= y*4
 5201+CE68 D5               push de
 5202+CE69 E5               push hl
 5203+CE6A D1               pop de ;DE=y*4
 5204+CE6B 29               add hl,hl ;HL= y*8
 5205+CE6C C5               push bc
 5206+CE6D E5               push hl
 5207+CE6E C1               pop bc ;BC=y*8
 5208+CE6F 29               add hl,hl
 5209+CE70 09               add hl,bc ;HL=y*24
 5210+CE71 19               add hl,de ;HL=y*28
 5211+CE72 C1               pop bc
 5212+CE73 D1               pop de
 5213+CE74 5A               ld e,d
 5214+CE75 16 00            ld d,0
 5215+CE77 19               add hl,de ;HL+=x
 5216+CE78 11 00 80         ld de,GAME_WINDOW_START
 5217+CE7B 19               add hl,de ;HL+=memstart
 5218+CE7C                  ;start drawing bytes...
 5219+CE7C
 5220+CE7C                  ;0,0 ;;;;;;;;;;;;;;;;;;;;;;;;;;;;;;;;;;;;;;;;;;;;;;;;;;;
 5221+CE7C 0A               ld a,(bc)
 5222+CE7D 77               ld (hl),a
 5223+CE7E 03               inc bc
 5224+CE7F 23               inc hl
 5225+CE80                  ;1,
 5226+CE80 0A               ld a,(bc)
 5227+CE81 77               ld (hl),a
 5228+CE82 03               inc bc
 5229+CE83
 5230+CE83 11 1B 00         ld de,BUFFER_WINDOW_WIDTH-1
 5231+CE86 19               add hl,de ;increment HL pointer by wwidth
 5232+CE87                  ;0,1
 5233+CE87 0A               ld a,(bc)
 5234+CE88 77               ld (hl),a
 5235+CE89 03               inc bc
 5236+CE8A 23               inc hl
 5237+CE8B                  ;1,
 5238+CE8B 0A               ld a,(bc)
 5239+CE8C 77               ld (hl),a
 5240+CE8D 03               inc bc
 5241+CE8E
 5242+CE8E 11 1B 00         ld de,BUFFER_WINDOW_WIDTH-1
 5243+CE91 19               add hl,de ;increment HL pointer by wwidth
 5244+CE92                  ;0,2
 5245+CE92 0A               ld a,(bc)
 5246+CE93 77               ld (hl),a
 5247+CE94 03               inc bc
 5248+CE95 23               inc hl
 5249+CE96                  ;1,
 5250+CE96 0A               ld a,(bc)
 5251+CE97 77               ld (hl),a
 5252+CE98 03               inc bc
 5253+CE99
 5254+CE99 11 1B 00         ld de,BUFFER_WINDOW_WIDTH-1
 5255+CE9C 19               add hl,de ;increment HL pointer by wwidth
 5256+CE9D                  ;0,3
 5257+CE9D 0A               ld a,(bc)
 5258+CE9E 77               ld (hl),a
 5259+CE9F 03               inc bc
 5260+CEA0 23               inc hl
 5261+CEA1                  ;1,
 5262+CEA1 0A               ld a,(bc)
 5263+CEA2 77               ld (hl),a
 5264+CEA3 03               inc bc
 5265+CEA4
 5266+CEA4 11 1B 00         ld de,BUFFER_WINDOW_WIDTH-1
 5267+CEA7 19               add hl,de ;increment HL pointer by wwidth
 5268+CEA8                  ;0,4
 5269+CEA8 0A               ld a,(bc)
 5270+CEA9 77               ld (hl),a
 5271+CEAA 03               inc bc
 5272+CEAB 23               inc hl
 5273+CEAC                  ;1,
 5274+CEAC 0A               ld a,(bc)
 5275+CEAD 77               ld (hl),a
 5276+CEAE 03               inc bc
 5277+CEAF
 5278+CEAF 11 1B 00         ld de,BUFFER_WINDOW_WIDTH-1
 5279+CEB2 19               add hl,de ;increment HL pointer by wwidth
 5280+CEB3                  ;0,5
 5281+CEB3 0A               ld a,(bc)
 5282+CEB4 77               ld (hl),a
 5283+CEB5 03               inc bc
 5284+CEB6 23               inc hl
 5285+CEB7                  ;1,
 5286+CEB7 0A               ld a,(bc)
 5287+CEB8 77               ld (hl),a
 5288+CEB9 03               inc bc
 5289+CEBA
 5290+CEBA 11 1B 00         ld de,BUFFER_WINDOW_WIDTH-1
 5291+CEBD 19               add hl,de ;increment HL pointer by wwidth
 5292+CEBE                  ;0,6
 5293+CEBE 0A               ld a,(bc)
 5294+CEBF 77               ld (hl),a
 5295+CEC0 03               inc bc
 5296+CEC1 23               inc hl
 5297+CEC2                  ;1,
 5298+CEC2 0A               ld a,(bc)
 5299+CEC3 77               ld (hl),a
 5300+CEC4 03               inc bc
 5301+CEC5
 5302+CEC5 11 1B 00         ld de,BUFFER_WINDOW_WIDTH-1
 5303+CEC8 19               add hl,de ;increment HL pointer by wwidth
 5304+CEC9                  ;0,7
 5305+CEC9 0A               ld a,(bc)
 5306+CECA 77               ld (hl),a
 5307+CECB 03               inc bc
 5308+CECC 23               inc hl
 5309+CECD                  ;1,
 5310+CECD 0A               ld a,(bc)
 5311+CECE 77               ld (hl),a
 5312+CECF 03               inc bc
 5313+CED0
 5314+CED0 11 1B 00         ld de,BUFFER_WINDOW_WIDTH-1
 5315+CED3 19               add hl,de ;increment HL pointer by wwidth
 5316+CED4                  ;0,8
 5317+CED4 0A               ld a,(bc)
 5318+CED5 77               ld (hl),a
 5319+CED6 03               inc bc
 5320+CED7 23               inc hl
 5321+CED8                  ;1,
 5322+CED8 0A               ld a,(bc)
 5323+CED9 77               ld (hl),a
 5324+CEDA 03               inc bc
 5325+CEDB
 5326+CEDB 11 1B 00         ld de,BUFFER_WINDOW_WIDTH-1
 5327+CEDE 19               add hl,de ;increment HL pointer by wwidth
 5328+CEDF                  ;0,9
 5329+CEDF 0A               ld a,(bc)
 5330+CEE0 77               ld (hl),a
 5331+CEE1 03               inc bc
 5332+CEE2 23               inc hl
 5333+CEE3                  ;1,
 5334+CEE3 0A               ld a,(bc)
 5335+CEE4 77               ld (hl),a
 5336+CEE5 03               inc bc
 5337+CEE6
 5338+CEE6 11 1B 00         ld de,BUFFER_WINDOW_WIDTH-1
 5339+CEE9 19               add hl,de ;increment HL pointer by wwidth
 5340+CEEA
 5341+CEEA
 5342+CEEA
 5343+CEEA
 5344+CEEA
 5345+CEEA                   ;0,10 ;;;;;;;;;;;;;;;;;;;;;;;;;;;;;;;;;;;;;;;;;;;;;;;;;;;
 5346+CEEA 0A               ld a,(bc)
 5347+CEEB 77               ld (hl),a
 5348+CEEC 03               inc bc
 5349+CEED 23               inc hl
 5350+CEEE                  ;1,
 5351+CEEE 0A               ld a,(bc)
 5352+CEEF 77               ld (hl),a
 5353+CEF0 03               inc bc
 5354+CEF1
 5355+CEF1 11 1B 00         ld de,BUFFER_WINDOW_WIDTH-1
 5356+CEF4 19               add hl,de ;increment HL pointer by wwidth
 5357+CEF5                  ;0,1
 5358+CEF5 0A               ld a,(bc)
 5359+CEF6 77               ld (hl),a
 5360+CEF7 03               inc bc
 5361+CEF8 23               inc hl
 5362+CEF9                  ;1,
 5363+CEF9 0A               ld a,(bc)
 5364+CEFA 77               ld (hl),a
 5365+CEFB 03               inc bc
 5366+CEFC
 5367+CEFC 11 1B 00         ld de,BUFFER_WINDOW_WIDTH-1
 5368+CEFF 19               add hl,de ;increment HL pointer by wwidth
 5369+CF00                  ;0,2
 5370+CF00 0A               ld a,(bc)
 5371+CF01 77               ld (hl),a
 5372+CF02 03               inc bc
 5373+CF03 23               inc hl
 5374+CF04                  ;1,
 5375+CF04 0A               ld a,(bc)
 5376+CF05 77               ld (hl),a
 5377+CF06 03               inc bc
 5378+CF07
 5379+CF07 11 1B 00         ld de,BUFFER_WINDOW_WIDTH-1
 5380+CF0A 19               add hl,de ;increment HL pointer by wwidth
 5381+CF0B                  ;0,3
 5382+CF0B 0A               ld a,(bc)
 5383+CF0C 77               ld (hl),a
 5384+CF0D 03               inc bc
 5385+CF0E 23               inc hl
 5386+CF0F                  ;1,
 5387+CF0F 0A               ld a,(bc)
 5388+CF10 77               ld (hl),a
 5389+CF11 03               inc bc
 5390+CF12
 5391+CF12 11 1B 00         ld de,BUFFER_WINDOW_WIDTH-1
 5392+CF15 19               add hl,de ;increment HL pointer by wwidth
 5393+CF16                  ;0,4
 5394+CF16 0A               ld a,(bc)
 5395+CF17 77               ld (hl),a
 5396+CF18 03               inc bc
 5397+CF19 23               inc hl
 5398+CF1A                  ;1,
 5399+CF1A 0A               ld a,(bc)
 5400+CF1B 77               ld (hl),a
 5401+CF1C 03               inc bc
 5402+CF1D
 5403+CF1D 11 1B 00         ld de,BUFFER_WINDOW_WIDTH-1
 5404+CF20 19               add hl,de ;increment HL pointer by wwidth
 5405+CF21                  ;0,5
 5406+CF21 0A               ld a,(bc)
 5407+CF22 77               ld (hl),a
 5408+CF23 03               inc bc
 5409+CF24 23               inc hl
 5410+CF25                  ;1,
 5411+CF25 0A               ld a,(bc)
 5412+CF26 77               ld (hl),a
 5413+CF27 03               inc bc
 5414+CF28
 5415+CF28 11 1B 00         ld de,BUFFER_WINDOW_WIDTH-1
 5416+CF2B 19               add hl,de ;increment HL pointer by wwidth
 5417+CF2C                  ;0,6
 5418+CF2C 0A               ld a,(bc)
 5419+CF2D 77               ld (hl),a
 5420+CF2E 03               inc bc
 5421+CF2F 23               inc hl
 5422+CF30                  ;1,
 5423+CF30 0A               ld a,(bc)
 5424+CF31 77               ld (hl),a
 5425+CF32 03               inc bc
 5426+CF33
 5427+CF33 11 1B 00         ld de,BUFFER_WINDOW_WIDTH-1
 5428+CF36 19               add hl,de ;increment HL pointer by wwidth
 5429+CF37                  ;0,7
 5430+CF37 0A               ld a,(bc)
 5431+CF38 77               ld (hl),a
 5432+CF39 03               inc bc
 5433+CF3A 23               inc hl
 5434+CF3B                  ;1,
 5435+CF3B 0A               ld a,(bc)
 5436+CF3C 77               ld (hl),a
 5437+CF3D 03               inc bc
 5438+CF3E
 5439+CF3E 11 1B 00         ld de,BUFFER_WINDOW_WIDTH-1
 5440+CF41 19               add hl,de ;increment HL pointer by wwidth
 5441+CF42                  ;0,8
 5442+CF42 0A               ld a,(bc)
 5443+CF43 77               ld (hl),a
 5444+CF44 03               inc bc
 5445+CF45 23               inc hl
 5446+CF46                  ;1,
 5447+CF46 0A               ld a,(bc)
 5448+CF47 77               ld (hl),a
 5449+CF48 03               inc bc
 5450+CF49
 5451+CF49 11 1B 00         ld de,BUFFER_WINDOW_WIDTH-1
 5452+CF4C 19               add hl,de ;increment HL pointer by wwidth
 5453+CF4D                  ;0,9
 5454+CF4D 0A               ld a,(bc)
 5455+CF4E 77               ld (hl),a
 5456+CF4F 03               inc bc
 5457+CF50 23               inc hl
 5458+CF51                  ;1,
 5459+CF51 0A               ld a,(bc)
 5460+CF52 77               ld (hl),a
 5461+CF53 03               inc bc
 5462+CF54
 5463+CF54 11 1B 00         ld de,BUFFER_WINDOW_WIDTH-1
 5464+CF57 19               add hl,de ;increment HL pointer by wwidth
 5465+CF58
 5466+CF58
 5467+CF58
 5468+CF58
 5469+CF58
 5470+CF58
 5471+CF58                   ;0,20 ;;;;;;;;;;;;;;;;;;;;;;;;;;;;;;;;;;;;;;;;;;;;;;;;;;;
 5472+CF58 0A               ld a,(bc)
 5473+CF59 77               ld (hl),a
 5474+CF5A 03               inc bc
 5475+CF5B 23               inc hl
 5476+CF5C                  ;1,
 5477+CF5C 0A               ld a,(bc)
 5478+CF5D 77               ld (hl),a
 5479+CF5E 03               inc bc
 5480+CF5F
 5481+CF5F 11 1B 00         ld de,BUFFER_WINDOW_WIDTH-1
 5482+CF62 19               add hl,de ;increment HL pointer by wwidth
 5483+CF63                  ;0,1
 5484+CF63 0A               ld a,(bc)
 5485+CF64 77               ld (hl),a
 5486+CF65 03               inc bc
 5487+CF66 23               inc hl
 5488+CF67                  ;1,
 5489+CF67 0A               ld a,(bc)
 5490+CF68 77               ld (hl),a
 5491+CF69 03               inc bc
 5492+CF6A
 5493+CF6A 11 1B 00         ld de,BUFFER_WINDOW_WIDTH-1
 5494+CF6D 19               add hl,de ;increment HL pointer by wwidth
 5495+CF6E                  ;0,2
 5496+CF6E 0A               ld a,(bc)
 5497+CF6F 77               ld (hl),a
 5498+CF70 03               inc bc
 5499+CF71 23               inc hl
 5500+CF72                  ;1,
 5501+CF72 0A               ld a,(bc)
 5502+CF73 77               ld (hl),a
 5503+CF74 03               inc bc
 5504+CF75
 5505+CF75 11 1B 00         ld de,BUFFER_WINDOW_WIDTH-1
 5506+CF78 19               add hl,de ;increment HL pointer by wwidth
 5507+CF79                  ;0,3
 5508+CF79 0A               ld a,(bc)
 5509+CF7A 77               ld (hl),a
 5510+CF7B 03               inc bc
 5511+CF7C 23               inc hl
 5512+CF7D                  ;1,
 5513+CF7D 0A               ld a,(bc)
 5514+CF7E 77               ld (hl),a
 5515+CF7F 03               inc bc
 5516+CF80
 5517+CF80 11 1B 00         ld de,BUFFER_WINDOW_WIDTH-1
 5518+CF83 19               add hl,de ;increment HL pointer by wwidth
 5519+CF84                  ;0,4
 5520+CF84 0A               ld a,(bc)
 5521+CF85 77               ld (hl),a
 5522+CF86 03               inc bc
 5523+CF87 23               inc hl
 5524+CF88                  ;1,
 5525+CF88 0A               ld a,(bc)
 5526+CF89 77               ld (hl),a
 5527+CF8A 03               inc bc
 5528+CF8B
 5529+CF8B 11 1B 00         ld de,BUFFER_WINDOW_WIDTH-1
 5530+CF8E 19               add hl,de ;increment HL pointer by wwidth
 5531+CF8F                  ;0,5
 5532+CF8F 0A               ld a,(bc)
 5533+CF90 77               ld (hl),a
 5534+CF91 03               inc bc
 5535+CF92 23               inc hl
 5536+CF93                  ;1,
 5537+CF93 0A               ld a,(bc)
 5538+CF94 77               ld (hl),a
 5539+CF95 03               inc bc
 5540+CF96
 5541+CF96 11 1B 00         ld de,BUFFER_WINDOW_WIDTH-1
 5542+CF99 19               add hl,de ;increment HL pointer by wwidth
 5543+CF9A                  ;0,6
 5544+CF9A 0A               ld a,(bc)
 5545+CF9B 77               ld (hl),a
 5546+CF9C 03               inc bc
 5547+CF9D 23               inc hl
 5548+CF9E                  ;1,
 5549+CF9E 0A               ld a,(bc)
 5550+CF9F 77               ld (hl),a
 5551+CFA0 03               inc bc
 5552+CFA1
 5553+CFA1 11 1B 00         ld de,BUFFER_WINDOW_WIDTH-1
 5554+CFA4 19               add hl,de ;increment HL pointer by wwidth
 5555+CFA5                  ;0,7
 5556+CFA5 0A               ld a,(bc)
 5557+CFA6 77               ld (hl),a
 5558+CFA7 03               inc bc
 5559+CFA8 23               inc hl
 5560+CFA9                  ;1,
 5561+CFA9 0A               ld a,(bc)
 5562+CFAA 77               ld (hl),a
 5563+CFAB 03               inc bc
 5564+CFAC
 5565+CFAC 11 1B 00         ld de,BUFFER_WINDOW_WIDTH-1
 5566+CFAF 19               add hl,de ;increment HL pointer by wwidth
 5567+CFB0                  ;0,8
 5568+CFB0 0A               ld a,(bc)
 5569+CFB1 77               ld (hl),a
 5570+CFB2 03               inc bc
 5571+CFB3 23               inc hl
 5572+CFB4                  ;1,
 5573+CFB4 0A               ld a,(bc)
 5574+CFB5 77               ld (hl),a
 5575+CFB6 03               inc bc
 5576+CFB7
 5577+CFB7 11 1B 00         ld de,BUFFER_WINDOW_WIDTH-1
 5578+CFBA 19               add hl,de ;increment HL pointer by wwidth
 5579+CFBB                  ;0,9
 5580+CFBB 0A               ld a,(bc)
 5581+CFBC 77               ld (hl),a
 5582+CFBD 03               inc bc
 5583+CFBE 23               inc hl
 5584+CFBF                  ;1,
 5585+CFBF 0A               ld a,(bc)
 5586+CFC0 77               ld (hl),a
 5587+CFC1 03               inc bc
 5588+CFC2
 5589+CFC2 11 1B 00         ld de,BUFFER_WINDOW_WIDTH-1
 5590+CFC5 19               add hl,de ;increment HL pointer by wwidth
 5591+CFC6
 5592+CFC6
 5593+CFC6
 5594+CFC6
 5595+CFC6                   ;0,30 ;;;;;;;;;;;;;;;;;;;;;;;;;;;;;;;;;;;;;;;;;;;;;;;;;;;
 5596+CFC6 0A               ld a,(bc)
 5597+CFC7 77               ld (hl),a
 5598+CFC8 03               inc bc
 5599+CFC9 23               inc hl
 5600+CFCA                  ;1,
 5601+CFCA 0A               ld a,(bc)
 5602+CFCB 77               ld (hl),a
 5603+CFCC 03               inc bc
 5604+CFCD
 5605+CFCD 11 1B 00         ld de,BUFFER_WINDOW_WIDTH-1
 5606+CFD0 19               add hl,de ;increment HL pointer by wwidth
 5607+CFD1                  ;0,1
 5608+CFD1 0A               ld a,(bc)
 5609+CFD2 77               ld (hl),a
 5610+CFD3 03               inc bc
 5611+CFD4 23               inc hl
 5612+CFD5                  ;1,
 5613+CFD5 0A               ld a,(bc)
 5614+CFD6 77               ld (hl),a
 5615+CFD7 03               inc bc
 5616+CFD8
 5617+CFD8 11 1B 00         ld de,BUFFER_WINDOW_WIDTH-1
 5618+CFDB 19               add hl,de ;increment HL pointer by wwidth
 5619+CFDC                  ;0,2
 5620+CFDC 0A               ld a,(bc)
 5621+CFDD 77               ld (hl),a
 5622+CFDE 03               inc bc
 5623+CFDF 23               inc hl
 5624+CFE0                  ;1,
 5625+CFE0 0A               ld a,(bc)
 5626+CFE1 77               ld (hl),a
 5627+CFE2 03               inc bc
 5628+CFE3
 5629+CFE3 11 1B 00         ld de,BUFFER_WINDOW_WIDTH-1
 5630+CFE6 19               add hl,de ;increment HL pointer by wwidth
 5631+CFE7                  ;0,3
 5632+CFE7 0A               ld a,(bc)
 5633+CFE8 77               ld (hl),a
 5634+CFE9 03               inc bc
 5635+CFEA 23               inc hl
 5636+CFEB                  ;1,
 5637+CFEB 0A               ld a,(bc)
 5638+CFEC 77               ld (hl),a
 5639+CFED 03               inc bc
 5640+CFEE
 5641+CFEE 11 1B 00         ld de,BUFFER_WINDOW_WIDTH-1
 5642+CFF1 19               add hl,de ;increment HL pointer by wwidth
 5643+CFF2                  ;0,4
 5644+CFF2 0A               ld a,(bc)
 5645+CFF3 77               ld (hl),a
 5646+CFF4 03               inc bc
 5647+CFF5 23               inc hl
 5648+CFF6                  ;1,
 5649+CFF6 0A               ld a,(bc)
 5650+CFF7 77               ld (hl),a
 5651+CFF8 03               inc bc
 5652+CFF9
 5653+CFF9 11 1B 00         ld de,BUFFER_WINDOW_WIDTH-1
 5654+CFFC 19               add hl,de ;increment HL pointer by wwidth
 5655+CFFD                  ;0,5
 5656+CFFD 0A               ld a,(bc)
 5657+CFFE 77               ld (hl),a
 5658+CFFF 03               inc bc
 5659+D000 23               inc hl
 5660+D001                  ;1,
 5661+D001 0A               ld a,(bc)
 5662+D002 77               ld (hl),a
 5663+D003 03               inc bc
 5664+D004
 5665+D004 11 1B 00         ld de,BUFFER_WINDOW_WIDTH-1
 5666+D007 19               add hl,de ;increment HL pointer by wwidth
 5667+D008                  ;0,6
 5668+D008 0A               ld a,(bc)
 5669+D009 77               ld (hl),a
 5670+D00A 03               inc bc
 5671+D00B 23               inc hl
 5672+D00C                  ;1,
 5673+D00C 0A               ld a,(bc)
 5674+D00D 77               ld (hl),a
 5675+D00E 03               inc bc
 5676+D00F
 5677+D00F 11 1B 00         ld de,BUFFER_WINDOW_WIDTH-1
 5678+D012 19               add hl,de ;increment HL pointer by wwidth
 5679+D013                  ;0,7
 5680+D013 0A               ld a,(bc)
 5681+D014 77               ld (hl),a
 5682+D015 03               inc bc
 5683+D016 23               inc hl
 5684+D017                  ;1,
 5685+D017 0A               ld a,(bc)
 5686+D018 77               ld (hl),a
 5687+D019 03               inc bc
 5688+D01A
 5689+D01A 11 1B 00         ld de,BUFFER_WINDOW_WIDTH-1
 5690+D01D 19               add hl,de ;increment HL pointer by wwidth
 5691+D01E                  ;0,8
 5692+D01E 0A               ld a,(bc)
 5693+D01F 77               ld (hl),a
 5694+D020 03               inc bc
 5695+D021 23               inc hl
 5696+D022                  ;1,
 5697+D022 0A               ld a,(bc)
 5698+D023 77               ld (hl),a
 5699+D024 03               inc bc
 5700+D025
 5701+D025 11 1B 00         ld de,BUFFER_WINDOW_WIDTH-1
 5702+D028 19               add hl,de ;increment HL pointer by wwidth
 5703+D029                  ;0,9
 5704+D029 0A               ld a,(bc)
 5705+D02A 77               ld (hl),a
 5706+D02B 03               inc bc
 5707+D02C 23               inc hl
 5708+D02D                  ;1,
 5709+D02D 0A               ld a,(bc)
 5710+D02E 77               ld (hl),a
 5711+D02F 03               inc bc
 5712+D030
 5713+D030 11 1B 00         ld de,BUFFER_WINDOW_WIDTH-1
 5714+D033 19               add hl,de ;increment HL pointer by wwidth
 5715+D034
 5716+D034
 5717+D034
 5718+D034
 5719+D034                   ;0,40 ;;;;;;;;;;;;;;;;;;;;;;;;;;;;;;;;;;;;;;;;;;;;;;;;;;;
 5720+D034 0A               ld a,(bc)
 5721+D035 77               ld (hl),a
 5722+D036 03               inc bc
 5723+D037 23               inc hl
 5724+D038                  ;1,
 5725+D038 0A               ld a,(bc)
 5726+D039 77               ld (hl),a
 5727+D03A 03               inc bc
 5728+D03B
 5729+D03B 11 1B 00         ld de,BUFFER_WINDOW_WIDTH-1
 5730+D03E 19               add hl,de ;increment HL pointer by wwidth
 5731+D03F                  ;0,1
 5732+D03F 0A               ld a,(bc)
 5733+D040 77               ld (hl),a
 5734+D041 03               inc bc
 5735+D042 23               inc hl
 5736+D043                  ;1,
 5737+D043 0A               ld a,(bc)
 5738+D044 77               ld (hl),a
 5739+D045 03               inc bc
 5740+D046
 5741+D046 11 1B 00         ld de,BUFFER_WINDOW_WIDTH-1
 5742+D049 19               add hl,de ;increment HL pointer by wwidth
 5743+D04A                  ;0,2
 5744+D04A 0A               ld a,(bc)
 5745+D04B 77               ld (hl),a
 5746+D04C 03               inc bc
 5747+D04D 23               inc hl
 5748+D04E                  ;1,
 5749+D04E 0A               ld a,(bc)
 5750+D04F 77               ld (hl),a
 5751+D050 03               inc bc
 5752+D051
 5753+D051 11 1B 00         ld de,BUFFER_WINDOW_WIDTH-1
 5754+D054 19               add hl,de ;increment HL pointer by wwidth
 5755+D055                  ;0,3
 5756+D055 0A               ld a,(bc)
 5757+D056 77               ld (hl),a
 5758+D057 03               inc bc
 5759+D058 23               inc hl
 5760+D059                  ;1,
 5761+D059 0A               ld a,(bc)
 5762+D05A 77               ld (hl),a
 5763+D05B 03               inc bc
 5764+D05C
 5765+D05C 11 1B 00         ld de,BUFFER_WINDOW_WIDTH-1
 5766+D05F 19               add hl,de ;increment HL pointer by wwidth
 5767+D060                  ;0,4
 5768+D060 0A               ld a,(bc)
 5769+D061 77               ld (hl),a
 5770+D062 03               inc bc
 5771+D063 23               inc hl
 5772+D064                  ;1,
 5773+D064 0A               ld a,(bc)
 5774+D065 77               ld (hl),a
 5775+D066 03               inc bc
 5776+D067
 5777+D067 11 1B 00         ld de,BUFFER_WINDOW_WIDTH-1
 5778+D06A 19               add hl,de ;increment HL pointer by wwidth
 5779+D06B                  ;0,5
 5780+D06B 0A               ld a,(bc)
 5781+D06C 77               ld (hl),a
 5782+D06D 03               inc bc
 5783+D06E 23               inc hl
 5784+D06F                  ;1,
 5785+D06F 0A               ld a,(bc)
 5786+D070 77               ld (hl),a
 5787+D071 03               inc bc
 5788+D072
 5789+D072 11 1B 00         ld de,BUFFER_WINDOW_WIDTH-1
 5790+D075 19               add hl,de ;increment HL pointer by wwidth
 5791+D076                  ;0,6
 5792+D076 0A               ld a,(bc)
 5793+D077 77               ld (hl),a
 5794+D078 03               inc bc
 5795+D079 23               inc hl
 5796+D07A                  ;1,
 5797+D07A 0A               ld a,(bc)
 5798+D07B 77               ld (hl),a
 5799+D07C 03               inc bc
 5800+D07D
 5801+D07D 11 1B 00         ld de,BUFFER_WINDOW_WIDTH-1
 5802+D080 19               add hl,de ;increment HL pointer by wwidth
 5803+D081                  ;0,7
 5804+D081 0A               ld a,(bc)
 5805+D082 77               ld (hl),a
 5806+D083 03               inc bc
 5807+D084 23               inc hl
 5808+D085                  ;1,
 5809+D085 0A               ld a,(bc)
 5810+D086 77               ld (hl),a
 5811+D087 03               inc bc
 5812+D088
 5813+D088 11 1B 00         ld de,BUFFER_WINDOW_WIDTH-1
 5814+D08B 19               add hl,de ;increment HL pointer by wwidth
 5815+D08C                  ;0,8
 5816+D08C 0A               ld a,(bc)
 5817+D08D 77               ld (hl),a
 5818+D08E 03               inc bc
 5819+D08F 23               inc hl
 5820+D090                  ;1,
 5821+D090 0A               ld a,(bc)
 5822+D091 77               ld (hl),a
 5823+D092 03               inc bc
 5824+D093
 5825+D093 11 1B 00         ld de,BUFFER_WINDOW_WIDTH-1
 5826+D096 19               add hl,de ;increment HL pointer by wwidth
 5827+D097                  ;0,9
 5828+D097 0A               ld a,(bc)
 5829+D098 77               ld (hl),a
 5830+D099 03               inc bc
 5831+D09A 23               inc hl
 5832+D09B                  ;1,
 5833+D09B 0A               ld a,(bc)
 5834+D09C 77               ld (hl),a
 5835+D09D 03               inc bc
 5836+D09E
 5837+D09E 11 1B 00         ld de,BUFFER_WINDOW_WIDTH-1
 5838+D0A1 19               add hl,de ;increment HL pointer by wwidth
 5839+D0A2
 5840+D0A2
 5841+D0A2
 5842+D0A2
 5843+D0A2
 5844+D0A2
 5845+D0A2                   ;0,50 ;;;;;;;;;;;;;;;;;;;;;;;;;;;;;;;;;;;;;;;;;;;;;;;;;;;
 5846+D0A2 0A               ld a,(bc)
 5847+D0A3 77               ld (hl),a
 5848+D0A4 03               inc bc
 5849+D0A5 23               inc hl
 5850+D0A6                  ;1,
 5851+D0A6 0A               ld a,(bc)
 5852+D0A7 77               ld (hl),a
 5853+D0A8 03               inc bc
 5854+D0A9
 5855+D0A9 11 1B 00         ld de,BUFFER_WINDOW_WIDTH-1
 5856+D0AC 19               add hl,de ;increment HL pointer by wwidth
 5857+D0AD                  ;0,1
 5858+D0AD 0A               ld a,(bc)
 5859+D0AE 77               ld (hl),a
 5860+D0AF 03               inc bc
 5861+D0B0 23               inc hl
 5862+D0B1                  ;1,
 5863+D0B1 0A               ld a,(bc)
 5864+D0B2 77               ld (hl),a
 5865+D0B3 03               inc bc
 5866+D0B4
 5867+D0B4 11 1B 00         ld de,BUFFER_WINDOW_WIDTH-1
 5868+D0B7 19               add hl,de ;increment HL pointer by wwidth
 5869+D0B8                  ;0,2
 5870+D0B8 0A               ld a,(bc)
 5871+D0B9 77               ld (hl),a
 5872+D0BA 03               inc bc
 5873+D0BB 23               inc hl
 5874+D0BC                  ;1,
 5875+D0BC 0A               ld a,(bc)
 5876+D0BD 77               ld (hl),a
 5877+D0BE 03               inc bc
 5878+D0BF
 5879+D0BF 11 1B 00         ld de,BUFFER_WINDOW_WIDTH-1
 5880+D0C2 19               add hl,de ;increment HL pointer by wwidth
 5881+D0C3                  ;0,3
 5882+D0C3 0A               ld a,(bc)
 5883+D0C4 77               ld (hl),a
 5884+D0C5 03               inc bc
 5885+D0C6 23               inc hl
 5886+D0C7                  ;1,
 5887+D0C7 0A               ld a,(bc)
 5888+D0C8 77               ld (hl),a
 5889+D0C9 03               inc bc
 5890+D0CA
 5891+D0CA 11 1B 00         ld de,BUFFER_WINDOW_WIDTH-1
 5892+D0CD 19               add hl,de ;increment HL pointer by wwidth
 5893+D0CE                  ;0,4
 5894+D0CE 0A               ld a,(bc)
 5895+D0CF 77               ld (hl),a
 5896+D0D0 03               inc bc
 5897+D0D1 23               inc hl
 5898+D0D2                  ;1,
 5899+D0D2 0A               ld a,(bc)
 5900+D0D3 77               ld (hl),a
 5901+D0D4 03               inc bc
 5902+D0D5
 5903+D0D5 11 1B 00         ld de,BUFFER_WINDOW_WIDTH-1
 5904+D0D8 19               add hl,de ;increment HL pointer by wwidth
 5905+D0D9                  ;0,5
 5906+D0D9 0A               ld a,(bc)
 5907+D0DA 77               ld (hl),a
 5908+D0DB 03               inc bc
 5909+D0DC 23               inc hl
 5910+D0DD                  ;1,
 5911+D0DD 0A               ld a,(bc)
 5912+D0DE 77               ld (hl),a
 5913+D0DF 03               inc bc
 5914+D0E0
 5915+D0E0 11 1B 00         ld de,BUFFER_WINDOW_WIDTH-1
 5916+D0E3 19               add hl,de ;increment HL pointer by wwidth
 5917+D0E4                  ;0,6
 5918+D0E4 0A               ld a,(bc)
 5919+D0E5 77               ld (hl),a
 5920+D0E6 03               inc bc
 5921+D0E7 23               inc hl
 5922+D0E8                  ;1,
 5923+D0E8 0A               ld a,(bc)
 5924+D0E9 77               ld (hl),a
 5925+D0EA 03               inc bc
 5926+D0EB
 5927+D0EB 11 1B 00         ld de,BUFFER_WINDOW_WIDTH-1
 5928+D0EE 19               add hl,de ;increment HL pointer by wwidth
 5929+D0EF                  ;0,7
 5930+D0EF 0A               ld a,(bc)
 5931+D0F0 77               ld (hl),a
 5932+D0F1 03               inc bc
 5933+D0F2 23               inc hl
 5934+D0F3                  ;1,
 5935+D0F3 0A               ld a,(bc)
 5936+D0F4 77               ld (hl),a
 5937+D0F5 03               inc bc
 5938+D0F6
 5939+D0F6 11 1B 00         ld de,BUFFER_WINDOW_WIDTH-1
 5940+D0F9 19               add hl,de ;increment HL pointer by wwidth
 5941+D0FA                  ;0,8
 5942+D0FA 0A               ld a,(bc)
 5943+D0FB 77               ld (hl),a
 5944+D0FC 03               inc bc
 5945+D0FD 23               inc hl
 5946+D0FE                  ;1,
 5947+D0FE 0A               ld a,(bc)
 5948+D0FF 77               ld (hl),a
 5949+D100 03               inc bc
 5950+D101
 5951+D101 11 1B 00         ld de,BUFFER_WINDOW_WIDTH-1
 5952+D104 19               add hl,de ;increment HL pointer by wwidth
 5953+D105                  ;0,9
 5954+D105 0A               ld a,(bc)
 5955+D106 77               ld (hl),a
 5956+D107 03               inc bc
 5957+D108 23               inc hl
 5958+D109                  ;1,
 5959+D109 0A               ld a,(bc)
 5960+D10A 77               ld (hl),a
 5961+D10B 03               inc bc
 5962+D10C
 5963+D10C 11 1B 00         ld de,BUFFER_WINDOW_WIDTH-1
 5964+D10F 19               add hl,de ;increment HL pointer by wwidth
 5965+D110
 5966+D110
 5967+D110
 5968+D110
 5969+D110                   ;0,60 ;;;;;;;;;;;;;;;;;;;;;;;;;;;;;;;;;;;;;;;;;;;;;;;;;;;
 5970+D110 0A               ld a,(bc)
 5971+D111 77               ld (hl),a
 5972+D112 03               inc bc
 5973+D113 23               inc hl
 5974+D114                  ;1,
 5975+D114 0A               ld a,(bc)
 5976+D115 77               ld (hl),a
 5977+D116 03               inc bc
 5978+D117
 5979+D117 11 1B 00         ld de,BUFFER_WINDOW_WIDTH-1
 5980+D11A 19               add hl,de ;increment HL pointer by wwidth
 5981+D11B                  ;0,1
 5982+D11B 0A               ld a,(bc)
 5983+D11C 77               ld (hl),a
 5984+D11D 03               inc bc
 5985+D11E 23               inc hl
 5986+D11F                  ;1,
 5987+D11F 0A               ld a,(bc)
 5988+D120 77               ld (hl),a
 5989+D121 03               inc bc
 5990+D122
 5991+D122 11 1B 00         ld de,BUFFER_WINDOW_WIDTH-1
 5992+D125 19               add hl,de ;increment HL pointer by wwidth
 5993+D126                  ;0,2
 5994+D126 0A               ld a,(bc)
 5995+D127 77               ld (hl),a
 5996+D128 03               inc bc
 5997+D129 23               inc hl
 5998+D12A                  ;1,
 5999+D12A 0A               ld a,(bc)
 6000+D12B 77               ld (hl),a
 6001+D12C 03               inc bc
 6002+D12D
 6003+D12D 11 1B 00         ld de,BUFFER_WINDOW_WIDTH-1
 6004+D130 19               add hl,de ;increment HL pointer by wwidth
 6005+D131                  ;0,3
 6006+D131 0A               ld a,(bc)
 6007+D132 77               ld (hl),a
 6008+D133 03               inc bc
 6009+D134 23               inc hl
 6010+D135                  ;1,
 6011+D135 0A               ld a,(bc)
 6012+D136 77               ld (hl),a
 6013+D137 03               inc bc
 6014+D138
 6015+D138 11 1B 00         ld de,BUFFER_WINDOW_WIDTH-1
 6016+D13B 19               add hl,de ;increment HL pointer by wwidth
 6017+D13C                  ;0,4
 6018+D13C 0A               ld a,(bc)
 6019+D13D 77               ld (hl),a
 6020+D13E 03               inc bc
 6021+D13F 23               inc hl
 6022+D140                  ;1,
 6023+D140 0A               ld a,(bc)
 6024+D141 77               ld (hl),a
 6025+D142 03               inc bc
 6026+D143
 6027+D143 11 1B 00         ld de,BUFFER_WINDOW_WIDTH-1
 6028+D146 19               add hl,de ;increment HL pointer by wwidth
 6029+D147                  ;0,5
 6030+D147 0A               ld a,(bc)
 6031+D148 77               ld (hl),a
 6032+D149 03               inc bc
 6033+D14A 23               inc hl
 6034+D14B                  ;1,
 6035+D14B 0A               ld a,(bc)
 6036+D14C 77               ld (hl),a
 6037+D14D 03               inc bc
 6038+D14E
 6039+D14E 11 1B 00         ld de,BUFFER_WINDOW_WIDTH-1
 6040+D151 19               add hl,de ;increment HL pointer by wwidth
 6041+D152                  ;0,6
 6042+D152 0A               ld a,(bc)
 6043+D153 77               ld (hl),a
 6044+D154 03               inc bc
 6045+D155 23               inc hl
 6046+D156                  ;1,
 6047+D156 0A               ld a,(bc)
 6048+D157 77               ld (hl),a
 6049+D158 03               inc bc
 6050+D159
 6051+D159 11 1B 00         ld de,BUFFER_WINDOW_WIDTH-1
 6052+D15C 19               add hl,de ;increment HL pointer by wwidth
 6053+D15D                  ;0,7
 6054+D15D 0A               ld a,(bc)
 6055+D15E 77               ld (hl),a
 6056+D15F 03               inc bc
 6057+D160 23               inc hl
 6058+D161                  ;1,
 6059+D161 0A               ld a,(bc)
 6060+D162 77               ld (hl),a
 6061+D163 03               inc bc
 6062+D164
 6063+D164 11 1B 00         ld de,BUFFER_WINDOW_WIDTH-1
 6064+D167 19               add hl,de ;increment HL pointer by wwidth
 6065+D168                  ;0,8
 6066+D168 0A               ld a,(bc)
 6067+D169 77               ld (hl),a
 6068+D16A 03               inc bc
 6069+D16B 23               inc hl
 6070+D16C                  ;1,
 6071+D16C 0A               ld a,(bc)
 6072+D16D 77               ld (hl),a
 6073+D16E 03               inc bc
 6074+D16F
 6075+D16F 11 1B 00         ld de,BUFFER_WINDOW_WIDTH-1
 6076+D172 19               add hl,de ;increment HL pointer by wwidth
 6077+D173                  ;0,9
 6078+D173 0A               ld a,(bc)
 6079+D174 77               ld (hl),a
 6080+D175 03               inc bc
 6081+D176 23               inc hl
 6082+D177                  ;1,
 6083+D177 0A               ld a,(bc)
 6084+D178 77               ld (hl),a
 6085+D179 03               inc bc
 6086+D17A
 6087+D17A 11 1B 00         ld de,BUFFER_WINDOW_WIDTH-1
 6088+D17D 19               add hl,de ;increment HL pointer by wwidth
 6089+D17E
 6090+D17E
 6091+D17E
 6092+D17E
 6093+D17E
 6094+D17E
 6095+D17E                   ;0,70 ;;;;;;;;;;;;;;;;;;;;;;;;;;;;;;;;;;;;;;;;;;;;;;;;;;;
 6096+D17E 0A               ld a,(bc)
 6097+D17F 77               ld (hl),a
 6098+D180 03               inc bc
 6099+D181 23               inc hl
 6100+D182                  ;1,
 6101+D182 0A               ld a,(bc)
 6102+D183 77               ld (hl),a
 6103+D184 03               inc bc
 6104+D185
 6105+D185 11 1B 00         ld de,BUFFER_WINDOW_WIDTH-1
 6106+D188 19               add hl,de ;increment HL pointer by wwidth
 6107+D189                  ;0,1
 6108+D189 0A               ld a,(bc)
 6109+D18A 77               ld (hl),a
 6110+D18B 03               inc bc
 6111+D18C 23               inc hl
 6112+D18D                  ;1,
 6113+D18D 0A               ld a,(bc)
 6114+D18E 77               ld (hl),a
 6115+D18F 03               inc bc
 6116+D190
 6117+D190 11 1B 00         ld de,BUFFER_WINDOW_WIDTH-1
 6118+D193 19               add hl,de ;increment HL pointer by wwidth
 6119+D194                  ;0,2
 6120+D194 0A               ld a,(bc)
 6121+D195 77               ld (hl),a
 6122+D196 03               inc bc
 6123+D197 23               inc hl
 6124+D198                  ;1,
 6125+D198 0A               ld a,(bc)
 6126+D199 77               ld (hl),a
 6127+D19A 03               inc bc
 6128+D19B
 6129+D19B 11 1B 00         ld de,BUFFER_WINDOW_WIDTH-1
 6130+D19E 19               add hl,de ;increment HL pointer by wwidth
 6131+D19F                  ;0,3
 6132+D19F 0A               ld a,(bc)
 6133+D1A0 77               ld (hl),a
 6134+D1A1 03               inc bc
 6135+D1A2 23               inc hl
 6136+D1A3                  ;1,
 6137+D1A3 0A               ld a,(bc)
 6138+D1A4 77               ld (hl),a
 6139+D1A5 03               inc bc
 6140+D1A6
 6141+D1A6 11 1B 00         ld de,BUFFER_WINDOW_WIDTH-1
 6142+D1A9 19               add hl,de ;increment HL pointer by wwidth
 6143+D1AA                  ;0,4
 6144+D1AA 0A               ld a,(bc)
 6145+D1AB 77               ld (hl),a
 6146+D1AC 03               inc bc
 6147+D1AD 23               inc hl
 6148+D1AE                  ;1,
 6149+D1AE 0A               ld a,(bc)
 6150+D1AF 77               ld (hl),a
 6151+D1B0 03               inc bc
 6152+D1B1
 6153+D1B1 11 1B 00         ld de,BUFFER_WINDOW_WIDTH-1
 6154+D1B4 19               add hl,de ;increment HL pointer by wwidth
 6155+D1B5                  ;0,5
 6156+D1B5 0A               ld a,(bc)
 6157+D1B6 77               ld (hl),a
 6158+D1B7 03               inc bc
 6159+D1B8 23               inc hl
 6160+D1B9                  ;1,
 6161+D1B9 0A               ld a,(bc)
 6162+D1BA 77               ld (hl),a
 6163+D1BB 03               inc bc
 6164+D1BC
 6165+D1BC 11 1B 00         ld de,BUFFER_WINDOW_WIDTH-1
 6166+D1BF 19               add hl,de ;increment HL pointer by wwidth
 6167+D1C0                  ;0,6
 6168+D1C0 0A               ld a,(bc)
 6169+D1C1 77               ld (hl),a
 6170+D1C2 03               inc bc
 6171+D1C3 23               inc hl
 6172+D1C4                  ;1,
 6173+D1C4 0A               ld a,(bc)
 6174+D1C5 77               ld (hl),a
 6175+D1C6 03               inc bc
 6176+D1C7
 6177+D1C7 11 1B 00         ld de,BUFFER_WINDOW_WIDTH-1
 6178+D1CA 19               add hl,de ;increment HL pointer by wwidth
 6179+D1CB                  ;0,7
 6180+D1CB 0A               ld a,(bc)
 6181+D1CC 77               ld (hl),a
 6182+D1CD 03               inc bc
 6183+D1CE 23               inc hl
 6184+D1CF                  ;1,
 6185+D1CF 0A               ld a,(bc)
 6186+D1D0 77               ld (hl),a
 6187+D1D1 03               inc bc
 6188+D1D2
 6189+D1D2 11 1B 00         ld de,BUFFER_WINDOW_WIDTH-1
 6190+D1D5 19               add hl,de ;increment HL pointer by wwidth
 6191+D1D6                  ;0,8
 6192+D1D6 0A               ld a,(bc)
 6193+D1D7 77               ld (hl),a
 6194+D1D8 03               inc bc
 6195+D1D9 23               inc hl
 6196+D1DA                  ;1,
 6197+D1DA 0A               ld a,(bc)
 6198+D1DB 77               ld (hl),a
 6199+D1DC 03               inc bc
 6200+D1DD
 6201+D1DD 11 1B 00         ld de,BUFFER_WINDOW_WIDTH-1
 6202+D1E0 19               add hl,de ;increment HL pointer by wwidth
 6203+D1E1                  ;0,9
 6204+D1E1 0A               ld a,(bc)
 6205+D1E2 77               ld (hl),a
 6206+D1E3 03               inc bc
 6207+D1E4 23               inc hl
 6208+D1E5                  ;1,
 6209+D1E5 0A               ld a,(bc)
 6210+D1E6 77               ld (hl),a
 6211+D1E7 03               inc bc
 6212+D1E8
 6213+D1E8 11 1B 00         ld de,BUFFER_WINDOW_WIDTH-1
 6214+D1EB 19               add hl,de ;increment HL pointer by wwidth
 6215+D1EC
 6216+D1EC
 6217+D1EC
 6218+D1EC
 6219+D1EC
 6220+D1EC                   ;0,80 ;;;;;;;;;;;;;;;;;;;;;;;;;;;;;;;;;;;;;;;;;;;;;;;;;;;
 6221+D1EC 0A               ld a,(bc)
 6222+D1ED 77               ld (hl),a
 6223+D1EE 03               inc bc
 6224+D1EF 23               inc hl
 6225+D1F0                  ;1,
 6226+D1F0 0A               ld a,(bc)
 6227+D1F1 77               ld (hl),a
 6228+D1F2 03               inc bc
 6229+D1F3
 6230+D1F3 11 1B 00         ld de,BUFFER_WINDOW_WIDTH-1
 6231+D1F6 19               add hl,de ;increment HL pointer by wwidth
 6232+D1F7                  ;0,1
 6233+D1F7 0A               ld a,(bc)
 6234+D1F8 77               ld (hl),a
 6235+D1F9 03               inc bc
 6236+D1FA 23               inc hl
 6237+D1FB                  ;1,
 6238+D1FB 0A               ld a,(bc)
 6239+D1FC 77               ld (hl),a
 6240+D1FD 03               inc bc
 6241+D1FE
 6242+D1FE 11 1B 00         ld de,BUFFER_WINDOW_WIDTH-1
 6243+D201 19               add hl,de ;increment HL pointer by wwidth
 6244+D202                  ;0,2
 6245+D202 0A               ld a,(bc)
 6246+D203 77               ld (hl),a
 6247+D204 03               inc bc
 6248+D205 23               inc hl
 6249+D206                  ;1,
 6250+D206 0A               ld a,(bc)
 6251+D207 77               ld (hl),a
 6252+D208 03               inc bc
 6253+D209
 6254+D209 11 1B 00         ld de,BUFFER_WINDOW_WIDTH-1
 6255+D20C 19               add hl,de ;increment HL pointer by wwidth
 6256+D20D                  ;0,3
 6257+D20D 0A               ld a,(bc)
 6258+D20E 77               ld (hl),a
 6259+D20F 03               inc bc
 6260+D210 23               inc hl
 6261+D211                  ;1,
 6262+D211 0A               ld a,(bc)
 6263+D212 77               ld (hl),a
 6264+D213 03               inc bc
 6265+D214
 6266+D214 11 1B 00         ld de,BUFFER_WINDOW_WIDTH-1
 6267+D217 19               add hl,de ;increment HL pointer by wwidth
 6268+D218                  ;0,4
 6269+D218 0A               ld a,(bc)
 6270+D219 77               ld (hl),a
 6271+D21A 03               inc bc
 6272+D21B 23               inc hl
 6273+D21C                  ;1,
 6274+D21C 0A               ld a,(bc)
 6275+D21D 77               ld (hl),a
 6276+D21E 03               inc bc
 6277+D21F
 6278+D21F 11 1B 00         ld de,BUFFER_WINDOW_WIDTH-1
 6279+D222 19               add hl,de ;increment HL pointer by wwidth
 6280+D223                  ;0,5
 6281+D223 0A               ld a,(bc)
 6282+D224 77               ld (hl),a
 6283+D225 03               inc bc
 6284+D226 23               inc hl
 6285+D227                  ;1,
 6286+D227 0A               ld a,(bc)
 6287+D228 77               ld (hl),a
 6288+D229 03               inc bc
 6289+D22A
 6290+D22A 11 1B 00         ld de,BUFFER_WINDOW_WIDTH-1
 6291+D22D 19               add hl,de ;increment HL pointer by wwidth
 6292+D22E                  ;0,6
 6293+D22E 0A               ld a,(bc)
 6294+D22F 77               ld (hl),a
 6295+D230 03               inc bc
 6296+D231 23               inc hl
 6297+D232                  ;1,
 6298+D232 0A               ld a,(bc)
 6299+D233 77               ld (hl),a
 6300+D234 03               inc bc
 6301+D235
 6302+D235 11 1B 00         ld de,BUFFER_WINDOW_WIDTH-1
 6303+D238 19               add hl,de ;increment HL pointer by wwidth
 6304+D239                  ;0,7
 6305+D239 0A               ld a,(bc)
 6306+D23A 77               ld (hl),a
 6307+D23B 03               inc bc
 6308+D23C 23               inc hl
 6309+D23D                  ;1,
 6310+D23D 0A               ld a,(bc)
 6311+D23E 77               ld (hl),a
 6312+D23F 03               inc bc
 6313+D240
 6314+D240 11 1B 00         ld de,BUFFER_WINDOW_WIDTH-1
 6315+D243 19               add hl,de ;increment HL pointer by wwidth
 6316+D244                  ;0,8
 6317+D244 0A               ld a,(bc)
 6318+D245 77               ld (hl),a
 6319+D246 03               inc bc
 6320+D247 23               inc hl
 6321+D248                  ;1,
 6322+D248 0A               ld a,(bc)
 6323+D249 77               ld (hl),a
 6324+D24A 03               inc bc
 6325+D24B
 6326+D24B 11 1B 00         ld de,BUFFER_WINDOW_WIDTH-1
 6327+D24E 19               add hl,de ;increment HL pointer by wwidth
 6328+D24F                  ;0,9
 6329+D24F 0A               ld a,(bc)
 6330+D250 77               ld (hl),a
 6331+D251 03               inc bc
 6332+D252 23               inc hl
 6333+D253                  ;1,
 6334+D253 0A               ld a,(bc)
 6335+D254 77               ld (hl),a
 6336+D255 03               inc bc
 6337+D256
 6338+D256 11 1B 00         ld de,BUFFER_WINDOW_WIDTH-1
 6339+D259 19               add hl,de ;increment HL pointer by wwidth
 6340+D25A
 6341+D25A
 6342+D25A
 6343+D25A
 6344+D25A
 6345+D25A                   ;0,90 ;;;;;;;;;;;;;;;;;;;;;;;;;;;;;;;;;;;;;;;;;;;;;;;;;;;
 6346+D25A 0A               ld a,(bc)
 6347+D25B 77               ld (hl),a
 6348+D25C 03               inc bc
 6349+D25D 23               inc hl
 6350+D25E                  ;1,
 6351+D25E 0A               ld a,(bc)
 6352+D25F 77               ld (hl),a
 6353+D260 03               inc bc
 6354+D261
 6355+D261 11 1B 00         ld de,BUFFER_WINDOW_WIDTH-1
 6356+D264 19               add hl,de ;increment HL pointer by wwidth
 6357+D265                  ;0,1
 6358+D265 0A               ld a,(bc)
 6359+D266 77               ld (hl),a
 6360+D267 03               inc bc
 6361+D268 23               inc hl
 6362+D269                  ;1,
 6363+D269 0A               ld a,(bc)
 6364+D26A 77               ld (hl),a
 6365+D26B 03               inc bc
 6366+D26C
 6367+D26C 11 1B 00         ld de,BUFFER_WINDOW_WIDTH-1
 6368+D26F 19               add hl,de ;increment HL pointer by wwidth
 6369+D270                  ;0,2
 6370+D270 0A               ld a,(bc)
 6371+D271 77               ld (hl),a
 6372+D272 03               inc bc
 6373+D273 23               inc hl
 6374+D274                  ;1,
 6375+D274 0A               ld a,(bc)
 6376+D275 77               ld (hl),a
 6377+D276 03               inc bc
 6378+D277
 6379+D277 11 1B 00         ld de,BUFFER_WINDOW_WIDTH-1
 6380+D27A 19               add hl,de ;increment HL pointer by wwidth
 6381+D27B                  ;0,3
 6382+D27B 0A               ld a,(bc)
 6383+D27C 77               ld (hl),a
 6384+D27D 03               inc bc
 6385+D27E 23               inc hl
 6386+D27F                  ;1,
 6387+D27F 0A               ld a,(bc)
 6388+D280 77               ld (hl),a
 6389+D281 03               inc bc
 6390+D282
 6391+D282 11 1B 00         ld de,BUFFER_WINDOW_WIDTH-1
 6392+D285 19               add hl,de ;increment HL pointer by wwidth
 6393+D286                  ;0,4
 6394+D286 0A               ld a,(bc)
 6395+D287 77               ld (hl),a
 6396+D288 03               inc bc
 6397+D289 23               inc hl
 6398+D28A                  ;1,
 6399+D28A 0A               ld a,(bc)
 6400+D28B 77               ld (hl),a
 6401+D28C 03               inc bc
 6402+D28D
 6403+D28D 11 1B 00         ld de,BUFFER_WINDOW_WIDTH-1
 6404+D290 19               add hl,de ;increment HL pointer by wwidth
 6405+D291                  ;0,5
 6406+D291 0A               ld a,(bc)
 6407+D292 77               ld (hl),a
 6408+D293 03               inc bc
 6409+D294 23               inc hl
 6410+D295                  ;1,
 6411+D295 0A               ld a,(bc)
 6412+D296 77               ld (hl),a
 6413+D297 03               inc bc
 6414+D298
 6415+D298 11 1B 00         ld de,BUFFER_WINDOW_WIDTH-1
 6416+D29B 19               add hl,de ;increment HL pointer by wwidth
 6417+D29C                  ;0,6
 6418+D29C 0A               ld a,(bc)
 6419+D29D 77               ld (hl),a
 6420+D29E 03               inc bc
 6421+D29F 23               inc hl
 6422+D2A0                  ;1,
 6423+D2A0 0A               ld a,(bc)
 6424+D2A1 77               ld (hl),a
 6425+D2A2 03               inc bc
 6426+D2A3
 6427+D2A3 11 1B 00         ld de,BUFFER_WINDOW_WIDTH-1
 6428+D2A6 19               add hl,de ;increment HL pointer by wwidth
 6429+D2A7                  ;0,7
 6430+D2A7 0A               ld a,(bc)
 6431+D2A8 77               ld (hl),a
 6432+D2A9 03               inc bc
 6433+D2AA 23               inc hl
 6434+D2AB                  ;1,
 6435+D2AB 0A               ld a,(bc)
 6436+D2AC 77               ld (hl),a
 6437+D2AD 03               inc bc
 6438+D2AE
 6439+D2AE 11 1B 00         ld de,BUFFER_WINDOW_WIDTH-1
 6440+D2B1 19               add hl,de ;increment HL pointer by wwidth
 6441+D2B2                  ;0,8
 6442+D2B2 0A               ld a,(bc)
 6443+D2B3 77               ld (hl),a
 6444+D2B4 03               inc bc
 6445+D2B5 23               inc hl
 6446+D2B6                  ;1,
 6447+D2B6 0A               ld a,(bc)
 6448+D2B7 77               ld (hl),a
 6449+D2B8 03               inc bc
 6450+D2B9
 6451+D2B9 11 1B 00         ld de,BUFFER_WINDOW_WIDTH-1
 6452+D2BC 19               add hl,de ;increment HL pointer by wwidth
 6453+D2BD                  ;0,9
 6454+D2BD 0A               ld a,(bc)
 6455+D2BE 77               ld (hl),a
 6456+D2BF 03               inc bc
 6457+D2C0 23               inc hl
 6458+D2C1                  ;1,
 6459+D2C1 0A               ld a,(bc)
 6460+D2C2 77               ld (hl),a
 6461+D2C3 03               inc bc
 6462+D2C4
 6463+D2C4 11 1B 00         ld de,BUFFER_WINDOW_WIDTH-1
 6464+D2C7 19               add hl,de ;increment HL pointer by wwidth
 6465+D2C8
 6466+D2C8
 6467+D2C8
 6468+D2C8
 6469+D2C8
 6470+D2C8
 6471+D2C8                   ;0,100 ;;;;;;;;;;;;;;;;;;;;;;;;;;;;;;;;;;;;;;;;;;;;;;;;;;;
 6472+D2C8 0A               ld a,(bc)
 6473+D2C9 77               ld (hl),a
 6474+D2CA 03               inc bc
 6475+D2CB 23               inc hl
 6476+D2CC                  ;1,
 6477+D2CC 0A               ld a,(bc)
 6478+D2CD 77               ld (hl),a
 6479+D2CE 03               inc bc
 6480+D2CF
 6481+D2CF 11 1B 00         ld de,BUFFER_WINDOW_WIDTH-1
 6482+D2D2 19               add hl,de ;increment HL pointer by wwidth
 6483+D2D3                  ;0,1
 6484+D2D3 0A               ld a,(bc)
 6485+D2D4 77               ld (hl),a
 6486+D2D5 03               inc bc
 6487+D2D6 23               inc hl
 6488+D2D7                  ;1,
 6489+D2D7 0A               ld a,(bc)
 6490+D2D8 77               ld (hl),a
 6491+D2D9 03               inc bc
 6492+D2DA
 6493+D2DA 11 1B 00         ld de,BUFFER_WINDOW_WIDTH-1
 6494+D2DD 19               add hl,de ;increment HL pointer by wwidth
 6495+D2DE                  ;0,2
 6496+D2DE 0A               ld a,(bc)
 6497+D2DF 77               ld (hl),a
 6498+D2E0 03               inc bc
 6499+D2E1 23               inc hl
 6500+D2E2                  ;1,
 6501+D2E2 0A               ld a,(bc)
 6502+D2E3 77               ld (hl),a
 6503+D2E4 03               inc bc
 6504+D2E5
 6505+D2E5 11 1B 00         ld de,BUFFER_WINDOW_WIDTH-1
 6506+D2E8 19               add hl,de ;increment HL pointer by wwidth
 6507+D2E9                  ;0,3
 6508+D2E9 0A               ld a,(bc)
 6509+D2EA 77               ld (hl),a
 6510+D2EB 03               inc bc
 6511+D2EC 23               inc hl
 6512+D2ED                  ;1,
 6513+D2ED 0A               ld a,(bc)
 6514+D2EE 77               ld (hl),a
 6515+D2EF 03               inc bc
 6516+D2F0
 6517+D2F0 11 1B 00         ld de,BUFFER_WINDOW_WIDTH-1
 6518+D2F3 19               add hl,de ;increment HL pointer by wwidth
 6519+D2F4                  ;0,4
 6520+D2F4 0A               ld a,(bc)
 6521+D2F5 77               ld (hl),a
 6522+D2F6 03               inc bc
 6523+D2F7 23               inc hl
 6524+D2F8                  ;1,
 6525+D2F8 0A               ld a,(bc)
 6526+D2F9 77               ld (hl),a
 6527+D2FA 03               inc bc
 6528+D2FB
 6529+D2FB 11 1B 00         ld de,BUFFER_WINDOW_WIDTH-1
 6530+D2FE 19               add hl,de ;increment HL pointer by wwidth
 6531+D2FF                  ;0,5
 6532+D2FF 0A               ld a,(bc)
 6533+D300 77               ld (hl),a
 6534+D301 03               inc bc
 6535+D302 23               inc hl
 6536+D303                  ;1,
 6537+D303 0A               ld a,(bc)
 6538+D304 77               ld (hl),a
 6539+D305 03               inc bc
 6540+D306
 6541+D306 11 1B 00         ld de,BUFFER_WINDOW_WIDTH-1
 6542+D309 19               add hl,de ;increment HL pointer by wwidth
 6543+D30A                  ;0,6
 6544+D30A 0A               ld a,(bc)
 6545+D30B 77               ld (hl),a
 6546+D30C 03               inc bc
 6547+D30D 23               inc hl
 6548+D30E                  ;1,
 6549+D30E 0A               ld a,(bc)
 6550+D30F 77               ld (hl),a
 6551+D310 03               inc bc
 6552+D311
 6553+D311 11 1B 00         ld de,BUFFER_WINDOW_WIDTH-1
 6554+D314 19               add hl,de ;increment HL pointer by wwidth
 6555+D315                  ;0,7
 6556+D315 0A               ld a,(bc)
 6557+D316 77               ld (hl),a
 6558+D317 03               inc bc
 6559+D318 23               inc hl
 6560+D319                  ;1,
 6561+D319 0A               ld a,(bc)
 6562+D31A 77               ld (hl),a
 6563+D31B 03               inc bc
 6564+D31C
 6565+D31C 11 1B 00         ld de,BUFFER_WINDOW_WIDTH-1
 6566+D31F 19               add hl,de ;increment HL pointer by wwidth
 6567+D320                  ;0,8
 6568+D320 0A               ld a,(bc)
 6569+D321 77               ld (hl),a
 6570+D322 03               inc bc
 6571+D323 23               inc hl
 6572+D324                  ;1,
 6573+D324 0A               ld a,(bc)
 6574+D325 77               ld (hl),a
 6575+D326 03               inc bc
 6576+D327
 6577+D327 11 1B 00         ld de,BUFFER_WINDOW_WIDTH-1
 6578+D32A 19               add hl,de ;increment HL pointer by wwidth
 6579+D32B                  ;0,9
 6580+D32B 0A               ld a,(bc)
 6581+D32C 77               ld (hl),a
 6582+D32D 03               inc bc
 6583+D32E 23               inc hl
 6584+D32F                  ;1,
 6585+D32F 0A               ld a,(bc)
 6586+D330 77               ld (hl),a
 6587+D331 03               inc bc
 6588+D332
 6589+D332 11 1B 00         ld de,BUFFER_WINDOW_WIDTH-1
 6590+D335 19               add hl,de ;increment HL pointer by wwidth
 6591+D336
 6592+D336
 6593+D336
 6594+D336
 6595+D336
 6596+D336
 6597+D336
 6598+D336                   ;0,110 ;;;;;;;;;;;;;;;;;;;;;;;;;;;;;;;;;;;;;;;;;;;;;;;;;;;
 6599+D336 0A               ld a,(bc)
 6600+D337 77               ld (hl),a
 6601+D338 03               inc bc
 6602+D339 23               inc hl
 6603+D33A                  ;1,
 6604+D33A 0A               ld a,(bc)
 6605+D33B 77               ld (hl),a
 6606+D33C 03               inc bc
 6607+D33D
 6608+D33D 11 1B 00         ld de,BUFFER_WINDOW_WIDTH-1
 6609+D340 19               add hl,de ;increment HL pointer by wwidth
 6610+D341                  ;0,1
 6611+D341 0A               ld a,(bc)
 6612+D342 77               ld (hl),a
 6613+D343 03               inc bc
 6614+D344 23               inc hl
 6615+D345                  ;1,
 6616+D345 0A               ld a,(bc)
 6617+D346 77               ld (hl),a
 6618+D347 03               inc bc
 6619+D348
 6620+D348 11 1B 00         ld de,BUFFER_WINDOW_WIDTH-1
 6621+D34B 19               add hl,de ;increment HL pointer by wwidth
 6622+D34C                  ;0,2
 6623+D34C 0A               ld a,(bc)
 6624+D34D 77               ld (hl),a
 6625+D34E 03               inc bc
 6626+D34F 23               inc hl
 6627+D350                  ;1,
 6628+D350 0A               ld a,(bc)
 6629+D351 77               ld (hl),a
 6630+D352 03               inc bc
 6631+D353
 6632+D353 11 1B 00         ld de,BUFFER_WINDOW_WIDTH-1
 6633+D356 19               add hl,de ;increment HL pointer by wwidth
 6634+D357                  ;0,3
 6635+D357 0A               ld a,(bc)
 6636+D358 77               ld (hl),a
 6637+D359 03               inc bc
 6638+D35A 23               inc hl
 6639+D35B                  ;1,
 6640+D35B 0A               ld a,(bc)
 6641+D35C 77               ld (hl),a
 6642+D35D 03               inc bc
 6643+D35E
 6644+D35E 11 1B 00         ld de,BUFFER_WINDOW_WIDTH-1
 6645+D361 19               add hl,de ;increment HL pointer by wwidth
 6646+D362                  ;0,4
 6647+D362 0A               ld a,(bc)
 6648+D363 77               ld (hl),a
 6649+D364 03               inc bc
 6650+D365 23               inc hl
 6651+D366                  ;1,
 6652+D366 0A               ld a,(bc)
 6653+D367 77               ld (hl),a
 6654+D368 03               inc bc
 6655+D369
 6656+D369 11 1B 00         ld de,BUFFER_WINDOW_WIDTH-1
 6657+D36C 19               add hl,de ;increment HL pointer by wwidth
 6658+D36D                  ;0,5
 6659+D36D 0A               ld a,(bc)
 6660+D36E 77               ld (hl),a
 6661+D36F 03               inc bc
 6662+D370 23               inc hl
 6663+D371                  ;1,
 6664+D371 0A               ld a,(bc)
 6665+D372 77               ld (hl),a
 6666+D373 03               inc bc
 6667+D374
 6668+D374 11 1B 00         ld de,BUFFER_WINDOW_WIDTH-1
 6669+D377 19               add hl,de ;increment HL pointer by wwidth
 6670+D378                  ;0,6
 6671+D378 0A               ld a,(bc)
 6672+D379 77               ld (hl),a
 6673+D37A 03               inc bc
 6674+D37B 23               inc hl
 6675+D37C                  ;1,
 6676+D37C 0A               ld a,(bc)
 6677+D37D 77               ld (hl),a
 6678+D37E 03               inc bc
 6679+D37F
 6680+D37F 11 1B 00         ld de,BUFFER_WINDOW_WIDTH-1
 6681+D382 19               add hl,de ;increment HL pointer by wwidth
 6682+D383                  ;0,7
 6683+D383 0A               ld a,(bc)
 6684+D384 77               ld (hl),a
 6685+D385 03               inc bc
 6686+D386 23               inc hl
 6687+D387                  ;1,
 6688+D387 0A               ld a,(bc)
 6689+D388 77               ld (hl),a
 6690+D389 03               inc bc
 6691+D38A
 6692+D38A 11 1B 00         ld de,BUFFER_WINDOW_WIDTH-1
 6693+D38D 19               add hl,de ;increment HL pointer by wwidth
 6694+D38E                  ;0,8
 6695+D38E 0A               ld a,(bc)
 6696+D38F 77               ld (hl),a
 6697+D390 03               inc bc
 6698+D391 23               inc hl
 6699+D392                  ;1,
 6700+D392 0A               ld a,(bc)
 6701+D393 77               ld (hl),a
 6702+D394 03               inc bc
 6703+D395
 6704+D395 11 1B 00         ld de,BUFFER_WINDOW_WIDTH-1
 6705+D398 19               add hl,de ;increment HL pointer by wwidth
 6706+D399                  ;0,9
 6707+D399 0A               ld a,(bc)
 6708+D39A 77               ld (hl),a
 6709+D39B 03               inc bc
 6710+D39C 23               inc hl
 6711+D39D                  ;1,
 6712+D39D 0A               ld a,(bc)
 6713+D39E 77               ld (hl),a
 6714+D39F 03               inc bc
 6715+D3A0
 6716+D3A0 11 1B 00         ld de,BUFFER_WINDOW_WIDTH-1
 6717+D3A3 19               add hl,de ;increment HL pointer by wwidth
 6718+D3A4
 6719+D3A4
 6720+D3A4
 6721+D3A4
 6722+D3A4
 6723+D3A4
 6724+D3A4
 6725+D3A4
 6726+D3A4                   ;0,120 ;;;;;;;;;;;;;;;;;;;;;;;;;;;;;;;;;;;;;;;;;;;;;;;;;;;
 6727+D3A4 0A               ld a,(bc)
 6728+D3A5 77               ld (hl),a
 6729+D3A6 03               inc bc
 6730+D3A7 23               inc hl
 6731+D3A8                  ;1,
 6732+D3A8 0A               ld a,(bc)
 6733+D3A9 77               ld (hl),a
 6734+D3AA 03               inc bc
 6735+D3AB
 6736+D3AB 11 1B 00         ld de,BUFFER_WINDOW_WIDTH-1
 6737+D3AE 19               add hl,de ;increment HL pointer by wwidth
 6738+D3AF                  ;0,1
 6739+D3AF 0A               ld a,(bc)
 6740+D3B0 77               ld (hl),a
 6741+D3B1 03               inc bc
 6742+D3B2 23               inc hl
 6743+D3B3                  ;1,
 6744+D3B3 0A               ld a,(bc)
 6745+D3B4 77               ld (hl),a
 6746+D3B5 03               inc bc
 6747+D3B6
 6748+D3B6 11 1B 00         ld de,BUFFER_WINDOW_WIDTH-1
 6749+D3B9 19               add hl,de ;increment HL pointer by wwidth
 6750+D3BA                  ;0,2
 6751+D3BA 0A               ld a,(bc)
 6752+D3BB 77               ld (hl),a
 6753+D3BC 03               inc bc
 6754+D3BD 23               inc hl
 6755+D3BE                  ;1,
 6756+D3BE 0A               ld a,(bc)
 6757+D3BF 77               ld (hl),a
 6758+D3C0 03               inc bc
 6759+D3C1
 6760+D3C1 11 1B 00         ld de,BUFFER_WINDOW_WIDTH-1
 6761+D3C4 19               add hl,de ;increment HL pointer by wwidth
 6762+D3C5                  ;0,3
 6763+D3C5 0A               ld a,(bc)
 6764+D3C6 77               ld (hl),a
 6765+D3C7 03               inc bc
 6766+D3C8 23               inc hl
 6767+D3C9                  ;1,
 6768+D3C9 0A               ld a,(bc)
 6769+D3CA 77               ld (hl),a
 6770+D3CB 03               inc bc
 6771+D3CC
 6772+D3CC 11 1B 00         ld de,BUFFER_WINDOW_WIDTH-1
 6773+D3CF 19               add hl,de ;increment HL pointer by wwidth
 6774+D3D0                  ;0,4
 6775+D3D0 0A               ld a,(bc)
 6776+D3D1 77               ld (hl),a
 6777+D3D2 03               inc bc
 6778+D3D3 23               inc hl
 6779+D3D4                  ;1,
 6780+D3D4 0A               ld a,(bc)
 6781+D3D5 77               ld (hl),a
 6782+D3D6 03               inc bc
 6783+D3D7
 6784+D3D7 11 1B 00         ld de,BUFFER_WINDOW_WIDTH-1
 6785+D3DA 19               add hl,de ;increment HL pointer by wwidth
 6786+D3DB                  ;0,5
 6787+D3DB 0A               ld a,(bc)
 6788+D3DC 77               ld (hl),a
 6789+D3DD 03               inc bc
 6790+D3DE 23               inc hl
 6791+D3DF                  ;1,
 6792+D3DF 0A               ld a,(bc)
 6793+D3E0 77               ld (hl),a
 6794+D3E1 03               inc bc
 6795+D3E2
 6796+D3E2 11 1B 00         ld de,BUFFER_WINDOW_WIDTH-1
 6797+D3E5 19               add hl,de ;increment HL pointer by wwidth
 6798+D3E6                  ;0,6
 6799+D3E6 0A               ld a,(bc)
 6800+D3E7 77               ld (hl),a
 6801+D3E8 03               inc bc
 6802+D3E9 23               inc hl
 6803+D3EA                  ;1,
 6804+D3EA 0A               ld a,(bc)
 6805+D3EB 77               ld (hl),a
 6806+D3EC 03               inc bc
 6807+D3ED
 6808+D3ED 11 1B 00         ld de,BUFFER_WINDOW_WIDTH-1
 6809+D3F0 19               add hl,de ;increment HL pointer by wwidth
 6810+D3F1                  ;0,7
 6811+D3F1 0A               ld a,(bc)
 6812+D3F2 77               ld (hl),a
 6813+D3F3 03               inc bc
 6814+D3F4 23               inc hl
 6815+D3F5                  ;1,
 6816+D3F5 0A               ld a,(bc)
 6817+D3F6 77               ld (hl),a
 6818+D3F7 C9               ret
 6819+D3F8              ;
 6820+D3F8
 6821+D3F8
 6822+D3F8
 6823+D3F8
 6824+D3F8              ; drawdoorframe:
 6825+D3F8              ;     ld hl,0
 6826+D3F8              ;     ld a,e
 6827+D3F8              ;     ld l,a
 6828+D3F8              ;     add hl,hl ;HL= y*2
 6829+D3F8              ;     add hl,hl ;HL= y*4
 6830+D3F8              ;     add hl,hl ;HL= y*8
 6831+D3F8              ;     push bc
 6832+D3F8              ;     push hl
 6833+D3F8              ;     pop bc ;BC=y*8
 6834+D3F8              ;     add hl,hl
 6835+D3F8              ;     add hl,bc ;HL=y*24
 6836+D3F8              ;     pop bc
 6837+D3F8              ;     ld e,d
 6838+D3F8              ;     ld d,0
 6839+D3F8              ;     add hl,de ;HL+=x
 6840+D3F8              ;     ld de,GAME_WINDOW_START
 6841+D3F8              ;     add hl,de ;HL+=memstart
 6842+D3F8              ;     ;start drawing bytes...
 6843+D3F8
 6844+D3F8              ;     ;0,0
 6845+D3F8              ;     ld a,(bc)
 6846+D3F8              ;     ld (hl),a
 6847+D3F8              ;     inc bc
 6848+D3F8              ;     inc hl
 6849+D3F8              ;     ;1,
 6850+D3F8              ;     ld a,(bc)
 6851+D3F8              ;     ld (hl),a
 6852+D3F8              ;     inc bc
 6853+D3F8              ;     inc hl
 6854+D3F8              ;     ;2,
 6855+D3F8              ;     ld a,(bc)
 6856+D3F8              ;     ld (hl),a
 6857+D3F8              ;     inc bc
 6858+D3F8              ;     inc hl
 6859+D3F8              ;     ;3,
 6860+D3F8              ;     ld a,(bc)
 6861+D3F8              ;     ld (hl),a
 6862+D3F8              ;     inc bc
 6863+D3F8              ;     ld de,BUFFER_WINDOW_WIDTH-3
 6864+D3F8              ;     add hl,de ;increment HL pointer by wwidth
 6865+D3F8              ;     ;0,1
 6866+D3F8              ;     ld a,(bc)
 6867+D3F8              ;     ld (hl),a
 6868+D3F8              ;     inc bc
 6869+D3F8              ;     inc hl
 6870+D3F8              ;     ;1,
 6871+D3F8              ;     ld a,(bc)
 6872+D3F8              ;     ld (hl),a
 6873+D3F8              ;     inc bc
 6874+D3F8              ;     inc hl
 6875+D3F8              ;     ;2,
 6876+D3F8              ;     ld a,(bc)
 6877+D3F8              ;     ld (hl),a
 6878+D3F8              ;     inc bc
 6879+D3F8              ;     inc hl
 6880+D3F8              ;     ;3,
 6881+D3F8              ;     ld a,(bc)
 6882+D3F8              ;     ld (hl),a
 6883+D3F8              ;     inc bc
 6884+D3F8              ;     ld de,BUFFER_WINDOW_WIDTH-3
 6885+D3F8              ;     add hl,de ;increment HL pointer by wwidth
 6886+D3F8              ;     ;0,2
 6887+D3F8              ;     ld a,(bc)
 6888+D3F8              ;     ld (hl),a
 6889+D3F8              ;     inc bc
 6890+D3F8              ;     inc hl
 6891+D3F8              ;     ;1,
 6892+D3F8              ;     ld a,(bc)
 6893+D3F8              ;     ld (hl),a
 6894+D3F8              ;     inc bc
 6895+D3F8              ;     inc hl
 6896+D3F8              ;     ;2,
 6897+D3F8              ;     ld a,(bc)
 6898+D3F8              ;     ld (hl),a
 6899+D3F8              ;     inc bc
 6900+D3F8              ;     inc hl
 6901+D3F8              ;     ;3,
 6902+D3F8              ;     ld a,(bc)
 6903+D3F8              ;     ld (hl),a
 6904+D3F8              ;     inc bc
 6905+D3F8              ;     ld de,BUFFER_WINDOW_WIDTH-3
 6906+D3F8              ;     add hl,de ;increment HL pointer by wwidth
 6907+D3F8              ;     ;0,3
 6908+D3F8              ;     ld a,(bc)
 6909+D3F8              ;     ld (hl),a
 6910+D3F8              ;     inc bc
 6911+D3F8              ;     inc hl
 6912+D3F8              ;     ;1,
 6913+D3F8              ;     ld a,(bc)
 6914+D3F8              ;     ld (hl),a
 6915+D3F8              ;     inc bc
 6916+D3F8              ;     inc hl
 6917+D3F8              ;     ;2,
 6918+D3F8              ;     ld a,(bc)
 6919+D3F8              ;     ld (hl),a
 6920+D3F8              ;     inc bc
 6921+D3F8              ;     inc hl
 6922+D3F8              ;     ;3,
 6923+D3F8              ;     ld a,(bc)
 6924+D3F8              ;     ld (hl),a
 6925+D3F8              ;     inc bc
 6926+D3F8              ;     ld de,BUFFER_WINDOW_WIDTH-3
 6927+D3F8              ;     add hl,de ;increment HL pointer by wwidth
 6928+D3F8              ;     ;0,4
 6929+D3F8              ;     ld a,(bc)
 6930+D3F8              ;     ld (hl),a
 6931+D3F8              ;     inc bc
 6932+D3F8              ;     inc hl
 6933+D3F8              ;     ;1,
 6934+D3F8              ;     ld a,(bc)
 6935+D3F8              ;     ld (hl),a
 6936+D3F8              ;     inc bc
 6937+D3F8              ;     inc hl
 6938+D3F8              ;     ;2,
 6939+D3F8              ;     ld a,(bc)
 6940+D3F8              ;     ld (hl),a
 6941+D3F8              ;     inc bc
 6942+D3F8              ;     inc hl
 6943+D3F8              ;     ;3,
 6944+D3F8              ;     ld a,(bc)
 6945+D3F8              ;     ld (hl),a
 6946+D3F8              ;     inc bc
 6947+D3F8              ;     ld de,BUFFER_WINDOW_WIDTH-3
 6948+D3F8              ;     add hl,de ;increment HL pointer by wwidth
 6949+D3F8              ;     ;0,5
 6950+D3F8              ;     ld a,(bc)
 6951+D3F8              ;     ld (hl),a
 6952+D3F8              ;     inc bc
 6953+D3F8              ;     inc hl
 6954+D3F8              ;     ;1,
 6955+D3F8              ;     ld a,(bc)
 6956+D3F8              ;     ld (hl),a
 6957+D3F8              ;     inc bc
 6958+D3F8              ;     inc hl
 6959+D3F8              ;     ;2,
 6960+D3F8              ;     ld a,(bc)
 6961+D3F8              ;     ld (hl),a
 6962+D3F8              ;     inc bc
 6963+D3F8              ;     inc hl
 6964+D3F8              ;     ;3,
 6965+D3F8              ;     ld a,(bc)
 6966+D3F8              ;     ld (hl),a
 6967+D3F8              ;     inc bc
 6968+D3F8              ;     ld de,BUFFER_WINDOW_WIDTH-3
 6969+D3F8              ;     add hl,de ;increment HL pointer by wwidth
 6970+D3F8              ;     ;0,6
 6971+D3F8              ;     ld a,(bc)
 6972+D3F8              ;     ld (hl),a
 6973+D3F8              ;     inc bc
 6974+D3F8              ;     inc hl
 6975+D3F8              ;     ;1,
 6976+D3F8              ;     ld a,(bc)
 6977+D3F8              ;     ld (hl),a
 6978+D3F8              ;     inc bc
 6979+D3F8              ;     inc hl
 6980+D3F8              ;     ;2,
 6981+D3F8              ;     ld a,(bc)
 6982+D3F8              ;     ld (hl),a
 6983+D3F8              ;     inc bc
 6984+D3F8              ;     inc hl
 6985+D3F8              ;     ;3,
 6986+D3F8              ;     ld a,(bc)
 6987+D3F8              ;     ld (hl),a
 6988+D3F8              ;     inc bc
 6989+D3F8              ;     ld de,BUFFER_WINDOW_WIDTH-3
 6990+D3F8              ;     add hl,de ;increment HL pointer by wwidth
 6991+D3F8              ;     ;0,7
 6992+D3F8              ;     ld a,(bc)
 6993+D3F8              ;     ld (hl),a
 6994+D3F8              ;     inc bc
 6995+D3F8              ;     inc hl
 6996+D3F8              ;     ;1,
 6997+D3F8              ;     ld a,(bc)
 6998+D3F8              ;     ld (hl),a
 6999+D3F8              ;     inc bc
 7000+D3F8              ;     inc hl
 7001+D3F8              ;     ;2,
 7002+D3F8              ;     ld a,(bc)
 7003+D3F8              ;     ld (hl),a
 7004+D3F8              ;     inc bc
 7005+D3F8              ;     inc hl
 7006+D3F8              ;     ;3,
 7007+D3F8              ;     ld a,(bc)
 7008+D3F8              ;     ld (hl),a
 7009+D3F8              ;     inc bc
 7010+D3F8              ;     ld de,BUFFER_WINDOW_WIDTH-3
 7011+D3F8              ;     add hl,de ;increment HL pointer by wwidth
 7012+D3F8
 7013+D3F8
 7014+D3F8
 7015+D3F8              ;     ;sideframes
 7016+D3F8              ;     ;1
 7017+D3F8              ;     ;0,0
 7018+D3F8              ;     ld a,(bc)
 7019+D3F8              ;     ld (hl),a
 7020+D3F8              ;     inc bc
 7021+D3F8              ;     inc hl
 7022+D3F8              ;     inc hl
 7023+D3F8              ;     inc hl
 7024+D3F8              ;     ;3,
 7025+D3F8              ;     ld a,(bc)
 7026+D3F8              ;     ld (hl),a
 7027+D3F8              ;     inc bc
 7028+D3F8              ;     ld de,BUFFER_WINDOW_WIDTH-3
 7029+D3F8              ;     add hl,de ;increment HL pointer by wwidth
 7030+D3F8              ;     ;0,1
 7031+D3F8              ;     ld a,(bc)
 7032+D3F8              ;     ld (hl),a
 7033+D3F8              ;     inc bc
 7034+D3F8              ;     inc hl
 7035+D3F8              ;     inc hl
 7036+D3F8              ;     inc hl
 7037+D3F8              ;     ;3,
 7038+D3F8              ;     ld a,(bc)
 7039+D3F8              ;     ld (hl),a
 7040+D3F8              ;     inc bc
 7041+D3F8              ;     ld de,BUFFER_WINDOW_WIDTH-3
 7042+D3F8              ;     add hl,de ;increment HL pointer by wwidth
 7043+D3F8              ;     ;0,2
 7044+D3F8              ;     ld a,(bc)
 7045+D3F8              ;     ld (hl),a
 7046+D3F8              ;     inc bc
 7047+D3F8              ;     inc hl
 7048+D3F8              ;     inc hl
 7049+D3F8              ;     inc hl
 7050+D3F8              ;     ;3,
 7051+D3F8              ;     ld a,(bc)
 7052+D3F8              ;     ld (hl),a
 7053+D3F8              ;     inc bc
 7054+D3F8              ;     ld de,BUFFER_WINDOW_WIDTH-3
 7055+D3F8              ;     add hl,de ;increment HL pointer by wwidth
 7056+D3F8              ;     ;0,3
 7057+D3F8              ;     ld a,(bc)
 7058+D3F8              ;     ld (hl),a
 7059+D3F8              ;     inc bc
 7060+D3F8              ;     inc hl
 7061+D3F8              ;     inc hl
 7062+D3F8              ;     inc hl
 7063+D3F8              ;     ;3,
 7064+D3F8              ;     ld a,(bc)
 7065+D3F8              ;     ld (hl),a
 7066+D3F8              ;     inc bc
 7067+D3F8              ;     ld de,BUFFER_WINDOW_WIDTH-3
 7068+D3F8              ;     add hl,de ;increment HL pointer by wwidth
 7069+D3F8              ;     ;0,4
 7070+D3F8              ;     ld a,(bc)
 7071+D3F8              ;     ld (hl),a
 7072+D3F8              ;     inc bc
 7073+D3F8              ;     inc hl
 7074+D3F8              ;     inc hl
 7075+D3F8              ;     inc hl
 7076+D3F8              ;     ;3,
 7077+D3F8              ;     ld a,(bc)
 7078+D3F8              ;     ld (hl),a
 7079+D3F8              ;     inc bc
 7080+D3F8              ;     ld de,BUFFER_WINDOW_WIDTH-3
 7081+D3F8              ;     add hl,de ;increment HL pointer by wwidth
 7082+D3F8              ;     ;0,5
 7083+D3F8              ;     ld a,(bc)
 7084+D3F8              ;     ld (hl),a
 7085+D3F8              ;     inc bc
 7086+D3F8              ;     inc hl
 7087+D3F8              ;     inc hl
 7088+D3F8              ;     inc hl
 7089+D3F8              ;     ;3,
 7090+D3F8              ;     ld a,(bc)
 7091+D3F8              ;     ld (hl),a
 7092+D3F8              ;     inc bc
 7093+D3F8              ;     ld de,BUFFER_WINDOW_WIDTH-3
 7094+D3F8              ;     add hl,de ;increment HL pointer by wwidth
 7095+D3F8              ;     ;0,6
 7096+D3F8              ;     ld a,(bc)
 7097+D3F8              ;     ld (hl),a
 7098+D3F8              ;     inc bc
 7099+D3F8              ;     inc hl
 7100+D3F8              ;     inc hl
 7101+D3F8              ;     inc hl
 7102+D3F8              ;     ;3,
 7103+D3F8              ;     ld a,(bc)
 7104+D3F8              ;     ld (hl),a
 7105+D3F8              ;     inc bc
 7106+D3F8              ;     ld de,BUFFER_WINDOW_WIDTH-3
 7107+D3F8              ;     add hl,de ;increment HL pointer by wwidth
 7108+D3F8              ;     ;0,7
 7109+D3F8              ;     ld a,(bc)
 7110+D3F8              ;     ld (hl),a
 7111+D3F8              ;     inc bc
 7112+D3F8              ;     inc hl
 7113+D3F8              ;     inc hl
 7114+D3F8              ;     inc hl
 7115+D3F8              ;     ;3,
 7116+D3F8              ;     ld a,(bc)
 7117+D3F8              ;     ld (hl),a
 7118+D3F8              ;     inc bc
 7119+D3F8              ;     ld de,BUFFER_WINDOW_WIDTH-3
 7120+D3F8              ;     add hl,de ;increment HL pointer by wwidth
 7121+D3F8
 7122+D3F8
 7123+D3F8              ;     ;2
 7124+D3F8              ;     ;0,0
 7125+D3F8              ;     ld a,(bc)
 7126+D3F8              ;     ld (hl),a
 7127+D3F8              ;     inc bc
 7128+D3F8              ;     inc hl
 7129+D3F8              ;     inc hl
 7130+D3F8              ;     inc hl
 7131+D3F8              ;     ;3,
 7132+D3F8              ;     ld a,(bc)
 7133+D3F8              ;     ld (hl),a
 7134+D3F8              ;     inc bc
 7135+D3F8              ;     ld de,BUFFER_WINDOW_WIDTH-3
 7136+D3F8              ;     add hl,de ;increment HL pointer by wwidth
 7137+D3F8              ;     ;0,1
 7138+D3F8              ;     ld a,(bc)
 7139+D3F8              ;     ld (hl),a
 7140+D3F8              ;     inc bc
 7141+D3F8              ;     inc hl
 7142+D3F8              ;     inc hl
 7143+D3F8              ;     inc hl
 7144+D3F8              ;     ;3,
 7145+D3F8              ;     ld a,(bc)
 7146+D3F8              ;     ld (hl),a
 7147+D3F8              ;     inc bc
 7148+D3F8              ;     ld de,BUFFER_WINDOW_WIDTH-3
 7149+D3F8              ;     add hl,de ;increment HL pointer by wwidth
 7150+D3F8              ;     ;0,2
 7151+D3F8              ;     ld a,(bc)
 7152+D3F8              ;     ld (hl),a
 7153+D3F8              ;     inc bc
 7154+D3F8              ;     inc hl
 7155+D3F8              ;     inc hl
 7156+D3F8              ;     inc hl
 7157+D3F8              ;     ;3,
 7158+D3F8              ;     ld a,(bc)
 7159+D3F8              ;     ld (hl),a
 7160+D3F8              ;     inc bc
 7161+D3F8              ;     ld de,BUFFER_WINDOW_WIDTH-3
 7162+D3F8              ;     add hl,de ;increment HL pointer by wwidth
 7163+D3F8              ;     ;0,3
 7164+D3F8              ;     ld a,(bc)
 7165+D3F8              ;     ld (hl),a
 7166+D3F8              ;     inc bc
 7167+D3F8              ;     inc hl
 7168+D3F8              ;     inc hl
 7169+D3F8              ;     inc hl
 7170+D3F8              ;     ;3,
 7171+D3F8              ;     ld a,(bc)
 7172+D3F8              ;     ld (hl),a
 7173+D3F8              ;     inc bc
 7174+D3F8              ;     ld de,BUFFER_WINDOW_WIDTH-3
 7175+D3F8              ;     add hl,de ;increment HL pointer by wwidth
 7176+D3F8              ;     ;0,4
 7177+D3F8              ;     ld a,(bc)
 7178+D3F8              ;     ld (hl),a
 7179+D3F8              ;     inc bc
 7180+D3F8              ;     inc hl
 7181+D3F8              ;     inc hl
 7182+D3F8              ;     inc hl
 7183+D3F8              ;     ;3,
 7184+D3F8              ;     ld a,(bc)
 7185+D3F8              ;     ld (hl),a
 7186+D3F8              ;     inc bc
 7187+D3F8              ;     ld de,BUFFER_WINDOW_WIDTH-3
 7188+D3F8              ;     add hl,de ;increment HL pointer by wwidth
 7189+D3F8              ;     ;0,5
 7190+D3F8              ;     ld a,(bc)
 7191+D3F8              ;     ld (hl),a
 7192+D3F8              ;     inc bc
 7193+D3F8              ;     inc hl
 7194+D3F8              ;     inc hl
 7195+D3F8              ;     inc hl
 7196+D3F8              ;     ;3,
 7197+D3F8              ;     ld a,(bc)
 7198+D3F8              ;     ld (hl),a
 7199+D3F8              ;     inc bc
 7200+D3F8              ;     ld de,BUFFER_WINDOW_WIDTH-3
 7201+D3F8              ;     add hl,de ;increment HL pointer by wwidth
 7202+D3F8              ;     ;0,6
 7203+D3F8              ;     ld a,(bc)
 7204+D3F8              ;     ld (hl),a
 7205+D3F8              ;     inc bc
 7206+D3F8              ;     inc hl
 7207+D3F8              ;     inc hl
 7208+D3F8              ;     inc hl
 7209+D3F8              ;     ;3,
 7210+D3F8              ;     ld a,(bc)
 7211+D3F8              ;     ld (hl),a
 7212+D3F8              ;     inc bc
 7213+D3F8              ;     ld de,BUFFER_WINDOW_WIDTH-3
 7214+D3F8              ;     add hl,de ;increment HL pointer by wwidth
 7215+D3F8              ;     ;0,7
 7216+D3F8              ;     ld a,(bc)
 7217+D3F8              ;     ld (hl),a
 7218+D3F8              ;     inc bc
 7219+D3F8              ;     inc hl
 7220+D3F8              ;     inc hl
 7221+D3F8              ;     inc hl
 7222+D3F8              ;     ;3,
 7223+D3F8              ;     ld a,(bc)
 7224+D3F8              ;     ld (hl),a
 7225+D3F8              ;     inc bc
 7226+D3F8              ;     ld de,BUFFER_WINDOW_WIDTH-3
 7227+D3F8              ;     add hl,de ;increment HL pointer by wwidth
 7228+D3F8
 7229+D3F8
 7230+D3F8              ;     ;3
 7231+D3F8              ;     ;0,0
 7232+D3F8              ;     ld a,(bc)
 7233+D3F8              ;     ld (hl),a
 7234+D3F8              ;     inc bc
 7235+D3F8              ;     inc hl
 7236+D3F8              ;     inc hl
 7237+D3F8              ;     inc hl
 7238+D3F8              ;     ;3,
 7239+D3F8              ;     ld a,(bc)
 7240+D3F8              ;     ld (hl),a
 7241+D3F8              ;     inc bc
 7242+D3F8              ;     ld de,BUFFER_WINDOW_WIDTH-3
 7243+D3F8              ;     add hl,de ;increment HL pointer by wwidth
 7244+D3F8              ;     ;0,1
 7245+D3F8              ;     ld a,(bc)
 7246+D3F8              ;     ld (hl),a
 7247+D3F8              ;     inc bc
 7248+D3F8              ;     inc hl
 7249+D3F8              ;     inc hl
 7250+D3F8              ;     inc hl
 7251+D3F8              ;     ;3,
 7252+D3F8              ;     ld a,(bc)
 7253+D3F8              ;     ld (hl),a
 7254+D3F8              ;     inc bc
 7255+D3F8              ;     ld de,BUFFER_WINDOW_WIDTH-3
 7256+D3F8              ;     add hl,de ;increment HL pointer by wwidth
 7257+D3F8              ;     ;0,2
 7258+D3F8              ;     ld a,(bc)
 7259+D3F8              ;     ld (hl),a
 7260+D3F8              ;     inc bc
 7261+D3F8              ;     inc hl
 7262+D3F8              ;     inc hl
 7263+D3F8              ;     inc hl
 7264+D3F8              ;     ;3,
 7265+D3F8              ;     ld a,(bc)
 7266+D3F8              ;     ld (hl),a
 7267+D3F8              ;     inc bc
 7268+D3F8              ;     ld de,BUFFER_WINDOW_WIDTH-3
 7269+D3F8              ;     add hl,de ;increment HL pointer by wwidth
 7270+D3F8              ;     ;0,3
 7271+D3F8              ;     ld a,(bc)
 7272+D3F8              ;     ld (hl),a
 7273+D3F8              ;     inc bc
 7274+D3F8              ;     inc hl
 7275+D3F8              ;     inc hl
 7276+D3F8              ;     inc hl
 7277+D3F8              ;     ;3,
 7278+D3F8              ;     ld a,(bc)
 7279+D3F8              ;     ld (hl),a
 7280+D3F8              ;     inc bc
 7281+D3F8              ;     ld de,BUFFER_WINDOW_WIDTH-3
 7282+D3F8              ;     add hl,de ;increment HL pointer by wwidth
 7283+D3F8              ;     ;0,4
 7284+D3F8              ;     ld a,(bc)
 7285+D3F8              ;     ld (hl),a
 7286+D3F8              ;     inc bc
 7287+D3F8              ;     inc hl
 7288+D3F8              ;     inc hl
 7289+D3F8              ;     inc hl
 7290+D3F8              ;     ;3,
 7291+D3F8              ;     ld a,(bc)
 7292+D3F8              ;     ld (hl),a
 7293+D3F8              ;     inc bc
 7294+D3F8              ;     ld de,BUFFER_WINDOW_WIDTH-3
 7295+D3F8              ;     add hl,de ;increment HL pointer by wwidth
 7296+D3F8              ;     ;0,5
 7297+D3F8              ;     ld a,(bc)
 7298+D3F8              ;     ld (hl),a
 7299+D3F8              ;     inc bc
 7300+D3F8              ;     inc hl
 7301+D3F8              ;     inc hl
 7302+D3F8              ;     inc hl
 7303+D3F8              ;     ;3,
 7304+D3F8              ;     ld a,(bc)
 7305+D3F8              ;     ld (hl),a
 7306+D3F8              ;     inc bc
 7307+D3F8              ;     ld de,BUFFER_WINDOW_WIDTH-3
 7308+D3F8              ;     add hl,de ;increment HL pointer by wwidth
 7309+D3F8              ;     ;0,6
 7310+D3F8              ;     ld a,(bc)
 7311+D3F8              ;     ld (hl),a
 7312+D3F8              ;     inc bc
 7313+D3F8              ;     inc hl
 7314+D3F8              ;     inc hl
 7315+D3F8              ;     inc hl
 7316+D3F8              ;     ;3,
 7317+D3F8              ;     ld a,(bc)
 7318+D3F8              ;     ld (hl),a
 7319+D3F8              ;     inc bc
 7320+D3F8              ;     ld de,BUFFER_WINDOW_WIDTH-3
 7321+D3F8              ;     add hl,de ;increment HL pointer by wwidth
 7322+D3F8              ;     ;0,7
 7323+D3F8              ;     ld a,(bc)
 7324+D3F8              ;     ld (hl),a
 7325+D3F8              ;     inc bc
 7326+D3F8              ;     inc hl
 7327+D3F8              ;     inc hl
 7328+D3F8              ;     inc hl
 7329+D3F8              ;     ;3,
 7330+D3F8              ;     ld a,(bc)
 7331+D3F8              ;     ld (hl),a
 7332+D3F8              ;     inc bc
 7333+D3F8              ;     ld de,BUFFER_WINDOW_WIDTH-3
 7334+D3F8              ;     add hl,de ;increment HL pointer by wwidth
 7335+D3F8
 7336+D3F8
 7337+D3F8
 7338+D3F8              ;     ;4
 7339+D3F8              ;     ;0,0
 7340+D3F8              ;     ld a,(bc)
 7341+D3F8              ;     ld (hl),a
 7342+D3F8              ;     inc bc
 7343+D3F8              ;     inc hl
 7344+D3F8              ;     inc hl
 7345+D3F8              ;     inc hl
 7346+D3F8              ;     ;3,
 7347+D3F8              ;     ld a,(bc)
 7348+D3F8              ;     ld (hl),a
 7349+D3F8              ;     inc bc
 7350+D3F8              ;     ld de,BUFFER_WINDOW_WIDTH-3
 7351+D3F8              ;     add hl,de ;increment HL pointer by wwidth
 7352+D3F8              ;     ;0,1
 7353+D3F8              ;     ld a,(bc)
 7354+D3F8              ;     ld (hl),a
 7355+D3F8              ;     inc bc
 7356+D3F8              ;     inc hl
 7357+D3F8              ;     inc hl
 7358+D3F8              ;     inc hl
 7359+D3F8              ;     ;3,
 7360+D3F8              ;     ld a,(bc)
 7361+D3F8              ;     ld (hl),a
 7362+D3F8              ;     inc bc
 7363+D3F8              ;     ld de,BUFFER_WINDOW_WIDTH-3
 7364+D3F8              ;     add hl,de ;increment HL pointer by wwidth
 7365+D3F8              ;     ;0,2
 7366+D3F8              ;     ld a,(bc)
 7367+D3F8              ;     ld (hl),a
 7368+D3F8              ;     inc bc
 7369+D3F8              ;     inc hl
 7370+D3F8              ;     inc hl
 7371+D3F8              ;     inc hl
 7372+D3F8              ;     ;3,
 7373+D3F8              ;     ld a,(bc)
 7374+D3F8              ;     ld (hl),a
 7375+D3F8              ;     inc bc
 7376+D3F8              ;     ld de,BUFFER_WINDOW_WIDTH-3
 7377+D3F8              ;     add hl,de ;increment HL pointer by wwidth
 7378+D3F8              ;     ;0,3
 7379+D3F8              ;     ld a,(bc)
 7380+D3F8              ;     ld (hl),a
 7381+D3F8              ;     inc bc
 7382+D3F8              ;     inc hl
 7383+D3F8              ;     inc hl
 7384+D3F8              ;     inc hl
 7385+D3F8              ;     ;3,
 7386+D3F8              ;     ld a,(bc)
 7387+D3F8              ;     ld (hl),a
 7388+D3F8              ;     inc bc
 7389+D3F8              ;     ld de,BUFFER_WINDOW_WIDTH-3
 7390+D3F8              ;     add hl,de ;increment HL pointer by wwidth
 7391+D3F8              ;     ;0,4
 7392+D3F8              ;     ld a,(bc)
 7393+D3F8              ;     ld (hl),a
 7394+D3F8              ;     inc bc
 7395+D3F8              ;     inc hl
 7396+D3F8              ;     inc hl
 7397+D3F8              ;     inc hl
 7398+D3F8              ;     ;3,
 7399+D3F8              ;     ld a,(bc)
 7400+D3F8              ;     ld (hl),a
 7401+D3F8              ;     inc bc
 7402+D3F8              ;     ld de,BUFFER_WINDOW_WIDTH-3
 7403+D3F8              ;     add hl,de ;increment HL pointer by wwidth
 7404+D3F8              ;     ;0,5
 7405+D3F8              ;     ld a,(bc)
 7406+D3F8              ;     ld (hl),a
 7407+D3F8              ;     inc bc
 7408+D3F8              ;     inc hl
 7409+D3F8              ;     inc hl
 7410+D3F8              ;     inc hl
 7411+D3F8              ;     ;3,
 7412+D3F8              ;     ld a,(bc)
 7413+D3F8              ;     ld (hl),a
 7414+D3F8              ;     inc bc
 7415+D3F8              ;     ld de,BUFFER_WINDOW_WIDTH-3
 7416+D3F8              ;     add hl,de ;increment HL pointer by wwidth
 7417+D3F8              ;     ;0,6
 7418+D3F8              ;     ld a,(bc)
 7419+D3F8              ;     ld (hl),a
 7420+D3F8              ;     inc bc
 7421+D3F8              ;     inc hl
 7422+D3F8              ;     inc hl
 7423+D3F8              ;     inc hl
 7424+D3F8              ;     ;3,
 7425+D3F8              ;     ld a,(bc)
 7426+D3F8              ;     ld (hl),a
 7427+D3F8              ;     inc bc
 7428+D3F8              ;     ld de,BUFFER_WINDOW_WIDTH-3
 7429+D3F8              ;     add hl,de ;increment HL pointer by wwidth
 7430+D3F8              ;     ;0,7
 7431+D3F8              ;     ld a,(bc)
 7432+D3F8              ;     ld (hl),a
 7433+D3F8              ;     inc bc
 7434+D3F8              ;     inc hl
 7435+D3F8              ;     inc hl
 7436+D3F8              ;     inc hl
 7437+D3F8              ;     ;3,
 7438+D3F8              ;     ld a,(bc)
 7439+D3F8              ;     ld (hl),a
 7440+D3F8              ;     inc bc
 7441+D3F8              ;     ld de,BUFFER_WINDOW_WIDTH-3
 7442+D3F8              ;     add hl,de ;increment HL pointer by wwidth
 7443+D3F8
 7444+D3F8
 7445+D3F8
 7446+D3F8              ;     ret
 7447+D3F8
 7448+D3F8
 7449+D3F8
 7450+D3F8
 7451+D3F8
 7452+D3F8
 7453+D3F8
 7454+D3F8
 7455+D3F8
 7456+D3F8
 7457+D3F8
 7458+D3F8
 7459+D3F8
 7460+D3F8
 7461+D3F8
 7462+D3F8
 7463+D3F8
 7464+D3F8
 7465+D3F8
 7466+D3F8
 7467+D3F8
 7468+D3F8
 7469+D3F8
 7470+D3F8
 7471+D3F8
 7472+D3F8
 7473+D3F8
 7474+D3F8
 7475+D3F8
 7476+D3F8
 7477+D3F8
 7478+D3F8
 7479+D3F8
 7480+D3F8
 7481+D3F8
 7482+D3F8
 7483+D3F8
 7484+D3F8              ;;Window Width of 24....
 7485+D3F8              ;INPUTS:
 7486+D3F8              ;wwidth=24
 7487+D3F8              ;BC=sprite pointer
 7488+D3F8              ;DE=xy
 7489+D3F8              drawsprite48_24:
 7490+D3F8 21 00 00         ld hl,0
 7491+D3FB 7B               ld a,e
 7492+D3FC 6F               ld l,a
 7493+D3FD 29               add hl,hl ;HL= y*2
 7494+D3FE 29               add hl,hl ;HL= y*4
 7495+D3FF D5               push de
 7496+D400 E5               push hl
 7497+D401 D1               pop de ;DE=y*4
 7498+D402 29               add hl,hl ;HL= y*8
 7499+D403 C5               push bc
 7500+D404 E5               push hl
 7501+D405 C1               pop bc ;BC=y*8
 7502+D406 29               add hl,hl
 7503+D407 09               add hl,bc ;HL=y*24
 7504+D408 19               add hl,de ;HL=y*28
 7505+D409 C1               pop bc
 7506+D40A D1               pop de
 7507+D40B 5A               ld e,d
 7508+D40C 16 00            ld d,0
 7509+D40E 19               add hl,de ;HL+=x
 7510+D40F 11 00 80         ld de,GAME_WINDOW_START
 7511+D412 19               add hl,de ;HL+=memstart
 7512+D413                  ;start drawing bytes...
 7513+D413                  ;0,0    ;;;;;;0
 7514+D413 0A               ld a,(bc)
 7515+D414 56               ld d,(hl)
 7516+D415 B2               or d
 7517+D416 77               ld (hl),a
 7518+D417 03               inc bc
 7519+D418 23               inc hl
 7520+D419                  ;1,
 7521+D419 0A               ld a,(bc)
 7522+D41A 56               ld d,(hl)
 7523+D41B B2               or d
 7524+D41C 77               ld (hl),a
 7525+D41D 03               inc bc
 7526+D41E 23               inc hl
 7527+D41F                  ;2,
 7528+D41F 0A               ld a,(bc)
 7529+D420 56               ld d,(hl)
 7530+D421 B2               or d
 7531+D422 77               ld (hl),a
 7532+D423 03               inc bc
 7533+D424 23               inc hl
 7534+D425                  ;3,
 7535+D425 0A               ld a,(bc)
 7536+D426 56               ld d,(hl)
 7537+D427 B2               or d
 7538+D428 77               ld (hl),a
 7539+D429 03               inc bc
 7540+D42A 23               inc hl
 7541+D42B                  ;4,
 7542+D42B 0A               ld a,(bc)
 7543+D42C 56               ld d,(hl)
 7544+D42D B2               or d
 7545+D42E 77               ld (hl),a
 7546+D42F 03               inc bc
 7547+D430 23               inc hl
 7548+D431                  ;5,
 7549+D431 0A               ld a,(bc)
 7550+D432 56               ld d,(hl)
 7551+D433 B2               or d
 7552+D434 77               ld (hl),a
 7553+D435 03               inc bc
 7554+D436 11 17 00         ld de,BUFFER_WINDOW_WIDTH-5
 7555+D439 19               add hl,de ;increment HL pointer by wwidth
 7556+D43A                  ;0,1
 7557+D43A 0A               ld a,(bc)
 7558+D43B 56               ld d,(hl)
 7559+D43C B2               or d
 7560+D43D 77               ld (hl),a
 7561+D43E 03               inc bc
 7562+D43F 23               inc hl
 7563+D440                  ;1,
 7564+D440 0A               ld a,(bc)
 7565+D441 56               ld d,(hl)
 7566+D442 B2               or d
 7567+D443 77               ld (hl),a
 7568+D444 03               inc bc
 7569+D445 23               inc hl
 7570+D446                  ;2,
 7571+D446 0A               ld a,(bc)
 7572+D447 56               ld d,(hl)
 7573+D448 B2               or d
 7574+D449 77               ld (hl),a
 7575+D44A 03               inc bc
 7576+D44B 23               inc hl
 7577+D44C                  ;3,
 7578+D44C 0A               ld a,(bc)
 7579+D44D 56               ld d,(hl)
 7580+D44E B2               or d
 7581+D44F 77               ld (hl),a
 7582+D450 03               inc bc
 7583+D451 23               inc hl
 7584+D452                  ;4,
 7585+D452 0A               ld a,(bc)
 7586+D453 56               ld d,(hl)
 7587+D454 B2               or d
 7588+D455 77               ld (hl),a
 7589+D456 03               inc bc
 7590+D457 23               inc hl
 7591+D458                  ;5,
 7592+D458 0A               ld a,(bc)
 7593+D459 56               ld d,(hl)
 7594+D45A B2               or d
 7595+D45B 77               ld (hl),a
 7596+D45C 03               inc bc
 7597+D45D 11 17 00         ld de,BUFFER_WINDOW_WIDTH-5
 7598+D460 19               add hl,de ;increment HL pointer by wwidth
 7599+D461                  ;0,2
 7600+D461 0A               ld a,(bc)
 7601+D462 56               ld d,(hl)
 7602+D463 B2               or d
 7603+D464 77               ld (hl),a
 7604+D465 03               inc bc
 7605+D466 23               inc hl
 7606+D467                  ;1,
 7607+D467 0A               ld a,(bc)
 7608+D468 56               ld d,(hl)
 7609+D469 B2               or d
 7610+D46A 77               ld (hl),a
 7611+D46B 03               inc bc
 7612+D46C 23               inc hl
 7613+D46D                  ;2,
 7614+D46D 0A               ld a,(bc)
 7615+D46E 56               ld d,(hl)
 7616+D46F B2               or d
 7617+D470 77               ld (hl),a
 7618+D471 03               inc bc
 7619+D472 23               inc hl
 7620+D473                  ;3,
 7621+D473 0A               ld a,(bc)
 7622+D474 56               ld d,(hl)
 7623+D475 B2               or d
 7624+D476 77               ld (hl),a
 7625+D477 03               inc bc
 7626+D478 23               inc hl
 7627+D479                  ;4,
 7628+D479 0A               ld a,(bc)
 7629+D47A 56               ld d,(hl)
 7630+D47B B2               or d
 7631+D47C 77               ld (hl),a
 7632+D47D 03               inc bc
 7633+D47E 23               inc hl
 7634+D47F                  ;5,
 7635+D47F 0A               ld a,(bc)
 7636+D480 56               ld d,(hl)
 7637+D481 B2               or d
 7638+D482 77               ld (hl),a
 7639+D483 03               inc bc
 7640+D484 11 17 00         ld de,BUFFER_WINDOW_WIDTH-5
 7641+D487 19               add hl,de ;increment HL pointer by wwidth
 7642+D488                  ;0,3
 7643+D488 0A               ld a,(bc)
 7644+D489 56               ld d,(hl)
 7645+D48A B2               or d
 7646+D48B 77               ld (hl),a
 7647+D48C 03               inc bc
 7648+D48D 23               inc hl
 7649+D48E                  ;1,
 7650+D48E 0A               ld a,(bc)
 7651+D48F 56               ld d,(hl)
 7652+D490 B2               or d
 7653+D491 77               ld (hl),a
 7654+D492 03               inc bc
 7655+D493 23               inc hl
 7656+D494                  ;2,
 7657+D494 0A               ld a,(bc)
 7658+D495 56               ld d,(hl)
 7659+D496 B2               or d
 7660+D497 77               ld (hl),a
 7661+D498 03               inc bc
 7662+D499 23               inc hl
 7663+D49A                  ;3,
 7664+D49A 0A               ld a,(bc)
 7665+D49B 56               ld d,(hl)
 7666+D49C B2               or d
 7667+D49D 77               ld (hl),a
 7668+D49E 03               inc bc
 7669+D49F 23               inc hl
 7670+D4A0                  ;4,
 7671+D4A0 0A               ld a,(bc)
 7672+D4A1 56               ld d,(hl)
 7673+D4A2 B2               or d
 7674+D4A3 77               ld (hl),a
 7675+D4A4 03               inc bc
 7676+D4A5 23               inc hl
 7677+D4A6                  ;5,
 7678+D4A6 0A               ld a,(bc)
 7679+D4A7 56               ld d,(hl)
 7680+D4A8 B2               or d
 7681+D4A9 77               ld (hl),a
 7682+D4AA 03               inc bc
 7683+D4AB 11 17 00         ld de,BUFFER_WINDOW_WIDTH-5
 7684+D4AE 19               add hl,de ;increment HL pointer by wwidth
 7685+D4AF                  ;0,4
 7686+D4AF 0A               ld a,(bc)
 7687+D4B0 56               ld d,(hl)
 7688+D4B1 B2               or d
 7689+D4B2 77               ld (hl),a
 7690+D4B3 03               inc bc
 7691+D4B4 23               inc hl
 7692+D4B5                  ;1,
 7693+D4B5 0A               ld a,(bc)
 7694+D4B6 56               ld d,(hl)
 7695+D4B7 B2               or d
 7696+D4B8 77               ld (hl),a
 7697+D4B9 03               inc bc
 7698+D4BA 23               inc hl
 7699+D4BB                  ;2,
 7700+D4BB 0A               ld a,(bc)
 7701+D4BC 56               ld d,(hl)
 7702+D4BD B2               or d
 7703+D4BE 77               ld (hl),a
 7704+D4BF 03               inc bc
 7705+D4C0 23               inc hl
 7706+D4C1                  ;3,
 7707+D4C1 0A               ld a,(bc)
 7708+D4C2 56               ld d,(hl)
 7709+D4C3 B2               or d
 7710+D4C4 77               ld (hl),a
 7711+D4C5 03               inc bc
 7712+D4C6 23               inc hl
 7713+D4C7                  ;4,
 7714+D4C7 0A               ld a,(bc)
 7715+D4C8 56               ld d,(hl)
 7716+D4C9 B2               or d
 7717+D4CA 77               ld (hl),a
 7718+D4CB 03               inc bc
 7719+D4CC 23               inc hl
 7720+D4CD                  ;5,
 7721+D4CD 0A               ld a,(bc)
 7722+D4CE 56               ld d,(hl)
 7723+D4CF B2               or d
 7724+D4D0 77               ld (hl),a
 7725+D4D1 03               inc bc
 7726+D4D2 11 17 00         ld de,BUFFER_WINDOW_WIDTH-5
 7727+D4D5 19               add hl,de ;increment HL pointer by wwidth
 7728+D4D6                  ;0,5
 7729+D4D6 0A               ld a,(bc)
 7730+D4D7 56               ld d,(hl)
 7731+D4D8 B2               or d
 7732+D4D9 77               ld (hl),a
 7733+D4DA 03               inc bc
 7734+D4DB 23               inc hl
 7735+D4DC                  ;1,
 7736+D4DC 0A               ld a,(bc)
 7737+D4DD 56               ld d,(hl)
 7738+D4DE B2               or d
 7739+D4DF 77               ld (hl),a
 7740+D4E0 03               inc bc
 7741+D4E1 23               inc hl
 7742+D4E2                  ;2,
 7743+D4E2 0A               ld a,(bc)
 7744+D4E3 56               ld d,(hl)
 7745+D4E4 B2               or d
 7746+D4E5 77               ld (hl),a
 7747+D4E6 03               inc bc
 7748+D4E7 23               inc hl
 7749+D4E8                  ;3,
 7750+D4E8 0A               ld a,(bc)
 7751+D4E9 56               ld d,(hl)
 7752+D4EA B2               or d
 7753+D4EB 77               ld (hl),a
 7754+D4EC 03               inc bc
 7755+D4ED 23               inc hl
 7756+D4EE                  ;4,
 7757+D4EE 0A               ld a,(bc)
 7758+D4EF 56               ld d,(hl)
 7759+D4F0 B2               or d
 7760+D4F1 77               ld (hl),a
 7761+D4F2 03               inc bc
 7762+D4F3 23               inc hl
 7763+D4F4                  ;5,
 7764+D4F4 0A               ld a,(bc)
 7765+D4F5 56               ld d,(hl)
 7766+D4F6 B2               or d
 7767+D4F7 77               ld (hl),a
 7768+D4F8 03               inc bc
 7769+D4F9 11 17 00         ld de,BUFFER_WINDOW_WIDTH-5
 7770+D4FC 19               add hl,de ;increment HL pointer by wwidth
 7771+D4FD                  ;0,6
 7772+D4FD 0A               ld a,(bc)
 7773+D4FE 56               ld d,(hl)
 7774+D4FF B2               or d
 7775+D500 77               ld (hl),a
 7776+D501 03               inc bc
 7777+D502 23               inc hl
 7778+D503                  ;1,
 7779+D503 0A               ld a,(bc)
 7780+D504 56               ld d,(hl)
 7781+D505 B2               or d
 7782+D506 77               ld (hl),a
 7783+D507 03               inc bc
 7784+D508 23               inc hl
 7785+D509                  ;2,
 7786+D509 0A               ld a,(bc)
 7787+D50A 56               ld d,(hl)
 7788+D50B B2               or d
 7789+D50C 77               ld (hl),a
 7790+D50D 03               inc bc
 7791+D50E 23               inc hl
 7792+D50F                  ;3,
 7793+D50F 0A               ld a,(bc)
 7794+D510 56               ld d,(hl)
 7795+D511 B2               or d
 7796+D512 77               ld (hl),a
 7797+D513 03               inc bc
 7798+D514 23               inc hl
 7799+D515                  ;4,
 7800+D515 0A               ld a,(bc)
 7801+D516 56               ld d,(hl)
 7802+D517 B2               or d
 7803+D518 77               ld (hl),a
 7804+D519 03               inc bc
 7805+D51A 23               inc hl
 7806+D51B                  ;5,
 7807+D51B 0A               ld a,(bc)
 7808+D51C 56               ld d,(hl)
 7809+D51D B2               or d
 7810+D51E 77               ld (hl),a
 7811+D51F 03               inc bc
 7812+D520 11 17 00         ld de,BUFFER_WINDOW_WIDTH-5
 7813+D523 19               add hl,de ;increment HL pointer by wwidth
 7814+D524                  ;0,7
 7815+D524 0A               ld a,(bc)
 7816+D525 56               ld d,(hl)
 7817+D526 B2               or d
 7818+D527 77               ld (hl),a
 7819+D528 03               inc bc
 7820+D529 23               inc hl
 7821+D52A                  ;1,
 7822+D52A 0A               ld a,(bc)
 7823+D52B 56               ld d,(hl)
 7824+D52C B2               or d
 7825+D52D 77               ld (hl),a
 7826+D52E 03               inc bc
 7827+D52F 23               inc hl
 7828+D530                  ;2,
 7829+D530 0A               ld a,(bc)
 7830+D531 56               ld d,(hl)
 7831+D532 B2               or d
 7832+D533 77               ld (hl),a
 7833+D534 03               inc bc
 7834+D535 23               inc hl
 7835+D536                  ;3,
 7836+D536 0A               ld a,(bc)
 7837+D537 56               ld d,(hl)
 7838+D538 B2               or d
 7839+D539 77               ld (hl),a
 7840+D53A 03               inc bc
 7841+D53B 23               inc hl
 7842+D53C                  ;4,
 7843+D53C 0A               ld a,(bc)
 7844+D53D 56               ld d,(hl)
 7845+D53E B2               or d
 7846+D53F 77               ld (hl),a
 7847+D540 03               inc bc
 7848+D541 23               inc hl
 7849+D542                  ;5,
 7850+D542 0A               ld a,(bc)
 7851+D543 56               ld d,(hl)
 7852+D544 B2               or d
 7853+D545 77               ld (hl),a
 7854+D546 03               inc bc
 7855+D547 11 17 00         ld de,BUFFER_WINDOW_WIDTH-5
 7856+D54A 19               add hl,de ;increment HL pointer by wwidth
 7857+D54B                  ;0,8
 7858+D54B 0A               ld a,(bc)
 7859+D54C 56               ld d,(hl)
 7860+D54D B2               or d
 7861+D54E 77               ld (hl),a
 7862+D54F 03               inc bc
 7863+D550 23               inc hl
 7864+D551                  ;1,
 7865+D551 0A               ld a,(bc)
 7866+D552 56               ld d,(hl)
 7867+D553 B2               or d
 7868+D554 77               ld (hl),a
 7869+D555 03               inc bc
 7870+D556 23               inc hl
 7871+D557                  ;2,
 7872+D557 0A               ld a,(bc)
 7873+D558 56               ld d,(hl)
 7874+D559 B2               or d
 7875+D55A 77               ld (hl),a
 7876+D55B 03               inc bc
 7877+D55C 23               inc hl
 7878+D55D                  ;3,
 7879+D55D 0A               ld a,(bc)
 7880+D55E 56               ld d,(hl)
 7881+D55F B2               or d
 7882+D560 77               ld (hl),a
 7883+D561 03               inc bc
 7884+D562 23               inc hl
 7885+D563                  ;4,
 7886+D563 0A               ld a,(bc)
 7887+D564 56               ld d,(hl)
 7888+D565 B2               or d
 7889+D566 77               ld (hl),a
 7890+D567 03               inc bc
 7891+D568 23               inc hl
 7892+D569                  ;5,
 7893+D569 0A               ld a,(bc)
 7894+D56A 56               ld d,(hl)
 7895+D56B B2               or d
 7896+D56C 77               ld (hl),a
 7897+D56D 03               inc bc
 7898+D56E 11 17 00         ld de,BUFFER_WINDOW_WIDTH-5
 7899+D571 19               add hl,de ;increment HL pointer by wwidth
 7900+D572                  ;0,9
 7901+D572 0A               ld a,(bc)
 7902+D573 56               ld d,(hl)
 7903+D574 B2               or d
 7904+D575 77               ld (hl),a
 7905+D576 03               inc bc
 7906+D577 23               inc hl
 7907+D578                  ;1,
 7908+D578 0A               ld a,(bc)
 7909+D579 56               ld d,(hl)
 7910+D57A B2               or d
 7911+D57B 77               ld (hl),a
 7912+D57C 03               inc bc
 7913+D57D 23               inc hl
 7914+D57E                  ;2,
 7915+D57E 0A               ld a,(bc)
 7916+D57F 56               ld d,(hl)
 7917+D580 B2               or d
 7918+D581 77               ld (hl),a
 7919+D582 03               inc bc
 7920+D583 23               inc hl
 7921+D584                  ;3,
 7922+D584 0A               ld a,(bc)
 7923+D585 56               ld d,(hl)
 7924+D586 B2               or d
 7925+D587 77               ld (hl),a
 7926+D588 03               inc bc
 7927+D589 23               inc hl
 7928+D58A                  ;4,
 7929+D58A 0A               ld a,(bc)
 7930+D58B 56               ld d,(hl)
 7931+D58C B2               or d
 7932+D58D 77               ld (hl),a
 7933+D58E 03               inc bc
 7934+D58F 23               inc hl
 7935+D590                  ;5,
 7936+D590 0A               ld a,(bc)
 7937+D591 56               ld d,(hl)
 7938+D592 B2               or d
 7939+D593 77               ld (hl),a
 7940+D594 03               inc bc
 7941+D595 11 17 00         ld de,BUFFER_WINDOW_WIDTH-5
 7942+D598 19               add hl,de ;increment HL pointer by wwidth
 7943+D599
 7944+D599
 7945+D599
 7946+D599
 7947+D599
 7948+D599
 7949+D599
 7950+D599                  ;0,0    ;;;;;;10
 7951+D599 0A               ld a,(bc)
 7952+D59A 56               ld d,(hl)
 7953+D59B B2               or d
 7954+D59C 77               ld (hl),a
 7955+D59D 03               inc bc
 7956+D59E 23               inc hl
 7957+D59F                  ;1,
 7958+D59F 0A               ld a,(bc)
 7959+D5A0 56               ld d,(hl)
 7960+D5A1 B2               or d
 7961+D5A2 77               ld (hl),a
 7962+D5A3 03               inc bc
 7963+D5A4 23               inc hl
 7964+D5A5                  ;2,
 7965+D5A5 0A               ld a,(bc)
 7966+D5A6 56               ld d,(hl)
 7967+D5A7 B2               or d
 7968+D5A8 77               ld (hl),a
 7969+D5A9 03               inc bc
 7970+D5AA 23               inc hl
 7971+D5AB                  ;3,
 7972+D5AB 0A               ld a,(bc)
 7973+D5AC 56               ld d,(hl)
 7974+D5AD B2               or d
 7975+D5AE 77               ld (hl),a
 7976+D5AF 03               inc bc
 7977+D5B0 23               inc hl
 7978+D5B1                  ;4,
 7979+D5B1 0A               ld a,(bc)
 7980+D5B2 56               ld d,(hl)
 7981+D5B3 B2               or d
 7982+D5B4 77               ld (hl),a
 7983+D5B5 03               inc bc
 7984+D5B6 23               inc hl
 7985+D5B7                  ;5,
 7986+D5B7 0A               ld a,(bc)
 7987+D5B8 56               ld d,(hl)
 7988+D5B9 B2               or d
 7989+D5BA 77               ld (hl),a
 7990+D5BB 03               inc bc
 7991+D5BC 11 17 00         ld de,BUFFER_WINDOW_WIDTH-5
 7992+D5BF 19               add hl,de ;increment HL pointer by wwidth
 7993+D5C0                  ;0,1
 7994+D5C0 0A               ld a,(bc)
 7995+D5C1 56               ld d,(hl)
 7996+D5C2 B2               or d
 7997+D5C3 77               ld (hl),a
 7998+D5C4 03               inc bc
 7999+D5C5 23               inc hl
 8000+D5C6                  ;1,
 8001+D5C6 0A               ld a,(bc)
 8002+D5C7 56               ld d,(hl)
 8003+D5C8 B2               or d
 8004+D5C9 77               ld (hl),a
 8005+D5CA 03               inc bc
 8006+D5CB 23               inc hl
 8007+D5CC                  ;2,
 8008+D5CC 0A               ld a,(bc)
 8009+D5CD 56               ld d,(hl)
 8010+D5CE B2               or d
 8011+D5CF 77               ld (hl),a
 8012+D5D0 03               inc bc
 8013+D5D1 23               inc hl
 8014+D5D2                  ;3,
 8015+D5D2 0A               ld a,(bc)
 8016+D5D3 56               ld d,(hl)
 8017+D5D4 B2               or d
 8018+D5D5 77               ld (hl),a
 8019+D5D6 03               inc bc
 8020+D5D7 23               inc hl
 8021+D5D8                  ;4,
 8022+D5D8 0A               ld a,(bc)
 8023+D5D9 56               ld d,(hl)
 8024+D5DA B2               or d
 8025+D5DB 77               ld (hl),a
 8026+D5DC 03               inc bc
 8027+D5DD 23               inc hl
 8028+D5DE                  ;5,
 8029+D5DE 0A               ld a,(bc)
 8030+D5DF 56               ld d,(hl)
 8031+D5E0 B2               or d
 8032+D5E1 77               ld (hl),a
 8033+D5E2 03               inc bc
 8034+D5E3 11 17 00         ld de,BUFFER_WINDOW_WIDTH-5
 8035+D5E6 19               add hl,de ;increment HL pointer by wwidth
 8036+D5E7                  ;0,2
 8037+D5E7 0A               ld a,(bc)
 8038+D5E8 56               ld d,(hl)
 8039+D5E9 B2               or d
 8040+D5EA 77               ld (hl),a
 8041+D5EB 03               inc bc
 8042+D5EC 23               inc hl
 8043+D5ED                  ;1,
 8044+D5ED 0A               ld a,(bc)
 8045+D5EE 56               ld d,(hl)
 8046+D5EF B2               or d
 8047+D5F0 77               ld (hl),a
 8048+D5F1 03               inc bc
 8049+D5F2 23               inc hl
 8050+D5F3                  ;2,
 8051+D5F3 0A               ld a,(bc)
 8052+D5F4 56               ld d,(hl)
 8053+D5F5 B2               or d
 8054+D5F6 77               ld (hl),a
 8055+D5F7 03               inc bc
 8056+D5F8 23               inc hl
 8057+D5F9                  ;3,
 8058+D5F9 0A               ld a,(bc)
 8059+D5FA 56               ld d,(hl)
 8060+D5FB B2               or d
 8061+D5FC 77               ld (hl),a
 8062+D5FD 03               inc bc
 8063+D5FE 23               inc hl
 8064+D5FF                  ;4,
 8065+D5FF 0A               ld a,(bc)
 8066+D600 56               ld d,(hl)
 8067+D601 B2               or d
 8068+D602 77               ld (hl),a
 8069+D603 03               inc bc
 8070+D604 23               inc hl
 8071+D605                  ;5,
 8072+D605 0A               ld a,(bc)
 8073+D606 56               ld d,(hl)
 8074+D607 B2               or d
 8075+D608 77               ld (hl),a
 8076+D609 03               inc bc
 8077+D60A 11 17 00         ld de,BUFFER_WINDOW_WIDTH-5
 8078+D60D 19               add hl,de ;increment HL pointer by wwidth
 8079+D60E                  ;0,3
 8080+D60E 0A               ld a,(bc)
 8081+D60F 56               ld d,(hl)
 8082+D610 B2               or d
 8083+D611 77               ld (hl),a
 8084+D612 03               inc bc
 8085+D613 23               inc hl
 8086+D614                  ;1,
 8087+D614 0A               ld a,(bc)
 8088+D615 56               ld d,(hl)
 8089+D616 B2               or d
 8090+D617 77               ld (hl),a
 8091+D618 03               inc bc
 8092+D619 23               inc hl
 8093+D61A                  ;2,
 8094+D61A 0A               ld a,(bc)
 8095+D61B 56               ld d,(hl)
 8096+D61C B2               or d
 8097+D61D 77               ld (hl),a
 8098+D61E 03               inc bc
 8099+D61F 23               inc hl
 8100+D620                  ;3,
 8101+D620 0A               ld a,(bc)
 8102+D621 56               ld d,(hl)
 8103+D622 B2               or d
 8104+D623 77               ld (hl),a
 8105+D624 03               inc bc
 8106+D625 23               inc hl
 8107+D626                  ;4,
 8108+D626 0A               ld a,(bc)
 8109+D627 56               ld d,(hl)
 8110+D628 B2               or d
 8111+D629 77               ld (hl),a
 8112+D62A 03               inc bc
 8113+D62B 23               inc hl
 8114+D62C                  ;5,
 8115+D62C 0A               ld a,(bc)
 8116+D62D 56               ld d,(hl)
 8117+D62E B2               or d
 8118+D62F 77               ld (hl),a
 8119+D630 03               inc bc
 8120+D631 11 17 00         ld de,BUFFER_WINDOW_WIDTH-5
 8121+D634 19               add hl,de ;increment HL pointer by wwidth
 8122+D635                  ;0,4
 8123+D635 0A               ld a,(bc)
 8124+D636 56               ld d,(hl)
 8125+D637 B2               or d
 8126+D638 77               ld (hl),a
 8127+D639 03               inc bc
 8128+D63A 23               inc hl
 8129+D63B                  ;1,
 8130+D63B 0A               ld a,(bc)
 8131+D63C 56               ld d,(hl)
 8132+D63D B2               or d
 8133+D63E 77               ld (hl),a
 8134+D63F 03               inc bc
 8135+D640 23               inc hl
 8136+D641                  ;2,
 8137+D641 0A               ld a,(bc)
 8138+D642 56               ld d,(hl)
 8139+D643 B2               or d
 8140+D644 77               ld (hl),a
 8141+D645 03               inc bc
 8142+D646 23               inc hl
 8143+D647                  ;3,
 8144+D647 0A               ld a,(bc)
 8145+D648 56               ld d,(hl)
 8146+D649 B2               or d
 8147+D64A 77               ld (hl),a
 8148+D64B 03               inc bc
 8149+D64C 23               inc hl
 8150+D64D                  ;4,
 8151+D64D 0A               ld a,(bc)
 8152+D64E 56               ld d,(hl)
 8153+D64F B2               or d
 8154+D650 77               ld (hl),a
 8155+D651 03               inc bc
 8156+D652 23               inc hl
 8157+D653                  ;5,
 8158+D653 0A               ld a,(bc)
 8159+D654 56               ld d,(hl)
 8160+D655 B2               or d
 8161+D656 77               ld (hl),a
 8162+D657 03               inc bc
 8163+D658 11 17 00         ld de,BUFFER_WINDOW_WIDTH-5
 8164+D65B 19               add hl,de ;increment HL pointer by wwidth
 8165+D65C                  ;0,5
 8166+D65C 0A               ld a,(bc)
 8167+D65D 56               ld d,(hl)
 8168+D65E B2               or d
 8169+D65F 77               ld (hl),a
 8170+D660 03               inc bc
 8171+D661 23               inc hl
 8172+D662                  ;1,
 8173+D662 0A               ld a,(bc)
 8174+D663 56               ld d,(hl)
 8175+D664 B2               or d
 8176+D665 77               ld (hl),a
 8177+D666 03               inc bc
 8178+D667 23               inc hl
 8179+D668                  ;2,
 8180+D668 0A               ld a,(bc)
 8181+D669 56               ld d,(hl)
 8182+D66A B2               or d
 8183+D66B 77               ld (hl),a
 8184+D66C 03               inc bc
 8185+D66D 23               inc hl
 8186+D66E                  ;3,
 8187+D66E 0A               ld a,(bc)
 8188+D66F 56               ld d,(hl)
 8189+D670 B2               or d
 8190+D671 77               ld (hl),a
 8191+D672 03               inc bc
 8192+D673 23               inc hl
 8193+D674                  ;4,
 8194+D674 0A               ld a,(bc)
 8195+D675 56               ld d,(hl)
 8196+D676 B2               or d
 8197+D677 77               ld (hl),a
 8198+D678 03               inc bc
 8199+D679 23               inc hl
 8200+D67A                  ;5,
 8201+D67A 0A               ld a,(bc)
 8202+D67B 56               ld d,(hl)
 8203+D67C B2               or d
 8204+D67D 77               ld (hl),a
 8205+D67E 03               inc bc
 8206+D67F 11 17 00         ld de,BUFFER_WINDOW_WIDTH-5
 8207+D682 19               add hl,de ;increment HL pointer by wwidth
 8208+D683                  ;0,6
 8209+D683 0A               ld a,(bc)
 8210+D684 56               ld d,(hl)
 8211+D685 B2               or d
 8212+D686 77               ld (hl),a
 8213+D687 03               inc bc
 8214+D688 23               inc hl
 8215+D689                  ;1,
 8216+D689 0A               ld a,(bc)
 8217+D68A 56               ld d,(hl)
 8218+D68B B2               or d
 8219+D68C 77               ld (hl),a
 8220+D68D 03               inc bc
 8221+D68E 23               inc hl
 8222+D68F                  ;2,
 8223+D68F 0A               ld a,(bc)
 8224+D690 56               ld d,(hl)
 8225+D691 B2               or d
 8226+D692 77               ld (hl),a
 8227+D693 03               inc bc
 8228+D694 23               inc hl
 8229+D695                  ;3,
 8230+D695 0A               ld a,(bc)
 8231+D696 56               ld d,(hl)
 8232+D697 B2               or d
 8233+D698 77               ld (hl),a
 8234+D699 03               inc bc
 8235+D69A 23               inc hl
 8236+D69B                  ;4,
 8237+D69B 0A               ld a,(bc)
 8238+D69C 56               ld d,(hl)
 8239+D69D B2               or d
 8240+D69E 77               ld (hl),a
 8241+D69F 03               inc bc
 8242+D6A0 23               inc hl
 8243+D6A1                  ;5,
 8244+D6A1 0A               ld a,(bc)
 8245+D6A2 56               ld d,(hl)
 8246+D6A3 B2               or d
 8247+D6A4 77               ld (hl),a
 8248+D6A5 03               inc bc
 8249+D6A6 11 17 00         ld de,BUFFER_WINDOW_WIDTH-5
 8250+D6A9 19               add hl,de ;increment HL pointer by wwidth
 8251+D6AA                  ;0,7
 8252+D6AA 0A               ld a,(bc)
 8253+D6AB 56               ld d,(hl)
 8254+D6AC B2               or d
 8255+D6AD 77               ld (hl),a
 8256+D6AE 03               inc bc
 8257+D6AF 23               inc hl
 8258+D6B0                  ;1,
 8259+D6B0 0A               ld a,(bc)
 8260+D6B1 56               ld d,(hl)
 8261+D6B2 B2               or d
 8262+D6B3 77               ld (hl),a
 8263+D6B4 03               inc bc
 8264+D6B5 23               inc hl
 8265+D6B6                  ;2,
 8266+D6B6 0A               ld a,(bc)
 8267+D6B7 56               ld d,(hl)
 8268+D6B8 B2               or d
 8269+D6B9 77               ld (hl),a
 8270+D6BA 03               inc bc
 8271+D6BB 23               inc hl
 8272+D6BC                  ;3,
 8273+D6BC 0A               ld a,(bc)
 8274+D6BD 56               ld d,(hl)
 8275+D6BE B2               or d
 8276+D6BF 77               ld (hl),a
 8277+D6C0 03               inc bc
 8278+D6C1 23               inc hl
 8279+D6C2                  ;4,
 8280+D6C2 0A               ld a,(bc)
 8281+D6C3 56               ld d,(hl)
 8282+D6C4 B2               or d
 8283+D6C5 77               ld (hl),a
 8284+D6C6 03               inc bc
 8285+D6C7 23               inc hl
 8286+D6C8                  ;5,
 8287+D6C8 0A               ld a,(bc)
 8288+D6C9 56               ld d,(hl)
 8289+D6CA B2               or d
 8290+D6CB 77               ld (hl),a
 8291+D6CC 03               inc bc
 8292+D6CD 11 17 00         ld de,BUFFER_WINDOW_WIDTH-5
 8293+D6D0 19               add hl,de ;increment HL pointer by wwidth
 8294+D6D1                  ;0,8
 8295+D6D1 0A               ld a,(bc)
 8296+D6D2 56               ld d,(hl)
 8297+D6D3 B2               or d
 8298+D6D4 77               ld (hl),a
 8299+D6D5 03               inc bc
 8300+D6D6 23               inc hl
 8301+D6D7                  ;1,
 8302+D6D7 0A               ld a,(bc)
 8303+D6D8 56               ld d,(hl)
 8304+D6D9 B2               or d
 8305+D6DA 77               ld (hl),a
 8306+D6DB 03               inc bc
 8307+D6DC 23               inc hl
 8308+D6DD                  ;2,
 8309+D6DD 0A               ld a,(bc)
 8310+D6DE 56               ld d,(hl)
 8311+D6DF B2               or d
 8312+D6E0 77               ld (hl),a
 8313+D6E1 03               inc bc
 8314+D6E2 23               inc hl
 8315+D6E3                  ;3,
 8316+D6E3 0A               ld a,(bc)
 8317+D6E4 56               ld d,(hl)
 8318+D6E5 B2               or d
 8319+D6E6 77               ld (hl),a
 8320+D6E7 03               inc bc
 8321+D6E8 23               inc hl
 8322+D6E9                  ;4,
 8323+D6E9 0A               ld a,(bc)
 8324+D6EA 56               ld d,(hl)
 8325+D6EB B2               or d
 8326+D6EC 77               ld (hl),a
 8327+D6ED 03               inc bc
 8328+D6EE 23               inc hl
 8329+D6EF                  ;5,
 8330+D6EF 0A               ld a,(bc)
 8331+D6F0 56               ld d,(hl)
 8332+D6F1 B2               or d
 8333+D6F2 77               ld (hl),a
 8334+D6F3 03               inc bc
 8335+D6F4 11 17 00         ld de,BUFFER_WINDOW_WIDTH-5
 8336+D6F7 19               add hl,de ;increment HL pointer by wwidth
 8337+D6F8                  ;0,9
 8338+D6F8 0A               ld a,(bc)
 8339+D6F9 56               ld d,(hl)
 8340+D6FA B2               or d
 8341+D6FB 77               ld (hl),a
 8342+D6FC 03               inc bc
 8343+D6FD 23               inc hl
 8344+D6FE                  ;1,
 8345+D6FE 0A               ld a,(bc)
 8346+D6FF 56               ld d,(hl)
 8347+D700 B2               or d
 8348+D701 77               ld (hl),a
 8349+D702 03               inc bc
 8350+D703 23               inc hl
 8351+D704                  ;2,
 8352+D704 0A               ld a,(bc)
 8353+D705 56               ld d,(hl)
 8354+D706 B2               or d
 8355+D707 77               ld (hl),a
 8356+D708 03               inc bc
 8357+D709 23               inc hl
 8358+D70A                  ;3,
 8359+D70A 0A               ld a,(bc)
 8360+D70B 56               ld d,(hl)
 8361+D70C B2               or d
 8362+D70D 77               ld (hl),a
 8363+D70E 03               inc bc
 8364+D70F 23               inc hl
 8365+D710                  ;4,
 8366+D710 0A               ld a,(bc)
 8367+D711 56               ld d,(hl)
 8368+D712 B2               or d
 8369+D713 77               ld (hl),a
 8370+D714 03               inc bc
 8371+D715 23               inc hl
 8372+D716                  ;5,
 8373+D716 0A               ld a,(bc)
 8374+D717 56               ld d,(hl)
 8375+D718 B2               or d
 8376+D719 77               ld (hl),a
 8377+D71A 03               inc bc
 8378+D71B 11 17 00         ld de,BUFFER_WINDOW_WIDTH-5
 8379+D71E 19               add hl,de ;increment HL pointer by wwidth
 8380+D71F
 8381+D71F
 8382+D71F
 8383+D71F
 8384+D71F
 8385+D71F
 8386+D71F                  ;0,0    ;;;;;;20
 8387+D71F 0A               ld a,(bc)
 8388+D720 56               ld d,(hl)
 8389+D721 B2               or d
 8390+D722 77               ld (hl),a
 8391+D723 03               inc bc
 8392+D724 23               inc hl
 8393+D725                  ;1,
 8394+D725 0A               ld a,(bc)
 8395+D726 56               ld d,(hl)
 8396+D727 B2               or d
 8397+D728 77               ld (hl),a
 8398+D729 03               inc bc
 8399+D72A 23               inc hl
 8400+D72B                  ;2,
 8401+D72B 0A               ld a,(bc)
 8402+D72C 56               ld d,(hl)
 8403+D72D B2               or d
 8404+D72E 77               ld (hl),a
 8405+D72F 03               inc bc
 8406+D730 23               inc hl
 8407+D731                  ;3,
 8408+D731 0A               ld a,(bc)
 8409+D732 56               ld d,(hl)
 8410+D733 B2               or d
 8411+D734 77               ld (hl),a
 8412+D735 03               inc bc
 8413+D736 23               inc hl
 8414+D737                  ;4,
 8415+D737 0A               ld a,(bc)
 8416+D738 56               ld d,(hl)
 8417+D739 B2               or d
 8418+D73A 77               ld (hl),a
 8419+D73B 03               inc bc
 8420+D73C 23               inc hl
 8421+D73D                  ;5,
 8422+D73D 0A               ld a,(bc)
 8423+D73E 56               ld d,(hl)
 8424+D73F B2               or d
 8425+D740 77               ld (hl),a
 8426+D741 03               inc bc
 8427+D742 11 17 00         ld de,BUFFER_WINDOW_WIDTH-5
 8428+D745 19               add hl,de ;increment HL pointer by wwidth
 8429+D746                  ;0,1
 8430+D746 0A               ld a,(bc)
 8431+D747 56               ld d,(hl)
 8432+D748 B2               or d
 8433+D749 77               ld (hl),a
 8434+D74A 03               inc bc
 8435+D74B 23               inc hl
 8436+D74C                  ;1,
 8437+D74C 0A               ld a,(bc)
 8438+D74D 56               ld d,(hl)
 8439+D74E B2               or d
 8440+D74F 77               ld (hl),a
 8441+D750 03               inc bc
 8442+D751 23               inc hl
 8443+D752                  ;2,
 8444+D752 0A               ld a,(bc)
 8445+D753 56               ld d,(hl)
 8446+D754 B2               or d
 8447+D755 77               ld (hl),a
 8448+D756 03               inc bc
 8449+D757 23               inc hl
 8450+D758                  ;3,
 8451+D758 0A               ld a,(bc)
 8452+D759 56               ld d,(hl)
 8453+D75A B2               or d
 8454+D75B 77               ld (hl),a
 8455+D75C 03               inc bc
 8456+D75D 23               inc hl
 8457+D75E                  ;4,
 8458+D75E 0A               ld a,(bc)
 8459+D75F 56               ld d,(hl)
 8460+D760 B2               or d
 8461+D761 77               ld (hl),a
 8462+D762 03               inc bc
 8463+D763 23               inc hl
 8464+D764                  ;5,
 8465+D764 0A               ld a,(bc)
 8466+D765 56               ld d,(hl)
 8467+D766 B2               or d
 8468+D767 77               ld (hl),a
 8469+D768 03               inc bc
 8470+D769 11 17 00         ld de,BUFFER_WINDOW_WIDTH-5
 8471+D76C 19               add hl,de ;increment HL pointer by wwidth
 8472+D76D                  ;0,2
 8473+D76D 0A               ld a,(bc)
 8474+D76E 56               ld d,(hl)
 8475+D76F B2               or d
 8476+D770 77               ld (hl),a
 8477+D771 03               inc bc
 8478+D772 23               inc hl
 8479+D773                  ;1,
 8480+D773 0A               ld a,(bc)
 8481+D774 56               ld d,(hl)
 8482+D775 B2               or d
 8483+D776 77               ld (hl),a
 8484+D777 03               inc bc
 8485+D778 23               inc hl
 8486+D779                  ;2,
 8487+D779 0A               ld a,(bc)
 8488+D77A 56               ld d,(hl)
 8489+D77B B2               or d
 8490+D77C 77               ld (hl),a
 8491+D77D 03               inc bc
 8492+D77E 23               inc hl
 8493+D77F                  ;3,
 8494+D77F 0A               ld a,(bc)
 8495+D780 56               ld d,(hl)
 8496+D781 B2               or d
 8497+D782 77               ld (hl),a
 8498+D783 03               inc bc
 8499+D784 23               inc hl
 8500+D785                  ;4,
 8501+D785 0A               ld a,(bc)
 8502+D786 56               ld d,(hl)
 8503+D787 B2               or d
 8504+D788 77               ld (hl),a
 8505+D789 03               inc bc
 8506+D78A 23               inc hl
 8507+D78B                  ;5,
 8508+D78B 0A               ld a,(bc)
 8509+D78C 56               ld d,(hl)
 8510+D78D B2               or d
 8511+D78E 77               ld (hl),a
 8512+D78F 03               inc bc
 8513+D790 11 17 00         ld de,BUFFER_WINDOW_WIDTH-5
 8514+D793 19               add hl,de ;increment HL pointer by wwidth
 8515+D794                  ;0,3
 8516+D794 0A               ld a,(bc)
 8517+D795 56               ld d,(hl)
 8518+D796 B2               or d
 8519+D797 77               ld (hl),a
 8520+D798 03               inc bc
 8521+D799 23               inc hl
 8522+D79A                  ;1,
 8523+D79A 0A               ld a,(bc)
 8524+D79B 56               ld d,(hl)
 8525+D79C B2               or d
 8526+D79D 77               ld (hl),a
 8527+D79E 03               inc bc
 8528+D79F 23               inc hl
 8529+D7A0                  ;2,
 8530+D7A0 0A               ld a,(bc)
 8531+D7A1 56               ld d,(hl)
 8532+D7A2 B2               or d
 8533+D7A3 77               ld (hl),a
 8534+D7A4 03               inc bc
 8535+D7A5 23               inc hl
 8536+D7A6                  ;3,
 8537+D7A6 0A               ld a,(bc)
 8538+D7A7 56               ld d,(hl)
 8539+D7A8 B2               or d
 8540+D7A9 77               ld (hl),a
 8541+D7AA 03               inc bc
 8542+D7AB 23               inc hl
 8543+D7AC                  ;4,
 8544+D7AC 0A               ld a,(bc)
 8545+D7AD 56               ld d,(hl)
 8546+D7AE B2               or d
 8547+D7AF 77               ld (hl),a
 8548+D7B0 03               inc bc
 8549+D7B1 23               inc hl
 8550+D7B2                  ;5,
 8551+D7B2 0A               ld a,(bc)
 8552+D7B3 56               ld d,(hl)
 8553+D7B4 B2               or d
 8554+D7B5 77               ld (hl),a
 8555+D7B6 C9               ret
 8556+D7B7
 8557+D7B7
 8558+D7B7
 8559+D7B7
 8560+D7B7
 8561+D7B7
 8562+D7B7
 8563+D7B7
 8564+D7B7
 8565+D7B7
 8566+D7B7
 8567+D7B7
 8568+D7B7
 8569+D7B7
 8570+D7B7
 8571+D7B7
 8572+D7B7
 8573+D7B7
 8574+D7B7
 8575+D7B7
 8576+D7B7              ;;Window Width of 24....
 8577+D7B7              ;INPUTS:
 8578+D7B7              ;wwidth=24
 8579+D7B7              ;BC=sprite pointer
 8580+D7B7              ;DE=xy
 8581+D7B7              drawsprite40_8:
 8582+D7B7 21 00 00         ld hl,0
 8583+D7BA 7B               ld a,e
 8584+D7BB 6F               ld l,a
 8585+D7BC 29               add hl,hl ;HL= y*2
 8586+D7BD 29               add hl,hl ;HL= y*4
 8587+D7BE D5               push de
 8588+D7BF E5               push hl
 8589+D7C0 D1               pop de ;DE=y*4
 8590+D7C1 29               add hl,hl ;HL= y*8
 8591+D7C2 C5               push bc
 8592+D7C3 E5               push hl
 8593+D7C4 C1               pop bc ;BC=y*8
 8594+D7C5 29               add hl,hl
 8595+D7C6 09               add hl,bc ;HL=y*24
 8596+D7C7 19               add hl,de ;HL=y*28
 8597+D7C8 C1               pop bc
 8598+D7C9 D1               pop de
 8599+D7CA 5A               ld e,d
 8600+D7CB 16 00            ld d,0
 8601+D7CD 19               add hl,de ;HL+=x
 8602+D7CE 11 00 80         ld de,GAME_WINDOW_START
 8603+D7D1 19               add hl,de ;HL+=memstart
 8604+D7D2                  ;start drawing bytes...
 8605+D7D2                  ;0,0    ;;;;;;0
 8606+D7D2 0A               ld a,(bc)
 8607+D7D3 77               ld (hl),a
 8608+D7D4 03               inc bc
 8609+D7D5 23               inc hl
 8610+D7D6                  ;1,
 8611+D7D6 0A               ld a,(bc)
 8612+D7D7 77               ld (hl),a
 8613+D7D8 03               inc bc
 8614+D7D9 23               inc hl
 8615+D7DA                  ;2,
 8616+D7DA 0A               ld a,(bc)
 8617+D7DB 77               ld (hl),a
 8618+D7DC 03               inc bc
 8619+D7DD 23               inc hl
 8620+D7DE                  ;3,
 8621+D7DE 0A               ld a,(bc)
 8622+D7DF 77               ld (hl),a
 8623+D7E0 03               inc bc
 8624+D7E1 23               inc hl
 8625+D7E2                  ;4,
 8626+D7E2 0A               ld a,(bc)
 8627+D7E3 77               ld (hl),a
 8628+D7E4 03               inc bc
 8629+D7E5 11 18 00         ld de,BUFFER_WINDOW_WIDTH-4
 8630+D7E8 19               add hl,de ;increment HL pointer by wwidth
 8631+D7E9
 8632+D7E9                  ;0,0    ;;;;;;1
 8633+D7E9 0A               ld a,(bc)
 8634+D7EA 77               ld (hl),a
 8635+D7EB 03               inc bc
 8636+D7EC 23               inc hl
 8637+D7ED                  ;1,
 8638+D7ED 0A               ld a,(bc)
 8639+D7EE 77               ld (hl),a
 8640+D7EF 03               inc bc
 8641+D7F0 23               inc hl
 8642+D7F1                  ;2,
 8643+D7F1 0A               ld a,(bc)
 8644+D7F2 77               ld (hl),a
 8645+D7F3 03               inc bc
 8646+D7F4 23               inc hl
 8647+D7F5                  ;3,
 8648+D7F5 0A               ld a,(bc)
 8649+D7F6 77               ld (hl),a
 8650+D7F7 03               inc bc
 8651+D7F8 23               inc hl
 8652+D7F9                  ;4,
 8653+D7F9 0A               ld a,(bc)
 8654+D7FA 77               ld (hl),a
 8655+D7FB 03               inc bc
 8656+D7FC 11 18 00         ld de,BUFFER_WINDOW_WIDTH-4
 8657+D7FF 19               add hl,de ;increment HL pointer by wwidth
 8658+D800
 8659+D800                  ;0,0    ;;;;;;2
 8660+D800 0A               ld a,(bc)
 8661+D801 77               ld (hl),a
 8662+D802 03               inc bc
 8663+D803 23               inc hl
 8664+D804                  ;1,
 8665+D804 0A               ld a,(bc)
 8666+D805 77               ld (hl),a
 8667+D806 03               inc bc
 8668+D807 23               inc hl
 8669+D808                  ;2,
 8670+D808 0A               ld a,(bc)
 8671+D809 77               ld (hl),a
 8672+D80A 03               inc bc
 8673+D80B 23               inc hl
 8674+D80C                  ;3,
 8675+D80C 0A               ld a,(bc)
 8676+D80D 77               ld (hl),a
 8677+D80E 03               inc bc
 8678+D80F 23               inc hl
 8679+D810                  ;4,
 8680+D810 0A               ld a,(bc)
 8681+D811 77               ld (hl),a
 8682+D812 03               inc bc
 8683+D813 11 18 00         ld de,BUFFER_WINDOW_WIDTH-4
 8684+D816 19               add hl,de ;increment HL pointer by wwidth
 8685+D817
 8686+D817                  ;0,0    ;;;;;;3
 8687+D817 0A               ld a,(bc)
 8688+D818 77               ld (hl),a
 8689+D819 03               inc bc
 8690+D81A 23               inc hl
 8691+D81B                  ;1,
 8692+D81B 0A               ld a,(bc)
 8693+D81C 77               ld (hl),a
 8694+D81D 03               inc bc
 8695+D81E 23               inc hl
 8696+D81F                  ;2,
 8697+D81F 0A               ld a,(bc)
 8698+D820 77               ld (hl),a
 8699+D821 03               inc bc
 8700+D822 23               inc hl
 8701+D823                  ;3,
 8702+D823 0A               ld a,(bc)
 8703+D824 77               ld (hl),a
 8704+D825 03               inc bc
 8705+D826 23               inc hl
 8706+D827                  ;4,
 8707+D827 0A               ld a,(bc)
 8708+D828 77               ld (hl),a
 8709+D829 03               inc bc
 8710+D82A 11 18 00         ld de,BUFFER_WINDOW_WIDTH-4
 8711+D82D 19               add hl,de ;increment HL pointer by wwidth
 8712+D82E
 8713+D82E                  ;0,0    ;;;;;;4
 8714+D82E 0A               ld a,(bc)
 8715+D82F 77               ld (hl),a
 8716+D830 03               inc bc
 8717+D831 23               inc hl
 8718+D832                  ;1,
 8719+D832 0A               ld a,(bc)
 8720+D833 77               ld (hl),a
 8721+D834 03               inc bc
 8722+D835 23               inc hl
 8723+D836                  ;2,
 8724+D836 0A               ld a,(bc)
 8725+D837 77               ld (hl),a
 8726+D838 03               inc bc
 8727+D839 23               inc hl
 8728+D83A                  ;3,
 8729+D83A 0A               ld a,(bc)
 8730+D83B 77               ld (hl),a
 8731+D83C 03               inc bc
 8732+D83D 23               inc hl
 8733+D83E                  ;4,
 8734+D83E 0A               ld a,(bc)
 8735+D83F 77               ld (hl),a
 8736+D840 03               inc bc
 8737+D841 11 18 00         ld de,BUFFER_WINDOW_WIDTH-4
 8738+D844 19               add hl,de ;increment HL pointer by wwidth
 8739+D845
 8740+D845                  ;0,0    ;;;;;;5
 8741+D845 0A               ld a,(bc)
 8742+D846 77               ld (hl),a
 8743+D847 03               inc bc
 8744+D848 23               inc hl
 8745+D849                  ;1,
 8746+D849 0A               ld a,(bc)
 8747+D84A 77               ld (hl),a
 8748+D84B 03               inc bc
 8749+D84C 23               inc hl
 8750+D84D                  ;2,
 8751+D84D 0A               ld a,(bc)
 8752+D84E 77               ld (hl),a
 8753+D84F 03               inc bc
 8754+D850 23               inc hl
 8755+D851                  ;3,
 8756+D851 0A               ld a,(bc)
 8757+D852 77               ld (hl),a
 8758+D853 03               inc bc
 8759+D854 23               inc hl
 8760+D855                  ;4,
 8761+D855 0A               ld a,(bc)
 8762+D856 77               ld (hl),a
 8763+D857 03               inc bc
 8764+D858 11 18 00         ld de,BUFFER_WINDOW_WIDTH-4
 8765+D85B 19               add hl,de ;increment HL pointer by wwidth
 8766+D85C
 8767+D85C                  ;0,0    ;;;;;;6
 8768+D85C 0A               ld a,(bc)
 8769+D85D 77               ld (hl),a
 8770+D85E 03               inc bc
 8771+D85F 23               inc hl
 8772+D860                  ;1,
 8773+D860 0A               ld a,(bc)
 8774+D861 77               ld (hl),a
 8775+D862 03               inc bc
 8776+D863 23               inc hl
 8777+D864                  ;2,
 8778+D864 0A               ld a,(bc)
 8779+D865 77               ld (hl),a
 8780+D866 03               inc bc
 8781+D867 23               inc hl
 8782+D868                  ;3,
 8783+D868 0A               ld a,(bc)
 8784+D869 77               ld (hl),a
 8785+D86A 03               inc bc
 8786+D86B 23               inc hl
 8787+D86C                  ;4,
 8788+D86C 0A               ld a,(bc)
 8789+D86D 77               ld (hl),a
 8790+D86E 03               inc bc
 8791+D86F 11 18 00         ld de,BUFFER_WINDOW_WIDTH-4
 8792+D872 19               add hl,de ;increment HL pointer by wwidth
 8793+D873
 8794+D873                  ;0,0    ;;;;;;7
 8795+D873 0A               ld a,(bc)
 8796+D874 77               ld (hl),a
 8797+D875 03               inc bc
 8798+D876 23               inc hl
 8799+D877                  ;1,
 8800+D877 0A               ld a,(bc)
 8801+D878 77               ld (hl),a
 8802+D879 03               inc bc
 8803+D87A 23               inc hl
 8804+D87B                  ;2,
 8805+D87B 0A               ld a,(bc)
 8806+D87C 77               ld (hl),a
 8807+D87D 03               inc bc
 8808+D87E 23               inc hl
 8809+D87F                  ;3,
 8810+D87F 0A               ld a,(bc)
 8811+D880 77               ld (hl),a
 8812+D881 03               inc bc
 8813+D882 23               inc hl
 8814+D883                  ;4,
 8815+D883 0A               ld a,(bc)
 8816+D884 77               ld (hl),a
 8817+D885
 8818+D885 C9               ret
 8819+D886
 8820+D886
 8821+D886
 8822+D886
 8823+D886
 8824+D886
 8825+D886
 8826+D886
 8827+D886
 8828+D886
 8829+D886
 8830+D886
 8831+D886
 8832+D886
 8833+D886
 8834+D886
 8835+D886
 8836+D886
 8837+D886
 8838+D886
 8839+D886
 8840+D886
 8841+D886
 8842+D886
 8843+D886
 8844+D886
 8845+D886
 8846+D886
 8847+D886
 8848+D886
 8849+D886
 8850+D886
 8851+D886
 8852+D886
 8853+D886
 8854+D886
 8855+D886
 8856+D886
 8857+D886
 8858+D886
 8859+D886
 8860+D886
 8861+D886
 8862+D886
 8863+D886
 8864+D886
 8865+D886
 8866+D886
 8867+D886
 8868+D886
 8869+D886
 8870+D886
 8871+D886
 8872+D886
 8873+D886
 8874+D886
 8875+D886
 8876+D886
 8877+D886
 8878+D886
 8879+D886
 8880+D886
 8881+D886
 8882+D886
 8883+D886
 8884+D886
 8885+D886
 8886+D886
 8887+D886
 8888+D886
 8889+D886
 8890+D886
 8891+D886
 8892+D886
 8893+D886
 8894+D886
 8895+D886              ;;Window Width of 24....
 8896+D886              ;INPUTS:
 8897+D886              ;wwidth=24
 8898+D886              ;BC=sprite pointer
 8899+D886              ;DE=xy
 8900+D886              drawsprite48_32:
 8901+D886 21 00 00         ld hl,0
 8902+D889 7B               ld a,e
 8903+D88A 6F               ld l,a
 8904+D88B 29               add hl,hl ;HL= y*2
 8905+D88C 29               add hl,hl ;HL= y*4
 8906+D88D D5               push de
 8907+D88E E5               push hl
 8908+D88F D1               pop de ;DE=y*4
 8909+D890 29               add hl,hl ;HL= y*8
 8910+D891 C5               push bc
 8911+D892 E5               push hl
 8912+D893 C1               pop bc ;BC=y*8
 8913+D894 29               add hl,hl
 8914+D895 09               add hl,bc ;HL=y*24
 8915+D896 19               add hl,de ;HL=y*28
 8916+D897 C1               pop bc
 8917+D898 D1               pop de
 8918+D899 5A               ld e,d
 8919+D89A 16 00            ld d,0
 8920+D89C 19               add hl,de ;HL+=x
 8921+D89D 11 00 80         ld de,GAME_WINDOW_START
 8922+D8A0 19               add hl,de ;HL+=memstart
 8923+D8A1                  ;start drawing bytes...
 8924+D8A1                  ;0,0    ;;;;;;0
 8925+D8A1 0A               ld a,(bc)
 8926+D8A2 77               ld (hl),a
 8927+D8A3 03               inc bc
 8928+D8A4 23               inc hl
 8929+D8A5                  ;1,
 8930+D8A5 0A               ld a,(bc)
 8931+D8A6 77               ld (hl),a
 8932+D8A7 03               inc bc
 8933+D8A8 23               inc hl
 8934+D8A9                  ;2,
 8935+D8A9 0A               ld a,(bc)
 8936+D8AA 77               ld (hl),a
 8937+D8AB 03               inc bc
 8938+D8AC 23               inc hl
 8939+D8AD                  ;3,
 8940+D8AD 0A               ld a,(bc)
 8941+D8AE 77               ld (hl),a
 8942+D8AF 03               inc bc
 8943+D8B0 23               inc hl
 8944+D8B1                  ;4,
 8945+D8B1 0A               ld a,(bc)
 8946+D8B2 77               ld (hl),a
 8947+D8B3 03               inc bc
 8948+D8B4 23               inc hl
 8949+D8B5                  ;5,
 8950+D8B5 0A               ld a,(bc)
 8951+D8B6 77               ld (hl),a
 8952+D8B7 03               inc bc
 8953+D8B8 11 17 00         ld de,BUFFER_WINDOW_WIDTH-5
 8954+D8BB 19               add hl,de ;increment HL pointer by wwidth
 8955+D8BC                  ;0,1
 8956+D8BC 0A               ld a,(bc)
 8957+D8BD 77               ld (hl),a
 8958+D8BE 03               inc bc
 8959+D8BF 23               inc hl
 8960+D8C0                  ;1,
 8961+D8C0 0A               ld a,(bc)
 8962+D8C1 77               ld (hl),a
 8963+D8C2 03               inc bc
 8964+D8C3 23               inc hl
 8965+D8C4                  ;2,
 8966+D8C4 0A               ld a,(bc)
 8967+D8C5 77               ld (hl),a
 8968+D8C6 03               inc bc
 8969+D8C7 23               inc hl
 8970+D8C8                  ;3,
 8971+D8C8 0A               ld a,(bc)
 8972+D8C9 77               ld (hl),a
 8973+D8CA 03               inc bc
 8974+D8CB 23               inc hl
 8975+D8CC                  ;4,
 8976+D8CC 0A               ld a,(bc)
 8977+D8CD 77               ld (hl),a
 8978+D8CE 03               inc bc
 8979+D8CF 23               inc hl
 8980+D8D0                  ;5,
 8981+D8D0 0A               ld a,(bc)
 8982+D8D1 77               ld (hl),a
 8983+D8D2 03               inc bc
 8984+D8D3 11 17 00         ld de,BUFFER_WINDOW_WIDTH-5
 8985+D8D6 19               add hl,de ;increment HL pointer by wwidth
 8986+D8D7                  ;0,2
 8987+D8D7 0A               ld a,(bc)
 8988+D8D8 77               ld (hl),a
 8989+D8D9 03               inc bc
 8990+D8DA 23               inc hl
 8991+D8DB                  ;1,
 8992+D8DB 0A               ld a,(bc)
 8993+D8DC 77               ld (hl),a
 8994+D8DD 03               inc bc
 8995+D8DE 23               inc hl
 8996+D8DF                  ;2,
 8997+D8DF 0A               ld a,(bc)
 8998+D8E0 77               ld (hl),a
 8999+D8E1 03               inc bc
 9000+D8E2 23               inc hl
 9001+D8E3                  ;3,
 9002+D8E3 0A               ld a,(bc)
 9003+D8E4 77               ld (hl),a
 9004+D8E5 03               inc bc
 9005+D8E6 23               inc hl
 9006+D8E7                  ;4,
 9007+D8E7 0A               ld a,(bc)
 9008+D8E8 77               ld (hl),a
 9009+D8E9 03               inc bc
 9010+D8EA 23               inc hl
 9011+D8EB                  ;5,
 9012+D8EB 0A               ld a,(bc)
 9013+D8EC 77               ld (hl),a
 9014+D8ED 03               inc bc
 9015+D8EE 11 17 00         ld de,BUFFER_WINDOW_WIDTH-5
 9016+D8F1 19               add hl,de ;increment HL pointer by wwidth
 9017+D8F2                  ;0,3
 9018+D8F2 0A               ld a,(bc)
 9019+D8F3 77               ld (hl),a
 9020+D8F4 03               inc bc
 9021+D8F5 23               inc hl
 9022+D8F6                  ;1,
 9023+D8F6 0A               ld a,(bc)
 9024+D8F7 77               ld (hl),a
 9025+D8F8 03               inc bc
 9026+D8F9 23               inc hl
 9027+D8FA                  ;2,
 9028+D8FA 0A               ld a,(bc)
 9029+D8FB 77               ld (hl),a
 9030+D8FC 03               inc bc
 9031+D8FD 23               inc hl
 9032+D8FE                  ;3,
 9033+D8FE 0A               ld a,(bc)
 9034+D8FF 77               ld (hl),a
 9035+D900 03               inc bc
 9036+D901 23               inc hl
 9037+D902                  ;4,
 9038+D902 0A               ld a,(bc)
 9039+D903 77               ld (hl),a
 9040+D904 03               inc bc
 9041+D905 23               inc hl
 9042+D906                  ;5,
 9043+D906 0A               ld a,(bc)
 9044+D907 77               ld (hl),a
 9045+D908 03               inc bc
 9046+D909 11 17 00         ld de,BUFFER_WINDOW_WIDTH-5
 9047+D90C 19               add hl,de ;increment HL pointer by wwidth
 9048+D90D                  ;0,4
 9049+D90D 0A               ld a,(bc)
 9050+D90E 77               ld (hl),a
 9051+D90F 03               inc bc
 9052+D910 23               inc hl
 9053+D911                  ;1,
 9054+D911 0A               ld a,(bc)
 9055+D912 77               ld (hl),a
 9056+D913 03               inc bc
 9057+D914 23               inc hl
 9058+D915                  ;2,
 9059+D915 0A               ld a,(bc)
 9060+D916 77               ld (hl),a
 9061+D917 03               inc bc
 9062+D918 23               inc hl
 9063+D919                  ;3,
 9064+D919 0A               ld a,(bc)
 9065+D91A 77               ld (hl),a
 9066+D91B 03               inc bc
 9067+D91C 23               inc hl
 9068+D91D                  ;4,
 9069+D91D 0A               ld a,(bc)
 9070+D91E 77               ld (hl),a
 9071+D91F 03               inc bc
 9072+D920 23               inc hl
 9073+D921                  ;5,
 9074+D921 0A               ld a,(bc)
 9075+D922 77               ld (hl),a
 9076+D923 03               inc bc
 9077+D924 11 17 00         ld de,BUFFER_WINDOW_WIDTH-5
 9078+D927 19               add hl,de ;increment HL pointer by wwidth
 9079+D928                  ;0,5
 9080+D928 0A               ld a,(bc)
 9081+D929 77               ld (hl),a
 9082+D92A 03               inc bc
 9083+D92B 23               inc hl
 9084+D92C                  ;1,
 9085+D92C 0A               ld a,(bc)
 9086+D92D 77               ld (hl),a
 9087+D92E 03               inc bc
 9088+D92F 23               inc hl
 9089+D930                  ;2,
 9090+D930 0A               ld a,(bc)
 9091+D931 77               ld (hl),a
 9092+D932 03               inc bc
 9093+D933 23               inc hl
 9094+D934                  ;3,
 9095+D934 0A               ld a,(bc)
 9096+D935 77               ld (hl),a
 9097+D936 03               inc bc
 9098+D937 23               inc hl
 9099+D938                  ;4,
 9100+D938 0A               ld a,(bc)
 9101+D939 77               ld (hl),a
 9102+D93A 03               inc bc
 9103+D93B 23               inc hl
 9104+D93C                  ;5,
 9105+D93C 0A               ld a,(bc)
 9106+D93D 77               ld (hl),a
 9107+D93E 03               inc bc
 9108+D93F 11 17 00         ld de,BUFFER_WINDOW_WIDTH-5
 9109+D942 19               add hl,de ;increment HL pointer by wwidth
 9110+D943                  ;0,6
 9111+D943 0A               ld a,(bc)
 9112+D944 77               ld (hl),a
 9113+D945 03               inc bc
 9114+D946 23               inc hl
 9115+D947                  ;1,
 9116+D947 0A               ld a,(bc)
 9117+D948 77               ld (hl),a
 9118+D949 03               inc bc
 9119+D94A 23               inc hl
 9120+D94B                  ;2,
 9121+D94B 0A               ld a,(bc)
 9122+D94C 77               ld (hl),a
 9123+D94D 03               inc bc
 9124+D94E 23               inc hl
 9125+D94F                  ;3,
 9126+D94F 0A               ld a,(bc)
 9127+D950 77               ld (hl),a
 9128+D951 03               inc bc
 9129+D952 23               inc hl
 9130+D953                  ;4,
 9131+D953 0A               ld a,(bc)
 9132+D954 77               ld (hl),a
 9133+D955 03               inc bc
 9134+D956 23               inc hl
 9135+D957                  ;5,
 9136+D957 0A               ld a,(bc)
 9137+D958 77               ld (hl),a
 9138+D959 03               inc bc
 9139+D95A 11 17 00         ld de,BUFFER_WINDOW_WIDTH-5
 9140+D95D 19               add hl,de ;increment HL pointer by wwidth
 9141+D95E                  ;0,7
 9142+D95E 0A               ld a,(bc)
 9143+D95F 77               ld (hl),a
 9144+D960 03               inc bc
 9145+D961 23               inc hl
 9146+D962                  ;1,
 9147+D962 0A               ld a,(bc)
 9148+D963 77               ld (hl),a
 9149+D964 03               inc bc
 9150+D965 23               inc hl
 9151+D966                  ;2,
 9152+D966 0A               ld a,(bc)
 9153+D967 77               ld (hl),a
 9154+D968 03               inc bc
 9155+D969 23               inc hl
 9156+D96A                  ;3,
 9157+D96A 0A               ld a,(bc)
 9158+D96B 77               ld (hl),a
 9159+D96C 03               inc bc
 9160+D96D 23               inc hl
 9161+D96E                  ;4,
 9162+D96E 0A               ld a,(bc)
 9163+D96F 77               ld (hl),a
 9164+D970 03               inc bc
 9165+D971 23               inc hl
 9166+D972                  ;5,
 9167+D972 0A               ld a,(bc)
 9168+D973 77               ld (hl),a
 9169+D974 03               inc bc
 9170+D975 11 17 00         ld de,BUFFER_WINDOW_WIDTH-5
 9171+D978 19               add hl,de ;increment HL pointer by wwidth
 9172+D979                  ;0,8
 9173+D979 0A               ld a,(bc)
 9174+D97A 77               ld (hl),a
 9175+D97B 03               inc bc
 9176+D97C 23               inc hl
 9177+D97D                  ;1,
 9178+D97D 0A               ld a,(bc)
 9179+D97E 77               ld (hl),a
 9180+D97F 03               inc bc
 9181+D980 23               inc hl
 9182+D981                  ;2,
 9183+D981 0A               ld a,(bc)
 9184+D982 77               ld (hl),a
 9185+D983 03               inc bc
 9186+D984 23               inc hl
 9187+D985                  ;3,
 9188+D985 0A               ld a,(bc)
 9189+D986 77               ld (hl),a
 9190+D987 03               inc bc
 9191+D988 23               inc hl
 9192+D989                  ;4,
 9193+D989 0A               ld a,(bc)
 9194+D98A 77               ld (hl),a
 9195+D98B 03               inc bc
 9196+D98C 23               inc hl
 9197+D98D                  ;5,
 9198+D98D 0A               ld a,(bc)
 9199+D98E 77               ld (hl),a
 9200+D98F 03               inc bc
 9201+D990 11 17 00         ld de,BUFFER_WINDOW_WIDTH-5
 9202+D993 19               add hl,de ;increment HL pointer by wwidth
 9203+D994                  ;0,9
 9204+D994 0A               ld a,(bc)
 9205+D995 77               ld (hl),a
 9206+D996 03               inc bc
 9207+D997 23               inc hl
 9208+D998                  ;1,
 9209+D998 0A               ld a,(bc)
 9210+D999 77               ld (hl),a
 9211+D99A 03               inc bc
 9212+D99B 23               inc hl
 9213+D99C                  ;2,
 9214+D99C 0A               ld a,(bc)
 9215+D99D 77               ld (hl),a
 9216+D99E 03               inc bc
 9217+D99F 23               inc hl
 9218+D9A0                  ;3,
 9219+D9A0 0A               ld a,(bc)
 9220+D9A1 77               ld (hl),a
 9221+D9A2 03               inc bc
 9222+D9A3 23               inc hl
 9223+D9A4                  ;4,
 9224+D9A4 0A               ld a,(bc)
 9225+D9A5 77               ld (hl),a
 9226+D9A6 03               inc bc
 9227+D9A7 23               inc hl
 9228+D9A8                  ;5,
 9229+D9A8 0A               ld a,(bc)
 9230+D9A9 77               ld (hl),a
 9231+D9AA 03               inc bc
 9232+D9AB 11 17 00         ld de,BUFFER_WINDOW_WIDTH-5
 9233+D9AE 19               add hl,de ;increment HL pointer by wwidth
 9234+D9AF
 9235+D9AF
 9236+D9AF
 9237+D9AF
 9238+D9AF
 9239+D9AF
 9240+D9AF
 9241+D9AF                  ;0,0    ;;;;;;10
 9242+D9AF 0A               ld a,(bc)
 9243+D9B0 77               ld (hl),a
 9244+D9B1 03               inc bc
 9245+D9B2 23               inc hl
 9246+D9B3                  ;1,
 9247+D9B3 0A               ld a,(bc)
 9248+D9B4 77               ld (hl),a
 9249+D9B5 03               inc bc
 9250+D9B6 23               inc hl
 9251+D9B7                  ;2,
 9252+D9B7 0A               ld a,(bc)
 9253+D9B8 77               ld (hl),a
 9254+D9B9 03               inc bc
 9255+D9BA 23               inc hl
 9256+D9BB                  ;3,
 9257+D9BB 0A               ld a,(bc)
 9258+D9BC 77               ld (hl),a
 9259+D9BD 03               inc bc
 9260+D9BE 23               inc hl
 9261+D9BF                  ;4,
 9262+D9BF 0A               ld a,(bc)
 9263+D9C0 77               ld (hl),a
 9264+D9C1 03               inc bc
 9265+D9C2 23               inc hl
 9266+D9C3                  ;5,
 9267+D9C3 0A               ld a,(bc)
 9268+D9C4 77               ld (hl),a
 9269+D9C5 03               inc bc
 9270+D9C6 11 17 00         ld de,BUFFER_WINDOW_WIDTH-5
 9271+D9C9 19               add hl,de ;increment HL pointer by wwidth
 9272+D9CA                  ;0,1
 9273+D9CA 0A               ld a,(bc)
 9274+D9CB 77               ld (hl),a
 9275+D9CC 03               inc bc
 9276+D9CD 23               inc hl
 9277+D9CE                  ;1,
 9278+D9CE 0A               ld a,(bc)
 9279+D9CF 77               ld (hl),a
 9280+D9D0 03               inc bc
 9281+D9D1 23               inc hl
 9282+D9D2                  ;2,
 9283+D9D2 0A               ld a,(bc)
 9284+D9D3 77               ld (hl),a
 9285+D9D4 03               inc bc
 9286+D9D5 23               inc hl
 9287+D9D6                  ;3,
 9288+D9D6 0A               ld a,(bc)
 9289+D9D7 77               ld (hl),a
 9290+D9D8 03               inc bc
 9291+D9D9 23               inc hl
 9292+D9DA                  ;4,
 9293+D9DA 0A               ld a,(bc)
 9294+D9DB 77               ld (hl),a
 9295+D9DC 03               inc bc
 9296+D9DD 23               inc hl
 9297+D9DE                  ;5,
 9298+D9DE 0A               ld a,(bc)
 9299+D9DF 77               ld (hl),a
 9300+D9E0 03               inc bc
 9301+D9E1 11 17 00         ld de,BUFFER_WINDOW_WIDTH-5
 9302+D9E4 19               add hl,de ;increment HL pointer by wwidth
 9303+D9E5                  ;0,2
 9304+D9E5 0A               ld a,(bc)
 9305+D9E6 77               ld (hl),a
 9306+D9E7 03               inc bc
 9307+D9E8 23               inc hl
 9308+D9E9                  ;1,
 9309+D9E9 0A               ld a,(bc)
 9310+D9EA 77               ld (hl),a
 9311+D9EB 03               inc bc
 9312+D9EC 23               inc hl
 9313+D9ED                  ;2,
 9314+D9ED 0A               ld a,(bc)
 9315+D9EE 77               ld (hl),a
 9316+D9EF 03               inc bc
 9317+D9F0 23               inc hl
 9318+D9F1                  ;3,
 9319+D9F1 0A               ld a,(bc)
 9320+D9F2 77               ld (hl),a
 9321+D9F3 03               inc bc
 9322+D9F4 23               inc hl
 9323+D9F5                  ;4,
 9324+D9F5 0A               ld a,(bc)
 9325+D9F6 77               ld (hl),a
 9326+D9F7 03               inc bc
 9327+D9F8 23               inc hl
 9328+D9F9                  ;5,
 9329+D9F9 0A               ld a,(bc)
 9330+D9FA 77               ld (hl),a
 9331+D9FB 03               inc bc
 9332+D9FC 11 17 00         ld de,BUFFER_WINDOW_WIDTH-5
 9333+D9FF 19               add hl,de ;increment HL pointer by wwidth
 9334+DA00                  ;0,3
 9335+DA00 0A               ld a,(bc)
 9336+DA01 77               ld (hl),a
 9337+DA02 03               inc bc
 9338+DA03 23               inc hl
 9339+DA04                  ;1,
 9340+DA04 0A               ld a,(bc)
 9341+DA05 77               ld (hl),a
 9342+DA06 03               inc bc
 9343+DA07 23               inc hl
 9344+DA08                  ;2,
 9345+DA08 0A               ld a,(bc)
 9346+DA09 77               ld (hl),a
 9347+DA0A 03               inc bc
 9348+DA0B 23               inc hl
 9349+DA0C                  ;3,
 9350+DA0C 0A               ld a,(bc)
 9351+DA0D 77               ld (hl),a
 9352+DA0E 03               inc bc
 9353+DA0F 23               inc hl
 9354+DA10                  ;4,
 9355+DA10 0A               ld a,(bc)
 9356+DA11 77               ld (hl),a
 9357+DA12 03               inc bc
 9358+DA13 23               inc hl
 9359+DA14                  ;5,
 9360+DA14 0A               ld a,(bc)
 9361+DA15 77               ld (hl),a
 9362+DA16 03               inc bc
 9363+DA17 11 17 00         ld de,BUFFER_WINDOW_WIDTH-5
 9364+DA1A 19               add hl,de ;increment HL pointer by wwidth
 9365+DA1B                  ;0,4
 9366+DA1B 0A               ld a,(bc)
 9367+DA1C 77               ld (hl),a
 9368+DA1D 03               inc bc
 9369+DA1E 23               inc hl
 9370+DA1F                  ;1,
 9371+DA1F 0A               ld a,(bc)
 9372+DA20 77               ld (hl),a
 9373+DA21 03               inc bc
 9374+DA22 23               inc hl
 9375+DA23                  ;2,
 9376+DA23 0A               ld a,(bc)
 9377+DA24 77               ld (hl),a
 9378+DA25 03               inc bc
 9379+DA26 23               inc hl
 9380+DA27                  ;3,
 9381+DA27 0A               ld a,(bc)
 9382+DA28 77               ld (hl),a
 9383+DA29 03               inc bc
 9384+DA2A 23               inc hl
 9385+DA2B                  ;4,
 9386+DA2B 0A               ld a,(bc)
 9387+DA2C 77               ld (hl),a
 9388+DA2D 03               inc bc
 9389+DA2E 23               inc hl
 9390+DA2F                  ;5,
 9391+DA2F 0A               ld a,(bc)
 9392+DA30 77               ld (hl),a
 9393+DA31 03               inc bc
 9394+DA32 11 17 00         ld de,BUFFER_WINDOW_WIDTH-5
 9395+DA35 19               add hl,de ;increment HL pointer by wwidth
 9396+DA36                  ;0,5
 9397+DA36 0A               ld a,(bc)
 9398+DA37 77               ld (hl),a
 9399+DA38 03               inc bc
 9400+DA39 23               inc hl
 9401+DA3A                  ;1,
 9402+DA3A 0A               ld a,(bc)
 9403+DA3B 77               ld (hl),a
 9404+DA3C 03               inc bc
 9405+DA3D 23               inc hl
 9406+DA3E                  ;2,
 9407+DA3E 0A               ld a,(bc)
 9408+DA3F 77               ld (hl),a
 9409+DA40 03               inc bc
 9410+DA41 23               inc hl
 9411+DA42                  ;3,
 9412+DA42 0A               ld a,(bc)
 9413+DA43 77               ld (hl),a
 9414+DA44 03               inc bc
 9415+DA45 23               inc hl
 9416+DA46                  ;4,
 9417+DA46 0A               ld a,(bc)
 9418+DA47 77               ld (hl),a
 9419+DA48 03               inc bc
 9420+DA49 23               inc hl
 9421+DA4A                  ;5,
 9422+DA4A 0A               ld a,(bc)
 9423+DA4B 77               ld (hl),a
 9424+DA4C 03               inc bc
 9425+DA4D 11 17 00         ld de,BUFFER_WINDOW_WIDTH-5
 9426+DA50 19               add hl,de ;increment HL pointer by wwidth
 9427+DA51                  ;0,6
 9428+DA51 0A               ld a,(bc)
 9429+DA52 77               ld (hl),a
 9430+DA53 03               inc bc
 9431+DA54 23               inc hl
 9432+DA55                  ;1,
 9433+DA55 0A               ld a,(bc)
 9434+DA56 77               ld (hl),a
 9435+DA57 03               inc bc
 9436+DA58 23               inc hl
 9437+DA59                  ;2,
 9438+DA59 0A               ld a,(bc)
 9439+DA5A 77               ld (hl),a
 9440+DA5B 03               inc bc
 9441+DA5C 23               inc hl
 9442+DA5D                  ;3,
 9443+DA5D 0A               ld a,(bc)
 9444+DA5E 77               ld (hl),a
 9445+DA5F 03               inc bc
 9446+DA60 23               inc hl
 9447+DA61                  ;4,
 9448+DA61 0A               ld a,(bc)
 9449+DA62 77               ld (hl),a
 9450+DA63 03               inc bc
 9451+DA64 23               inc hl
 9452+DA65                  ;5,
 9453+DA65 0A               ld a,(bc)
 9454+DA66 77               ld (hl),a
 9455+DA67 03               inc bc
 9456+DA68 11 17 00         ld de,BUFFER_WINDOW_WIDTH-5
 9457+DA6B 19               add hl,de ;increment HL pointer by wwidth
 9458+DA6C                  ;0,7
 9459+DA6C 0A               ld a,(bc)
 9460+DA6D 77               ld (hl),a
 9461+DA6E 03               inc bc
 9462+DA6F 23               inc hl
 9463+DA70                  ;1,
 9464+DA70 0A               ld a,(bc)
 9465+DA71 77               ld (hl),a
 9466+DA72 03               inc bc
 9467+DA73 23               inc hl
 9468+DA74                  ;2,
 9469+DA74 0A               ld a,(bc)
 9470+DA75 77               ld (hl),a
 9471+DA76 03               inc bc
 9472+DA77 23               inc hl
 9473+DA78                  ;3,
 9474+DA78 0A               ld a,(bc)
 9475+DA79 77               ld (hl),a
 9476+DA7A 03               inc bc
 9477+DA7B 23               inc hl
 9478+DA7C                  ;4,
 9479+DA7C 0A               ld a,(bc)
 9480+DA7D 77               ld (hl),a
 9481+DA7E 03               inc bc
 9482+DA7F 23               inc hl
 9483+DA80                  ;5,
 9484+DA80 0A               ld a,(bc)
 9485+DA81 77               ld (hl),a
 9486+DA82 03               inc bc
 9487+DA83 11 17 00         ld de,BUFFER_WINDOW_WIDTH-5
 9488+DA86 19               add hl,de ;increment HL pointer by wwidth
 9489+DA87                  ;0,8
 9490+DA87 0A               ld a,(bc)
 9491+DA88 77               ld (hl),a
 9492+DA89 03               inc bc
 9493+DA8A 23               inc hl
 9494+DA8B                  ;1,
 9495+DA8B 0A               ld a,(bc)
 9496+DA8C 77               ld (hl),a
 9497+DA8D 03               inc bc
 9498+DA8E 23               inc hl
 9499+DA8F                  ;2,
 9500+DA8F 0A               ld a,(bc)
 9501+DA90 77               ld (hl),a
 9502+DA91 03               inc bc
 9503+DA92 23               inc hl
 9504+DA93                  ;3,
 9505+DA93 0A               ld a,(bc)
 9506+DA94 77               ld (hl),a
 9507+DA95 03               inc bc
 9508+DA96 23               inc hl
 9509+DA97                  ;4,
 9510+DA97 0A               ld a,(bc)
 9511+DA98 77               ld (hl),a
 9512+DA99 03               inc bc
 9513+DA9A 23               inc hl
 9514+DA9B                  ;5,
 9515+DA9B 0A               ld a,(bc)
 9516+DA9C 77               ld (hl),a
 9517+DA9D 03               inc bc
 9518+DA9E 11 17 00         ld de,BUFFER_WINDOW_WIDTH-5
 9519+DAA1 19               add hl,de ;increment HL pointer by wwidth
 9520+DAA2                  ;0,9
 9521+DAA2 0A               ld a,(bc)
 9522+DAA3 77               ld (hl),a
 9523+DAA4 03               inc bc
 9524+DAA5 23               inc hl
 9525+DAA6                  ;1,
 9526+DAA6 0A               ld a,(bc)
 9527+DAA7 77               ld (hl),a
 9528+DAA8 03               inc bc
 9529+DAA9 23               inc hl
 9530+DAAA                  ;2,
 9531+DAAA 0A               ld a,(bc)
 9532+DAAB 77               ld (hl),a
 9533+DAAC 03               inc bc
 9534+DAAD 23               inc hl
 9535+DAAE                  ;3,
 9536+DAAE 0A               ld a,(bc)
 9537+DAAF 77               ld (hl),a
 9538+DAB0 03               inc bc
 9539+DAB1 23               inc hl
 9540+DAB2                  ;4,
 9541+DAB2 0A               ld a,(bc)
 9542+DAB3 77               ld (hl),a
 9543+DAB4 03               inc bc
 9544+DAB5 23               inc hl
 9545+DAB6                  ;5,
 9546+DAB6 0A               ld a,(bc)
 9547+DAB7 77               ld (hl),a
 9548+DAB8 03               inc bc
 9549+DAB9 11 17 00         ld de,BUFFER_WINDOW_WIDTH-5
 9550+DABC 19               add hl,de ;increment HL pointer by wwidth
 9551+DABD
 9552+DABD
 9553+DABD
 9554+DABD
 9555+DABD
 9556+DABD
 9557+DABD                  ;0,0    ;;;;;;20
 9558+DABD 0A               ld a,(bc)
 9559+DABE 77               ld (hl),a
 9560+DABF 03               inc bc
 9561+DAC0 23               inc hl
 9562+DAC1                  ;1,
 9563+DAC1 0A               ld a,(bc)
 9564+DAC2 77               ld (hl),a
 9565+DAC3 03               inc bc
 9566+DAC4 23               inc hl
 9567+DAC5                  ;2,
 9568+DAC5 0A               ld a,(bc)
 9569+DAC6 77               ld (hl),a
 9570+DAC7 03               inc bc
 9571+DAC8 23               inc hl
 9572+DAC9                  ;3,
 9573+DAC9 0A               ld a,(bc)
 9574+DACA 77               ld (hl),a
 9575+DACB 03               inc bc
 9576+DACC 23               inc hl
 9577+DACD                  ;4,
 9578+DACD 0A               ld a,(bc)
 9579+DACE 77               ld (hl),a
 9580+DACF 03               inc bc
 9581+DAD0 23               inc hl
 9582+DAD1                  ;5,
 9583+DAD1 0A               ld a,(bc)
 9584+DAD2 77               ld (hl),a
 9585+DAD3 03               inc bc
 9586+DAD4 11 17 00         ld de,BUFFER_WINDOW_WIDTH-5
 9587+DAD7 19               add hl,de ;increment HL pointer by wwidth
 9588+DAD8                  ;0,1
 9589+DAD8 0A               ld a,(bc)
 9590+DAD9 77               ld (hl),a
 9591+DADA 03               inc bc
 9592+DADB 23               inc hl
 9593+DADC                  ;1,
 9594+DADC 0A               ld a,(bc)
 9595+DADD 77               ld (hl),a
 9596+DADE 03               inc bc
 9597+DADF 23               inc hl
 9598+DAE0                  ;2,
 9599+DAE0 0A               ld a,(bc)
 9600+DAE1 77               ld (hl),a
 9601+DAE2 03               inc bc
 9602+DAE3 23               inc hl
 9603+DAE4                  ;3,
 9604+DAE4 0A               ld a,(bc)
 9605+DAE5 77               ld (hl),a
 9606+DAE6 03               inc bc
 9607+DAE7 23               inc hl
 9608+DAE8                  ;4,
 9609+DAE8 0A               ld a,(bc)
 9610+DAE9 77               ld (hl),a
 9611+DAEA 03               inc bc
 9612+DAEB 23               inc hl
 9613+DAEC                  ;5,
 9614+DAEC 0A               ld a,(bc)
 9615+DAED 77               ld (hl),a
 9616+DAEE 03               inc bc
 9617+DAEF 11 17 00         ld de,BUFFER_WINDOW_WIDTH-5
 9618+DAF2 19               add hl,de ;increment HL pointer by wwidth
 9619+DAF3                  ;0,2
 9620+DAF3 0A               ld a,(bc)
 9621+DAF4 77               ld (hl),a
 9622+DAF5 03               inc bc
 9623+DAF6 23               inc hl
 9624+DAF7                  ;1,
 9625+DAF7 0A               ld a,(bc)
 9626+DAF8 77               ld (hl),a
 9627+DAF9 03               inc bc
 9628+DAFA 23               inc hl
 9629+DAFB                  ;2,
 9630+DAFB 0A               ld a,(bc)
 9631+DAFC 77               ld (hl),a
 9632+DAFD 03               inc bc
 9633+DAFE 23               inc hl
 9634+DAFF                  ;3,
 9635+DAFF 0A               ld a,(bc)
 9636+DB00 77               ld (hl),a
 9637+DB01 03               inc bc
 9638+DB02 23               inc hl
 9639+DB03                  ;4,
 9640+DB03 0A               ld a,(bc)
 9641+DB04 77               ld (hl),a
 9642+DB05 03               inc bc
 9643+DB06 23               inc hl
 9644+DB07                  ;5,
 9645+DB07 0A               ld a,(bc)
 9646+DB08 77               ld (hl),a
 9647+DB09 03               inc bc
 9648+DB0A 11 17 00         ld de,BUFFER_WINDOW_WIDTH-5
 9649+DB0D 19               add hl,de ;increment HL pointer by wwidth
 9650+DB0E                  ;0,3
 9651+DB0E 0A               ld a,(bc)
 9652+DB0F 77               ld (hl),a
 9653+DB10 03               inc bc
 9654+DB11 23               inc hl
 9655+DB12                  ;1,
 9656+DB12 0A               ld a,(bc)
 9657+DB13 77               ld (hl),a
 9658+DB14 03               inc bc
 9659+DB15 23               inc hl
 9660+DB16                  ;2,
 9661+DB16 0A               ld a,(bc)
 9662+DB17 77               ld (hl),a
 9663+DB18 03               inc bc
 9664+DB19 23               inc hl
 9665+DB1A                  ;3,
 9666+DB1A 0A               ld a,(bc)
 9667+DB1B 77               ld (hl),a
 9668+DB1C 03               inc bc
 9669+DB1D 23               inc hl
 9670+DB1E                  ;4,
 9671+DB1E 0A               ld a,(bc)
 9672+DB1F 77               ld (hl),a
 9673+DB20 03               inc bc
 9674+DB21 23               inc hl
 9675+DB22                  ;5,
 9676+DB22 0A               ld a,(bc)
 9677+DB23 77               ld (hl),a
 9678+DB24 03               inc bc
 9679+DB25 11 17 00         ld de,BUFFER_WINDOW_WIDTH-5
 9680+DB28 19               add hl,de ;increment HL pointer by wwidth
 9681+DB29                  ;0,4
 9682+DB29 0A               ld a,(bc)
 9683+DB2A 77               ld (hl),a
 9684+DB2B 03               inc bc
 9685+DB2C 23               inc hl
 9686+DB2D                  ;1,
 9687+DB2D 0A               ld a,(bc)
 9688+DB2E 77               ld (hl),a
 9689+DB2F 03               inc bc
 9690+DB30 23               inc hl
 9691+DB31                  ;2,
 9692+DB31 0A               ld a,(bc)
 9693+DB32 77               ld (hl),a
 9694+DB33 03               inc bc
 9695+DB34 23               inc hl
 9696+DB35                  ;3,
 9697+DB35 0A               ld a,(bc)
 9698+DB36 77               ld (hl),a
 9699+DB37 03               inc bc
 9700+DB38 23               inc hl
 9701+DB39                  ;4,
 9702+DB39 0A               ld a,(bc)
 9703+DB3A 77               ld (hl),a
 9704+DB3B 03               inc bc
 9705+DB3C 23               inc hl
 9706+DB3D                  ;5,
 9707+DB3D 0A               ld a,(bc)
 9708+DB3E 77               ld (hl),a
 9709+DB3F 03               inc bc
 9710+DB40 11 17 00         ld de,BUFFER_WINDOW_WIDTH-5
 9711+DB43 19               add hl,de ;increment HL pointer by wwidth
 9712+DB44                  ;0,5
 9713+DB44 0A               ld a,(bc)
 9714+DB45 77               ld (hl),a
 9715+DB46 03               inc bc
 9716+DB47 23               inc hl
 9717+DB48                  ;1,
 9718+DB48 0A               ld a,(bc)
 9719+DB49 77               ld (hl),a
 9720+DB4A 03               inc bc
 9721+DB4B 23               inc hl
 9722+DB4C                  ;2,
 9723+DB4C 0A               ld a,(bc)
 9724+DB4D 77               ld (hl),a
 9725+DB4E 03               inc bc
 9726+DB4F 23               inc hl
 9727+DB50                  ;3,
 9728+DB50 0A               ld a,(bc)
 9729+DB51 77               ld (hl),a
 9730+DB52 03               inc bc
 9731+DB53 23               inc hl
 9732+DB54                  ;4,
 9733+DB54 0A               ld a,(bc)
 9734+DB55 77               ld (hl),a
 9735+DB56 03               inc bc
 9736+DB57 23               inc hl
 9737+DB58                  ;5,
 9738+DB58 0A               ld a,(bc)
 9739+DB59 77               ld (hl),a
 9740+DB5A 03               inc bc
 9741+DB5B 11 17 00         ld de,BUFFER_WINDOW_WIDTH-5
 9742+DB5E 19               add hl,de ;increment HL pointer by wwidth
 9743+DB5F                  ;0,6
 9744+DB5F 0A               ld a,(bc)
 9745+DB60 77               ld (hl),a
 9746+DB61 03               inc bc
 9747+DB62 23               inc hl
 9748+DB63                  ;1,
 9749+DB63 0A               ld a,(bc)
 9750+DB64 77               ld (hl),a
 9751+DB65 03               inc bc
 9752+DB66 23               inc hl
 9753+DB67                  ;2,
 9754+DB67 0A               ld a,(bc)
 9755+DB68 77               ld (hl),a
 9756+DB69 03               inc bc
 9757+DB6A 23               inc hl
 9758+DB6B                  ;3,
 9759+DB6B 0A               ld a,(bc)
 9760+DB6C 77               ld (hl),a
 9761+DB6D 03               inc bc
 9762+DB6E 23               inc hl
 9763+DB6F                  ;4,
 9764+DB6F 0A               ld a,(bc)
 9765+DB70 77               ld (hl),a
 9766+DB71 03               inc bc
 9767+DB72 23               inc hl
 9768+DB73                  ;5,
 9769+DB73 0A               ld a,(bc)
 9770+DB74 77               ld (hl),a
 9771+DB75 03               inc bc
 9772+DB76 11 17 00         ld de,BUFFER_WINDOW_WIDTH-5
 9773+DB79 19               add hl,de ;increment HL pointer by wwidth
 9774+DB7A                  ;0,7
 9775+DB7A 0A               ld a,(bc)
 9776+DB7B 77               ld (hl),a
 9777+DB7C 03               inc bc
 9778+DB7D 23               inc hl
 9779+DB7E                  ;1,
 9780+DB7E 0A               ld a,(bc)
 9781+DB7F 77               ld (hl),a
 9782+DB80 03               inc bc
 9783+DB81 23               inc hl
 9784+DB82                  ;2,
 9785+DB82 0A               ld a,(bc)
 9786+DB83 77               ld (hl),a
 9787+DB84 03               inc bc
 9788+DB85 23               inc hl
 9789+DB86                  ;3,
 9790+DB86 0A               ld a,(bc)
 9791+DB87 77               ld (hl),a
 9792+DB88 03               inc bc
 9793+DB89 23               inc hl
 9794+DB8A                  ;4,
 9795+DB8A 0A               ld a,(bc)
 9796+DB8B 77               ld (hl),a
 9797+DB8C 03               inc bc
 9798+DB8D 23               inc hl
 9799+DB8E                  ;5,
 9800+DB8E 0A               ld a,(bc)
 9801+DB8F 77               ld (hl),a
 9802+DB90 03               inc bc
 9803+DB91 11 17 00         ld de,BUFFER_WINDOW_WIDTH-5
 9804+DB94 19               add hl,de ;increment HL pointer by wwidth
 9805+DB95                  ;0,8
 9806+DB95 0A               ld a,(bc)
 9807+DB96 77               ld (hl),a
 9808+DB97 03               inc bc
 9809+DB98 23               inc hl
 9810+DB99                  ;1,
 9811+DB99 0A               ld a,(bc)
 9812+DB9A 77               ld (hl),a
 9813+DB9B 03               inc bc
 9814+DB9C 23               inc hl
 9815+DB9D                  ;2,
 9816+DB9D 0A               ld a,(bc)
 9817+DB9E 77               ld (hl),a
 9818+DB9F 03               inc bc
 9819+DBA0 23               inc hl
 9820+DBA1                  ;3,
 9821+DBA1 0A               ld a,(bc)
 9822+DBA2 77               ld (hl),a
 9823+DBA3 03               inc bc
 9824+DBA4 23               inc hl
 9825+DBA5                  ;4,
 9826+DBA5 0A               ld a,(bc)
 9827+DBA6 77               ld (hl),a
 9828+DBA7 03               inc bc
 9829+DBA8 23               inc hl
 9830+DBA9                  ;5,
 9831+DBA9 0A               ld a,(bc)
 9832+DBAA 77               ld (hl),a
 9833+DBAB 03               inc bc
 9834+DBAC 11 17 00         ld de,BUFFER_WINDOW_WIDTH-5
 9835+DBAF 19               add hl,de ;increment HL pointer by wwidth
 9836+DBB0                  ;0,9
 9837+DBB0 0A               ld a,(bc)
 9838+DBB1 77               ld (hl),a
 9839+DBB2 03               inc bc
 9840+DBB3 23               inc hl
 9841+DBB4                  ;1,
 9842+DBB4 0A               ld a,(bc)
 9843+DBB5 77               ld (hl),a
 9844+DBB6 03               inc bc
 9845+DBB7 23               inc hl
 9846+DBB8                  ;2,
 9847+DBB8 0A               ld a,(bc)
 9848+DBB9 77               ld (hl),a
 9849+DBBA 03               inc bc
 9850+DBBB 23               inc hl
 9851+DBBC                  ;3,
 9852+DBBC 0A               ld a,(bc)
 9853+DBBD 77               ld (hl),a
 9854+DBBE 03               inc bc
 9855+DBBF 23               inc hl
 9856+DBC0                  ;4,
 9857+DBC0 0A               ld a,(bc)
 9858+DBC1 77               ld (hl),a
 9859+DBC2 03               inc bc
 9860+DBC3 23               inc hl
 9861+DBC4                  ;5,
 9862+DBC4 0A               ld a,(bc)
 9863+DBC5 77               ld (hl),a
 9864+DBC6 03               inc bc
 9865+DBC7 11 17 00         ld de,BUFFER_WINDOW_WIDTH-5
 9866+DBCA 19               add hl,de ;increment HL pointer by wwidth
 9867+DBCB                  ;0,30
 9868+DBCB 0A               ld a,(bc)
 9869+DBCC 77               ld (hl),a
 9870+DBCD 03               inc bc
 9871+DBCE 23               inc hl
 9872+DBCF                  ;1,
 9873+DBCF 0A               ld a,(bc)
 9874+DBD0 77               ld (hl),a
 9875+DBD1 03               inc bc
 9876+DBD2 23               inc hl
 9877+DBD3                  ;2,
 9878+DBD3 0A               ld a,(bc)
 9879+DBD4 77               ld (hl),a
 9880+DBD5 03               inc bc
 9881+DBD6 23               inc hl
 9882+DBD7                  ;3,
 9883+DBD7 0A               ld a,(bc)
 9884+DBD8 77               ld (hl),a
 9885+DBD9 03               inc bc
 9886+DBDA 23               inc hl
 9887+DBDB                  ;4,
 9888+DBDB 0A               ld a,(bc)
 9889+DBDC 77               ld (hl),a
 9890+DBDD 03               inc bc
 9891+DBDE 23               inc hl
 9892+DBDF                  ;5,
 9893+DBDF 0A               ld a,(bc)
 9894+DBE0 77               ld (hl),a
 9895+DBE1 03               inc bc
 9896+DBE2 11 17 00         ld de,BUFFER_WINDOW_WIDTH-5
 9897+DBE5 19               add hl,de ;increment HL pointer by wwidth
 9898+DBE6                  ;0,31
 9899+DBE6 0A               ld a,(bc)
 9900+DBE7 77               ld (hl),a
 9901+DBE8 03               inc bc
 9902+DBE9 23               inc hl
 9903+DBEA                  ;1,
 9904+DBEA 0A               ld a,(bc)
 9905+DBEB 77               ld (hl),a
 9906+DBEC 03               inc bc
 9907+DBED 23               inc hl
 9908+DBEE                  ;2,
 9909+DBEE 0A               ld a,(bc)
 9910+DBEF 77               ld (hl),a
 9911+DBF0 03               inc bc
 9912+DBF1 23               inc hl
 9913+DBF2                  ;3,
 9914+DBF2 0A               ld a,(bc)
 9915+DBF3 77               ld (hl),a
 9916+DBF4 03               inc bc
 9917+DBF5 23               inc hl
 9918+DBF6                  ;4,
 9919+DBF6 0A               ld a,(bc)
 9920+DBF7 77               ld (hl),a
 9921+DBF8 03               inc bc
 9922+DBF9 23               inc hl
 9923+DBFA                  ;5,
 9924+DBFA 0A               ld a,(bc)
 9925+DBFB 77               ld (hl),a
 9926+DBFC C9               ret
 9927+DBFD
 9928+DBFD
 9929+DBFD
 9930+DBFD
 9931+DBFD
 9932+DBFD              drawsprite72_48:
 9933+DBFD C5               push bc
 9934+DBFE 21 00 00         ld hl,0
 9935+DC01 7B               ld a,e
 9936+DC02 6F               ld l,a
 9937+DC03 29               add hl,hl ;HL= y*2
 9938+DC04 29               add hl,hl ;HL= y*4
 9939+DC05 D5               push de
 9940+DC06 E5               push hl
 9941+DC07 D1               pop de ;DE=y*4
 9942+DC08 29               add hl,hl ;HL= y*8
 9943+DC09 E5               push hl
 9944+DC0A C1               pop bc ;BC=y*8
 9945+DC0B 29               add hl,hl
 9946+DC0C 09               add hl,bc ;HL=y*24
 9947+DC0D 19               add hl,de ;HL=y*28
 9948+DC0E D1               pop de
 9949+DC0F 5A               ld e,d
 9950+DC10 16 00            ld d,0
 9951+DC12 19               add hl,de ;HL+=x
 9952+DC13 11 00 80         ld de,GAME_WINDOW_START
 9953+DC16 19               add hl,de ;HL+=memstart
 9954+DC17                  ;start drawing bytes...
 9955+DC17
 9956+DC17 C1               pop bc
 9957+DC18
 9958+DC18                  ;0,0    ;;;;;;0
 9959+DC18 0A               ld a,(bc)
 9960+DC19 77               ld (hl),a
 9961+DC1A 03               inc bc
 9962+DC1B 23               inc hl
 9963+DC1C                  ;1,
 9964+DC1C 0A               ld a,(bc)
 9965+DC1D 77               ld (hl),a
 9966+DC1E 03               inc bc
 9967+DC1F 23               inc hl
 9968+DC20                  ;2,
 9969+DC20 0A               ld a,(bc)
 9970+DC21 77               ld (hl),a
 9971+DC22 03               inc bc
 9972+DC23 23               inc hl
 9973+DC24                  ;3,
 9974+DC24 0A               ld a,(bc)
 9975+DC25 77               ld (hl),a
 9976+DC26 03               inc bc
 9977+DC27 23               inc hl
 9978+DC28                  ;4,
 9979+DC28 0A               ld a,(bc)
 9980+DC29 77               ld (hl),a
 9981+DC2A 03               inc bc
 9982+DC2B 23               inc hl
 9983+DC2C                  ;5,
 9984+DC2C 0A               ld a,(bc)
 9985+DC2D 77               ld (hl),a
 9986+DC2E 03               inc bc
 9987+DC2F 23               inc hl
 9988+DC30                  ;6
 9989+DC30 0A               ld a,(bc)
 9990+DC31 77               ld (hl),a
 9991+DC32 03               inc bc
 9992+DC33 23               inc hl
 9993+DC34                  ;7,
 9994+DC34 0A               ld a,(bc)
 9995+DC35 77               ld (hl),a
 9996+DC36 03               inc bc
 9997+DC37 23               inc hl
 9998+DC38                  ;8,
 9999+DC38 0A               ld a,(bc)
    0+DC39 77               ld (hl),a
    1+DC3A 03               inc bc
    2+DC3B 11 14 00         ld de,BUFFER_WINDOW_WIDTH-8
    3+DC3E 19               add hl,de ;increment HL pointer by wwidth
    4+DC3F
    5+DC3F                  ;0,0    ;;;;;;1
    6+DC3F 0A               ld a,(bc)
    7+DC40 77               ld (hl),a
    8+DC41 03               inc bc
    9+DC42 23               inc hl
   10+DC43                  ;1,
   11+DC43 0A               ld a,(bc)
   12+DC44 77               ld (hl),a
   13+DC45 03               inc bc
   14+DC46 23               inc hl
   15+DC47                  ;2,
   16+DC47 0A               ld a,(bc)
   17+DC48 77               ld (hl),a
   18+DC49 03               inc bc
   19+DC4A 23               inc hl
   20+DC4B                  ;3,
   21+DC4B 0A               ld a,(bc)
   22+DC4C 77               ld (hl),a
   23+DC4D 03               inc bc
   24+DC4E 23               inc hl
   25+DC4F                  ;4,
   26+DC4F 0A               ld a,(bc)
   27+DC50 77               ld (hl),a
   28+DC51 03               inc bc
   29+DC52 23               inc hl
   30+DC53                  ;5,
   31+DC53 0A               ld a,(bc)
   32+DC54 77               ld (hl),a
   33+DC55 03               inc bc
   34+DC56 23               inc hl
   35+DC57                  ;6
   36+DC57 0A               ld a,(bc)
   37+DC58 77               ld (hl),a
   38+DC59 03               inc bc
   39+DC5A 23               inc hl
   40+DC5B                  ;7,
   41+DC5B 0A               ld a,(bc)
   42+DC5C 77               ld (hl),a
   43+DC5D 03               inc bc
   44+DC5E 23               inc hl
   45+DC5F                  ;8,
   46+DC5F 0A               ld a,(bc)
   47+DC60 77               ld (hl),a
   48+DC61 03               inc bc
   49+DC62 11 14 00         ld de,BUFFER_WINDOW_WIDTH-8
   50+DC65 19               add hl,de ;increment HL pointer by wwidth
   51+DC66
   52+DC66                  ;0,0    ;;;;;;2
   53+DC66 0A               ld a,(bc)
   54+DC67 77               ld (hl),a
   55+DC68 03               inc bc
   56+DC69 23               inc hl
   57+DC6A                  ;1,
   58+DC6A 0A               ld a,(bc)
   59+DC6B 77               ld (hl),a
   60+DC6C 03               inc bc
   61+DC6D 23               inc hl
   62+DC6E                  ;2,
   63+DC6E 0A               ld a,(bc)
   64+DC6F 77               ld (hl),a
   65+DC70 03               inc bc
   66+DC71 23               inc hl
   67+DC72                  ;3,
   68+DC72 0A               ld a,(bc)
   69+DC73 77               ld (hl),a
   70+DC74 03               inc bc
   71+DC75 23               inc hl
   72+DC76                  ;4,
   73+DC76 0A               ld a,(bc)
   74+DC77 77               ld (hl),a
   75+DC78 03               inc bc
   76+DC79 23               inc hl
   77+DC7A                  ;5,
   78+DC7A 0A               ld a,(bc)
   79+DC7B 77               ld (hl),a
   80+DC7C 03               inc bc
   81+DC7D 23               inc hl
   82+DC7E                  ;6
   83+DC7E 0A               ld a,(bc)
   84+DC7F 77               ld (hl),a
   85+DC80 03               inc bc
   86+DC81 23               inc hl
   87+DC82                  ;7,
   88+DC82 0A               ld a,(bc)
   89+DC83 77               ld (hl),a
   90+DC84 03               inc bc
   91+DC85 23               inc hl
   92+DC86                  ;8,
   93+DC86 0A               ld a,(bc)
   94+DC87 77               ld (hl),a
   95+DC88 03               inc bc
   96+DC89 11 14 00         ld de,BUFFER_WINDOW_WIDTH-8
   97+DC8C 19               add hl,de ;increment HL pointer by wwidth
   98+DC8D
   99+DC8D                  ;0,0    ;;;;;;3
  100+DC8D 0A               ld a,(bc)
  101+DC8E 77               ld (hl),a
  102+DC8F 03               inc bc
  103+DC90 23               inc hl
  104+DC91                  ;1,
  105+DC91 0A               ld a,(bc)
  106+DC92 77               ld (hl),a
  107+DC93 03               inc bc
  108+DC94 23               inc hl
  109+DC95                  ;2,
  110+DC95 0A               ld a,(bc)
  111+DC96 77               ld (hl),a
  112+DC97 03               inc bc
  113+DC98 23               inc hl
  114+DC99                  ;3,
  115+DC99 0A               ld a,(bc)
  116+DC9A 77               ld (hl),a
  117+DC9B 03               inc bc
  118+DC9C 23               inc hl
  119+DC9D                  ;4,
  120+DC9D 0A               ld a,(bc)
  121+DC9E 77               ld (hl),a
  122+DC9F 03               inc bc
  123+DCA0 23               inc hl
  124+DCA1                  ;5,
  125+DCA1 0A               ld a,(bc)
  126+DCA2 77               ld (hl),a
  127+DCA3 03               inc bc
  128+DCA4 23               inc hl
  129+DCA5                  ;6
  130+DCA5 0A               ld a,(bc)
  131+DCA6 77               ld (hl),a
  132+DCA7 03               inc bc
  133+DCA8 23               inc hl
  134+DCA9                  ;7,
  135+DCA9 0A               ld a,(bc)
  136+DCAA 77               ld (hl),a
  137+DCAB 03               inc bc
  138+DCAC 23               inc hl
  139+DCAD                  ;8,
  140+DCAD 0A               ld a,(bc)
  141+DCAE 77               ld (hl),a
  142+DCAF 03               inc bc
  143+DCB0 11 14 00         ld de,BUFFER_WINDOW_WIDTH-8
  144+DCB3 19               add hl,de ;increment HL pointer by wwidth
  145+DCB4
  146+DCB4                  ;0,0    ;;;;;;4
  147+DCB4 0A               ld a,(bc)
  148+DCB5 77               ld (hl),a
  149+DCB6 03               inc bc
  150+DCB7 23               inc hl
  151+DCB8                  ;1,
  152+DCB8 0A               ld a,(bc)
  153+DCB9 77               ld (hl),a
  154+DCBA 03               inc bc
  155+DCBB 23               inc hl
  156+DCBC                  ;2,
  157+DCBC 0A               ld a,(bc)
  158+DCBD 77               ld (hl),a
  159+DCBE 03               inc bc
  160+DCBF 23               inc hl
  161+DCC0                  ;3,
  162+DCC0 0A               ld a,(bc)
  163+DCC1 77               ld (hl),a
  164+DCC2 03               inc bc
  165+DCC3 23               inc hl
  166+DCC4                  ;4,
  167+DCC4 0A               ld a,(bc)
  168+DCC5 77               ld (hl),a
  169+DCC6 03               inc bc
  170+DCC7 23               inc hl
  171+DCC8                  ;5,
  172+DCC8 0A               ld a,(bc)
  173+DCC9 77               ld (hl),a
  174+DCCA 03               inc bc
  175+DCCB 23               inc hl
  176+DCCC                  ;6
  177+DCCC 0A               ld a,(bc)
  178+DCCD 77               ld (hl),a
  179+DCCE 03               inc bc
  180+DCCF 23               inc hl
  181+DCD0                  ;7,
  182+DCD0 0A               ld a,(bc)
  183+DCD1 77               ld (hl),a
  184+DCD2 03               inc bc
  185+DCD3 23               inc hl
  186+DCD4                  ;8,
  187+DCD4 0A               ld a,(bc)
  188+DCD5 77               ld (hl),a
  189+DCD6 03               inc bc
  190+DCD7 11 14 00         ld de,BUFFER_WINDOW_WIDTH-8
  191+DCDA 19               add hl,de ;increment HL pointer by wwidth
  192+DCDB
  193+DCDB                  ;0,0    ;;;;;;5
  194+DCDB 0A               ld a,(bc)
  195+DCDC 77               ld (hl),a
  196+DCDD 03               inc bc
  197+DCDE 23               inc hl
  198+DCDF                  ;1,
  199+DCDF 0A               ld a,(bc)
  200+DCE0 77               ld (hl),a
  201+DCE1 03               inc bc
  202+DCE2 23               inc hl
  203+DCE3                  ;2,
  204+DCE3 0A               ld a,(bc)
  205+DCE4 77               ld (hl),a
  206+DCE5 03               inc bc
  207+DCE6 23               inc hl
  208+DCE7                  ;3,
  209+DCE7 0A               ld a,(bc)
  210+DCE8 77               ld (hl),a
  211+DCE9 03               inc bc
  212+DCEA 23               inc hl
  213+DCEB                  ;4,
  214+DCEB 0A               ld a,(bc)
  215+DCEC 77               ld (hl),a
  216+DCED 03               inc bc
  217+DCEE 23               inc hl
  218+DCEF                  ;5,
  219+DCEF 0A               ld a,(bc)
  220+DCF0 77               ld (hl),a
  221+DCF1 03               inc bc
  222+DCF2 23               inc hl
  223+DCF3                  ;6
  224+DCF3 0A               ld a,(bc)
  225+DCF4 77               ld (hl),a
  226+DCF5 03               inc bc
  227+DCF6 23               inc hl
  228+DCF7                  ;7,
  229+DCF7 0A               ld a,(bc)
  230+DCF8 77               ld (hl),a
  231+DCF9 03               inc bc
  232+DCFA 23               inc hl
  233+DCFB                  ;8,
  234+DCFB 0A               ld a,(bc)
  235+DCFC 77               ld (hl),a
  236+DCFD 03               inc bc
  237+DCFE 11 14 00         ld de,BUFFER_WINDOW_WIDTH-8
  238+DD01 19               add hl,de ;increment HL pointer by wwidth
  239+DD02
  240+DD02                  ;0,0    ;;;;;;6
  241+DD02 0A               ld a,(bc)
  242+DD03 77               ld (hl),a
  243+DD04 03               inc bc
  244+DD05 23               inc hl
  245+DD06                  ;1,
  246+DD06 0A               ld a,(bc)
  247+DD07 77               ld (hl),a
  248+DD08 03               inc bc
  249+DD09 23               inc hl
  250+DD0A                  ;2,
  251+DD0A 0A               ld a,(bc)
  252+DD0B 77               ld (hl),a
  253+DD0C 03               inc bc
  254+DD0D 23               inc hl
  255+DD0E                  ;3,
  256+DD0E 0A               ld a,(bc)
  257+DD0F 77               ld (hl),a
  258+DD10 03               inc bc
  259+DD11 23               inc hl
  260+DD12                  ;4,
  261+DD12 0A               ld a,(bc)
  262+DD13 77               ld (hl),a
  263+DD14 03               inc bc
  264+DD15 23               inc hl
  265+DD16                  ;5,
  266+DD16 0A               ld a,(bc)
  267+DD17 77               ld (hl),a
  268+DD18 03               inc bc
  269+DD19 23               inc hl
  270+DD1A                  ;6
  271+DD1A 0A               ld a,(bc)
  272+DD1B 77               ld (hl),a
  273+DD1C 03               inc bc
  274+DD1D 23               inc hl
  275+DD1E                  ;7,
  276+DD1E 0A               ld a,(bc)
  277+DD1F 77               ld (hl),a
  278+DD20 03               inc bc
  279+DD21 23               inc hl
  280+DD22                  ;8,
  281+DD22 0A               ld a,(bc)
  282+DD23 77               ld (hl),a
  283+DD24 03               inc bc
  284+DD25 11 14 00         ld de,BUFFER_WINDOW_WIDTH-8
  285+DD28 19               add hl,de ;increment HL pointer by wwidth
  286+DD29
  287+DD29                  ;0,0    ;;;;;;7
  288+DD29 0A               ld a,(bc)
  289+DD2A 77               ld (hl),a
  290+DD2B 03               inc bc
  291+DD2C 23               inc hl
  292+DD2D                  ;1,
  293+DD2D 0A               ld a,(bc)
  294+DD2E 77               ld (hl),a
  295+DD2F 03               inc bc
  296+DD30 23               inc hl
  297+DD31                  ;2,
  298+DD31 0A               ld a,(bc)
  299+DD32 77               ld (hl),a
  300+DD33 03               inc bc
  301+DD34 23               inc hl
  302+DD35                  ;3,
  303+DD35 0A               ld a,(bc)
  304+DD36 77               ld (hl),a
  305+DD37 03               inc bc
  306+DD38 23               inc hl
  307+DD39                  ;4,
  308+DD39 0A               ld a,(bc)
  309+DD3A 77               ld (hl),a
  310+DD3B 03               inc bc
  311+DD3C 23               inc hl
  312+DD3D                  ;5,
  313+DD3D 0A               ld a,(bc)
  314+DD3E 77               ld (hl),a
  315+DD3F 03               inc bc
  316+DD40 23               inc hl
  317+DD41                  ;6
  318+DD41 0A               ld a,(bc)
  319+DD42 77               ld (hl),a
  320+DD43 03               inc bc
  321+DD44 23               inc hl
  322+DD45                  ;7,
  323+DD45 0A               ld a,(bc)
  324+DD46 77               ld (hl),a
  325+DD47 03               inc bc
  326+DD48 23               inc hl
  327+DD49                  ;8,
  328+DD49 0A               ld a,(bc)
  329+DD4A 77               ld (hl),a
  330+DD4B 03               inc bc
  331+DD4C 11 14 00         ld de,BUFFER_WINDOW_WIDTH-8
  332+DD4F 19               add hl,de ;increment HL pointer by wwidth
  333+DD50
  334+DD50                  ;0,0    ;;;;;;8
  335+DD50 0A               ld a,(bc)
  336+DD51 77               ld (hl),a
  337+DD52 03               inc bc
  338+DD53 23               inc hl
  339+DD54                  ;1,
  340+DD54 0A               ld a,(bc)
  341+DD55 77               ld (hl),a
  342+DD56 03               inc bc
  343+DD57 23               inc hl
  344+DD58                  ;2,
  345+DD58 0A               ld a,(bc)
  346+DD59 77               ld (hl),a
  347+DD5A 03               inc bc
  348+DD5B 23               inc hl
  349+DD5C                  ;3,
  350+DD5C 0A               ld a,(bc)
  351+DD5D 77               ld (hl),a
  352+DD5E 03               inc bc
  353+DD5F 23               inc hl
  354+DD60                  ;4,
  355+DD60 0A               ld a,(bc)
  356+DD61 77               ld (hl),a
  357+DD62 03               inc bc
  358+DD63 23               inc hl
  359+DD64                  ;5,
  360+DD64 0A               ld a,(bc)
  361+DD65 77               ld (hl),a
  362+DD66 03               inc bc
  363+DD67 23               inc hl
  364+DD68                  ;6
  365+DD68 0A               ld a,(bc)
  366+DD69 77               ld (hl),a
  367+DD6A 03               inc bc
  368+DD6B 23               inc hl
  369+DD6C                  ;7,
  370+DD6C 0A               ld a,(bc)
  371+DD6D 77               ld (hl),a
  372+DD6E 03               inc bc
  373+DD6F 23               inc hl
  374+DD70                  ;8,
  375+DD70 0A               ld a,(bc)
  376+DD71 77               ld (hl),a
  377+DD72 03               inc bc
  378+DD73 11 14 00         ld de,BUFFER_WINDOW_WIDTH-8
  379+DD76 19               add hl,de ;increment HL pointer by wwidth
  380+DD77
  381+DD77                  ;0,0    ;;;;;;9
  382+DD77 0A               ld a,(bc)
  383+DD78 77               ld (hl),a
  384+DD79 03               inc bc
  385+DD7A 23               inc hl
  386+DD7B                  ;1,
  387+DD7B 0A               ld a,(bc)
  388+DD7C 77               ld (hl),a
  389+DD7D 03               inc bc
  390+DD7E 23               inc hl
  391+DD7F                  ;2,
  392+DD7F 0A               ld a,(bc)
  393+DD80 77               ld (hl),a
  394+DD81 03               inc bc
  395+DD82 23               inc hl
  396+DD83                  ;3,
  397+DD83 0A               ld a,(bc)
  398+DD84 77               ld (hl),a
  399+DD85 03               inc bc
  400+DD86 23               inc hl
  401+DD87                  ;4,
  402+DD87 0A               ld a,(bc)
  403+DD88 77               ld (hl),a
  404+DD89 03               inc bc
  405+DD8A 23               inc hl
  406+DD8B                  ;5,
  407+DD8B 0A               ld a,(bc)
  408+DD8C 77               ld (hl),a
  409+DD8D 03               inc bc
  410+DD8E 23               inc hl
  411+DD8F                  ;6
  412+DD8F 0A               ld a,(bc)
  413+DD90 77               ld (hl),a
  414+DD91 03               inc bc
  415+DD92 23               inc hl
  416+DD93                  ;7,
  417+DD93 0A               ld a,(bc)
  418+DD94 77               ld (hl),a
  419+DD95 03               inc bc
  420+DD96 23               inc hl
  421+DD97                  ;8,
  422+DD97 0A               ld a,(bc)
  423+DD98 77               ld (hl),a
  424+DD99 03               inc bc
  425+DD9A 11 14 00         ld de,BUFFER_WINDOW_WIDTH-8
  426+DD9D 19               add hl,de ;increment HL pointer by wwidth
  427+DD9E
  428+DD9E                  ;0,0    ;;;;;;0
  429+DD9E 0A               ld a,(bc)
  430+DD9F 77               ld (hl),a
  431+DDA0 03               inc bc
  432+DDA1 23               inc hl
  433+DDA2                  ;1,
  434+DDA2 0A               ld a,(bc)
  435+DDA3 77               ld (hl),a
  436+DDA4 03               inc bc
  437+DDA5 23               inc hl
  438+DDA6                  ;2,
  439+DDA6 0A               ld a,(bc)
  440+DDA7 77               ld (hl),a
  441+DDA8 03               inc bc
  442+DDA9 23               inc hl
  443+DDAA                  ;3,
  444+DDAA 0A               ld a,(bc)
  445+DDAB 77               ld (hl),a
  446+DDAC 03               inc bc
  447+DDAD 23               inc hl
  448+DDAE                  ;4,
  449+DDAE 0A               ld a,(bc)
  450+DDAF 77               ld (hl),a
  451+DDB0 03               inc bc
  452+DDB1 23               inc hl
  453+DDB2                  ;5,
  454+DDB2 0A               ld a,(bc)
  455+DDB3 77               ld (hl),a
  456+DDB4 03               inc bc
  457+DDB5 23               inc hl
  458+DDB6                  ;6
  459+DDB6 0A               ld a,(bc)
  460+DDB7 77               ld (hl),a
  461+DDB8 03               inc bc
  462+DDB9 23               inc hl
  463+DDBA                  ;7,
  464+DDBA 0A               ld a,(bc)
  465+DDBB 77               ld (hl),a
  466+DDBC 03               inc bc
  467+DDBD 23               inc hl
  468+DDBE                  ;8,
  469+DDBE 0A               ld a,(bc)
  470+DDBF 77               ld (hl),a
  471+DDC0 03               inc bc
  472+DDC1 11 14 00         ld de,BUFFER_WINDOW_WIDTH-8
  473+DDC4 19               add hl,de ;increment HL pointer by wwidth
  474+DDC5
  475+DDC5                  ;0,0    ;;;;;;1
  476+DDC5 0A               ld a,(bc)
  477+DDC6 77               ld (hl),a
  478+DDC7 03               inc bc
  479+DDC8 23               inc hl
  480+DDC9                  ;1,
  481+DDC9 0A               ld a,(bc)
  482+DDCA 77               ld (hl),a
  483+DDCB 03               inc bc
  484+DDCC 23               inc hl
  485+DDCD                  ;2,
  486+DDCD 0A               ld a,(bc)
  487+DDCE 77               ld (hl),a
  488+DDCF 03               inc bc
  489+DDD0 23               inc hl
  490+DDD1                  ;3,
  491+DDD1 0A               ld a,(bc)
  492+DDD2 77               ld (hl),a
  493+DDD3 03               inc bc
  494+DDD4 23               inc hl
  495+DDD5                  ;4,
  496+DDD5 0A               ld a,(bc)
  497+DDD6 77               ld (hl),a
  498+DDD7 03               inc bc
  499+DDD8 23               inc hl
  500+DDD9                  ;5,
  501+DDD9 0A               ld a,(bc)
  502+DDDA 77               ld (hl),a
  503+DDDB 03               inc bc
  504+DDDC 23               inc hl
  505+DDDD                  ;6
  506+DDDD 0A               ld a,(bc)
  507+DDDE 77               ld (hl),a
  508+DDDF 03               inc bc
  509+DDE0 23               inc hl
  510+DDE1                  ;7,
  511+DDE1 0A               ld a,(bc)
  512+DDE2 77               ld (hl),a
  513+DDE3 03               inc bc
  514+DDE4 23               inc hl
  515+DDE5                  ;8,
  516+DDE5 0A               ld a,(bc)
  517+DDE6 77               ld (hl),a
  518+DDE7 03               inc bc
  519+DDE8 11 14 00         ld de,BUFFER_WINDOW_WIDTH-8
  520+DDEB 19               add hl,de ;increment HL pointer by wwidth
  521+DDEC
  522+DDEC                  ;0,0    ;;;;;;2
  523+DDEC 0A               ld a,(bc)
  524+DDED 77               ld (hl),a
  525+DDEE 03               inc bc
  526+DDEF 23               inc hl
  527+DDF0                  ;1,
  528+DDF0 0A               ld a,(bc)
  529+DDF1 77               ld (hl),a
  530+DDF2 03               inc bc
  531+DDF3 23               inc hl
  532+DDF4                  ;2,
  533+DDF4 0A               ld a,(bc)
  534+DDF5 77               ld (hl),a
  535+DDF6 03               inc bc
  536+DDF7 23               inc hl
  537+DDF8                  ;3,
  538+DDF8 0A               ld a,(bc)
  539+DDF9 77               ld (hl),a
  540+DDFA 03               inc bc
  541+DDFB 23               inc hl
  542+DDFC                  ;4,
  543+DDFC 0A               ld a,(bc)
  544+DDFD 77               ld (hl),a
  545+DDFE 03               inc bc
  546+DDFF 23               inc hl
  547+DE00                  ;5,
  548+DE00 0A               ld a,(bc)
  549+DE01 77               ld (hl),a
  550+DE02 03               inc bc
  551+DE03 23               inc hl
  552+DE04                  ;6
  553+DE04 0A               ld a,(bc)
  554+DE05 77               ld (hl),a
  555+DE06 03               inc bc
  556+DE07 23               inc hl
  557+DE08                  ;7,
  558+DE08 0A               ld a,(bc)
  559+DE09 77               ld (hl),a
  560+DE0A 03               inc bc
  561+DE0B 23               inc hl
  562+DE0C                  ;8,
  563+DE0C 0A               ld a,(bc)
  564+DE0D 77               ld (hl),a
  565+DE0E 03               inc bc
  566+DE0F 11 14 00         ld de,BUFFER_WINDOW_WIDTH-8
  567+DE12 19               add hl,de ;increment HL pointer by wwidth
  568+DE13
  569+DE13                  ;0,0    ;;;;;;3
  570+DE13 0A               ld a,(bc)
  571+DE14 77               ld (hl),a
  572+DE15 03               inc bc
  573+DE16 23               inc hl
  574+DE17                  ;1,
  575+DE17 0A               ld a,(bc)
  576+DE18 77               ld (hl),a
  577+DE19 03               inc bc
  578+DE1A 23               inc hl
  579+DE1B                  ;2,
  580+DE1B 0A               ld a,(bc)
  581+DE1C 77               ld (hl),a
  582+DE1D 03               inc bc
  583+DE1E 23               inc hl
  584+DE1F                  ;3,
  585+DE1F 0A               ld a,(bc)
  586+DE20 77               ld (hl),a
  587+DE21 03               inc bc
  588+DE22 23               inc hl
  589+DE23                  ;4,
  590+DE23 0A               ld a,(bc)
  591+DE24 77               ld (hl),a
  592+DE25 03               inc bc
  593+DE26 23               inc hl
  594+DE27                  ;5,
  595+DE27 0A               ld a,(bc)
  596+DE28 77               ld (hl),a
  597+DE29 03               inc bc
  598+DE2A 23               inc hl
  599+DE2B                  ;6
  600+DE2B 0A               ld a,(bc)
  601+DE2C 77               ld (hl),a
  602+DE2D 03               inc bc
  603+DE2E 23               inc hl
  604+DE2F                  ;7,
  605+DE2F 0A               ld a,(bc)
  606+DE30 77               ld (hl),a
  607+DE31 03               inc bc
  608+DE32 23               inc hl
  609+DE33                  ;8,
  610+DE33 0A               ld a,(bc)
  611+DE34 77               ld (hl),a
  612+DE35 03               inc bc
  613+DE36 11 14 00         ld de,BUFFER_WINDOW_WIDTH-8
  614+DE39 19               add hl,de ;increment HL pointer by wwidth
  615+DE3A
  616+DE3A                  ;0,0    ;;;;;;4
  617+DE3A 0A               ld a,(bc)
  618+DE3B 77               ld (hl),a
  619+DE3C 03               inc bc
  620+DE3D 23               inc hl
  621+DE3E                  ;1,
  622+DE3E 0A               ld a,(bc)
  623+DE3F 77               ld (hl),a
  624+DE40 03               inc bc
  625+DE41 23               inc hl
  626+DE42                  ;2,
  627+DE42 0A               ld a,(bc)
  628+DE43 77               ld (hl),a
  629+DE44 03               inc bc
  630+DE45 23               inc hl
  631+DE46                  ;3,
  632+DE46 0A               ld a,(bc)
  633+DE47 77               ld (hl),a
  634+DE48 03               inc bc
  635+DE49 23               inc hl
  636+DE4A                  ;4,
  637+DE4A 0A               ld a,(bc)
  638+DE4B 77               ld (hl),a
  639+DE4C 03               inc bc
  640+DE4D 23               inc hl
  641+DE4E                  ;5,
  642+DE4E 0A               ld a,(bc)
  643+DE4F 77               ld (hl),a
  644+DE50 03               inc bc
  645+DE51 23               inc hl
  646+DE52                  ;6
  647+DE52 0A               ld a,(bc)
  648+DE53 77               ld (hl),a
  649+DE54 03               inc bc
  650+DE55 23               inc hl
  651+DE56                  ;7,
  652+DE56 0A               ld a,(bc)
  653+DE57 77               ld (hl),a
  654+DE58 03               inc bc
  655+DE59 23               inc hl
  656+DE5A                  ;8,
  657+DE5A 0A               ld a,(bc)
  658+DE5B 77               ld (hl),a
  659+DE5C 03               inc bc
  660+DE5D 11 14 00         ld de,BUFFER_WINDOW_WIDTH-8
  661+DE60 19               add hl,de ;increment HL pointer by wwidth
  662+DE61
  663+DE61                  ;0,0    ;;;;;;5
  664+DE61 0A               ld a,(bc)
  665+DE62 77               ld (hl),a
  666+DE63 03               inc bc
  667+DE64 23               inc hl
  668+DE65                  ;1,
  669+DE65 0A               ld a,(bc)
  670+DE66 77               ld (hl),a
  671+DE67 03               inc bc
  672+DE68 23               inc hl
  673+DE69                  ;2,
  674+DE69 0A               ld a,(bc)
  675+DE6A 77               ld (hl),a
  676+DE6B 03               inc bc
  677+DE6C 23               inc hl
  678+DE6D                  ;3,
  679+DE6D 0A               ld a,(bc)
  680+DE6E 77               ld (hl),a
  681+DE6F 03               inc bc
  682+DE70 23               inc hl
  683+DE71                  ;4,
  684+DE71 0A               ld a,(bc)
  685+DE72 77               ld (hl),a
  686+DE73 03               inc bc
  687+DE74 23               inc hl
  688+DE75                  ;5,
  689+DE75 0A               ld a,(bc)
  690+DE76 77               ld (hl),a
  691+DE77 03               inc bc
  692+DE78 23               inc hl
  693+DE79                  ;6
  694+DE79 0A               ld a,(bc)
  695+DE7A 77               ld (hl),a
  696+DE7B 03               inc bc
  697+DE7C 23               inc hl
  698+DE7D                  ;7,
  699+DE7D 0A               ld a,(bc)
  700+DE7E 77               ld (hl),a
  701+DE7F 03               inc bc
  702+DE80 23               inc hl
  703+DE81                  ;8,
  704+DE81 0A               ld a,(bc)
  705+DE82 77               ld (hl),a
  706+DE83 03               inc bc
  707+DE84 11 14 00         ld de,BUFFER_WINDOW_WIDTH-8
  708+DE87 19               add hl,de ;increment HL pointer by wwidth
  709+DE88
  710+DE88                  ;0,0    ;;;;;;6
  711+DE88 0A               ld a,(bc)
  712+DE89 77               ld (hl),a
  713+DE8A 03               inc bc
  714+DE8B 23               inc hl
  715+DE8C                  ;1,
  716+DE8C 0A               ld a,(bc)
  717+DE8D 77               ld (hl),a
  718+DE8E 03               inc bc
  719+DE8F 23               inc hl
  720+DE90                  ;2,
  721+DE90 0A               ld a,(bc)
  722+DE91 77               ld (hl),a
  723+DE92 03               inc bc
  724+DE93 23               inc hl
  725+DE94                  ;3,
  726+DE94 0A               ld a,(bc)
  727+DE95 77               ld (hl),a
  728+DE96 03               inc bc
  729+DE97 23               inc hl
  730+DE98                  ;4,
  731+DE98 0A               ld a,(bc)
  732+DE99 77               ld (hl),a
  733+DE9A 03               inc bc
  734+DE9B 23               inc hl
  735+DE9C                  ;5,
  736+DE9C 0A               ld a,(bc)
  737+DE9D 77               ld (hl),a
  738+DE9E 03               inc bc
  739+DE9F 23               inc hl
  740+DEA0                  ;6
  741+DEA0 0A               ld a,(bc)
  742+DEA1 77               ld (hl),a
  743+DEA2 03               inc bc
  744+DEA3 23               inc hl
  745+DEA4                  ;7,
  746+DEA4 0A               ld a,(bc)
  747+DEA5 77               ld (hl),a
  748+DEA6 03               inc bc
  749+DEA7 23               inc hl
  750+DEA8                  ;8,
  751+DEA8 0A               ld a,(bc)
  752+DEA9 77               ld (hl),a
  753+DEAA 03               inc bc
  754+DEAB 11 14 00         ld de,BUFFER_WINDOW_WIDTH-8
  755+DEAE 19               add hl,de ;increment HL pointer by wwidth
  756+DEAF
  757+DEAF                  ;0,0    ;;;;;;7
  758+DEAF 0A               ld a,(bc)
  759+DEB0 77               ld (hl),a
  760+DEB1 03               inc bc
  761+DEB2 23               inc hl
  762+DEB3                  ;1,
  763+DEB3 0A               ld a,(bc)
  764+DEB4 77               ld (hl),a
  765+DEB5 03               inc bc
  766+DEB6 23               inc hl
  767+DEB7                  ;2,
  768+DEB7 0A               ld a,(bc)
  769+DEB8 77               ld (hl),a
  770+DEB9 03               inc bc
  771+DEBA 23               inc hl
  772+DEBB                  ;3,
  773+DEBB 0A               ld a,(bc)
  774+DEBC 77               ld (hl),a
  775+DEBD 03               inc bc
  776+DEBE 23               inc hl
  777+DEBF                  ;4,
  778+DEBF 0A               ld a,(bc)
  779+DEC0 77               ld (hl),a
  780+DEC1 03               inc bc
  781+DEC2 23               inc hl
  782+DEC3                  ;5,
  783+DEC3 0A               ld a,(bc)
  784+DEC4 77               ld (hl),a
  785+DEC5 03               inc bc
  786+DEC6 23               inc hl
  787+DEC7                  ;6
  788+DEC7 0A               ld a,(bc)
  789+DEC8 77               ld (hl),a
  790+DEC9 03               inc bc
  791+DECA 23               inc hl
  792+DECB                  ;7,
  793+DECB 0A               ld a,(bc)
  794+DECC 77               ld (hl),a
  795+DECD 03               inc bc
  796+DECE 23               inc hl
  797+DECF                  ;8,
  798+DECF 0A               ld a,(bc)
  799+DED0 77               ld (hl),a
  800+DED1 03               inc bc
  801+DED2 11 14 00         ld de,BUFFER_WINDOW_WIDTH-8
  802+DED5 19               add hl,de ;increment HL pointer by wwidth
  803+DED6
  804+DED6                  ;0,0    ;;;;;;8
  805+DED6 0A               ld a,(bc)
  806+DED7 77               ld (hl),a
  807+DED8 03               inc bc
  808+DED9 23               inc hl
  809+DEDA                  ;1,
  810+DEDA 0A               ld a,(bc)
  811+DEDB 77               ld (hl),a
  812+DEDC 03               inc bc
  813+DEDD 23               inc hl
  814+DEDE                  ;2,
  815+DEDE 0A               ld a,(bc)
  816+DEDF 77               ld (hl),a
  817+DEE0 03               inc bc
  818+DEE1 23               inc hl
  819+DEE2                  ;3,
  820+DEE2 0A               ld a,(bc)
  821+DEE3 77               ld (hl),a
  822+DEE4 03               inc bc
  823+DEE5 23               inc hl
  824+DEE6                  ;4,
  825+DEE6 0A               ld a,(bc)
  826+DEE7 77               ld (hl),a
  827+DEE8 03               inc bc
  828+DEE9 23               inc hl
  829+DEEA                  ;5,
  830+DEEA 0A               ld a,(bc)
  831+DEEB 77               ld (hl),a
  832+DEEC 03               inc bc
  833+DEED 23               inc hl
  834+DEEE                  ;6
  835+DEEE 0A               ld a,(bc)
  836+DEEF 77               ld (hl),a
  837+DEF0 03               inc bc
  838+DEF1 23               inc hl
  839+DEF2                  ;7,
  840+DEF2 0A               ld a,(bc)
  841+DEF3 77               ld (hl),a
  842+DEF4 03               inc bc
  843+DEF5 23               inc hl
  844+DEF6                  ;8,
  845+DEF6 0A               ld a,(bc)
  846+DEF7 77               ld (hl),a
  847+DEF8 03               inc bc
  848+DEF9 11 14 00         ld de,BUFFER_WINDOW_WIDTH-8
  849+DEFC 19               add hl,de ;increment HL pointer by wwidth
  850+DEFD
  851+DEFD                  ;0,0    ;;;;;;9
  852+DEFD 0A               ld a,(bc)
  853+DEFE 77               ld (hl),a
  854+DEFF 03               inc bc
  855+DF00 23               inc hl
  856+DF01                  ;1,
  857+DF01 0A               ld a,(bc)
  858+DF02 77               ld (hl),a
  859+DF03 03               inc bc
  860+DF04 23               inc hl
  861+DF05                  ;2,
  862+DF05 0A               ld a,(bc)
  863+DF06 77               ld (hl),a
  864+DF07 03               inc bc
  865+DF08 23               inc hl
  866+DF09                  ;3,
  867+DF09 0A               ld a,(bc)
  868+DF0A 77               ld (hl),a
  869+DF0B 03               inc bc
  870+DF0C 23               inc hl
  871+DF0D                  ;4,
  872+DF0D 0A               ld a,(bc)
  873+DF0E 77               ld (hl),a
  874+DF0F 03               inc bc
  875+DF10 23               inc hl
  876+DF11                  ;5,
  877+DF11 0A               ld a,(bc)
  878+DF12 77               ld (hl),a
  879+DF13 03               inc bc
  880+DF14 23               inc hl
  881+DF15                  ;6
  882+DF15 0A               ld a,(bc)
  883+DF16 77               ld (hl),a
  884+DF17 03               inc bc
  885+DF18 23               inc hl
  886+DF19                  ;7,
  887+DF19 0A               ld a,(bc)
  888+DF1A 77               ld (hl),a
  889+DF1B 03               inc bc
  890+DF1C 23               inc hl
  891+DF1D                  ;8,
  892+DF1D 0A               ld a,(bc)
  893+DF1E 77               ld (hl),a
  894+DF1F 03               inc bc
  895+DF20 11 14 00         ld de,BUFFER_WINDOW_WIDTH-8
  896+DF23 19               add hl,de ;increment HL pointer by wwidth
  897+DF24
  898+DF24                  ;0,0    ;;;;;;0
  899+DF24 0A               ld a,(bc)
  900+DF25 77               ld (hl),a
  901+DF26 03               inc bc
  902+DF27 23               inc hl
  903+DF28                  ;1,
  904+DF28 0A               ld a,(bc)
  905+DF29 77               ld (hl),a
  906+DF2A 03               inc bc
  907+DF2B 23               inc hl
  908+DF2C                  ;2,
  909+DF2C 0A               ld a,(bc)
  910+DF2D 77               ld (hl),a
  911+DF2E 03               inc bc
  912+DF2F 23               inc hl
  913+DF30                  ;3,
  914+DF30 0A               ld a,(bc)
  915+DF31 77               ld (hl),a
  916+DF32 03               inc bc
  917+DF33 23               inc hl
  918+DF34                  ;4,
  919+DF34 0A               ld a,(bc)
  920+DF35 77               ld (hl),a
  921+DF36 03               inc bc
  922+DF37 23               inc hl
  923+DF38                  ;5,
  924+DF38 0A               ld a,(bc)
  925+DF39 77               ld (hl),a
  926+DF3A 03               inc bc
  927+DF3B 23               inc hl
  928+DF3C                  ;6
  929+DF3C 0A               ld a,(bc)
  930+DF3D 77               ld (hl),a
  931+DF3E 03               inc bc
  932+DF3F 23               inc hl
  933+DF40                  ;7,
  934+DF40 0A               ld a,(bc)
  935+DF41 77               ld (hl),a
  936+DF42 03               inc bc
  937+DF43 23               inc hl
  938+DF44                  ;8,
  939+DF44 0A               ld a,(bc)
  940+DF45 77               ld (hl),a
  941+DF46 03               inc bc
  942+DF47 11 14 00         ld de,BUFFER_WINDOW_WIDTH-8
  943+DF4A 19               add hl,de ;increment HL pointer by wwidth
  944+DF4B
  945+DF4B                  ;0,0    ;;;;;;1
  946+DF4B 0A               ld a,(bc)
  947+DF4C 77               ld (hl),a
  948+DF4D 03               inc bc
  949+DF4E 23               inc hl
  950+DF4F                  ;1,
  951+DF4F 0A               ld a,(bc)
  952+DF50 77               ld (hl),a
  953+DF51 03               inc bc
  954+DF52 23               inc hl
  955+DF53                  ;2,
  956+DF53 0A               ld a,(bc)
  957+DF54 77               ld (hl),a
  958+DF55 03               inc bc
  959+DF56 23               inc hl
  960+DF57                  ;3,
  961+DF57 0A               ld a,(bc)
  962+DF58 77               ld (hl),a
  963+DF59 03               inc bc
  964+DF5A 23               inc hl
  965+DF5B                  ;4,
  966+DF5B 0A               ld a,(bc)
  967+DF5C 77               ld (hl),a
  968+DF5D 03               inc bc
  969+DF5E 23               inc hl
  970+DF5F                  ;5,
  971+DF5F 0A               ld a,(bc)
  972+DF60 77               ld (hl),a
  973+DF61 03               inc bc
  974+DF62 23               inc hl
  975+DF63                  ;6
  976+DF63 0A               ld a,(bc)
  977+DF64 77               ld (hl),a
  978+DF65 03               inc bc
  979+DF66 23               inc hl
  980+DF67                  ;7,
  981+DF67 0A               ld a,(bc)
  982+DF68 77               ld (hl),a
  983+DF69 03               inc bc
  984+DF6A 23               inc hl
  985+DF6B                  ;8,
  986+DF6B 0A               ld a,(bc)
  987+DF6C 77               ld (hl),a
  988+DF6D 03               inc bc
  989+DF6E 11 14 00         ld de,BUFFER_WINDOW_WIDTH-8
  990+DF71 19               add hl,de ;increment HL pointer by wwidth
  991+DF72
  992+DF72                  ;0,0    ;;;;;;2
  993+DF72 0A               ld a,(bc)
  994+DF73 77               ld (hl),a
  995+DF74 03               inc bc
  996+DF75 23               inc hl
  997+DF76                  ;1,
  998+DF76 0A               ld a,(bc)
  999+DF77 77               ld (hl),a
 1000+DF78 03               inc bc
 1001+DF79 23               inc hl
 1002+DF7A                  ;2,
 1003+DF7A 0A               ld a,(bc)
 1004+DF7B 77               ld (hl),a
 1005+DF7C 03               inc bc
 1006+DF7D 23               inc hl
 1007+DF7E                  ;3,
 1008+DF7E 0A               ld a,(bc)
 1009+DF7F 77               ld (hl),a
 1010+DF80 03               inc bc
 1011+DF81 23               inc hl
 1012+DF82                  ;4,
 1013+DF82 0A               ld a,(bc)
 1014+DF83 77               ld (hl),a
 1015+DF84 03               inc bc
 1016+DF85 23               inc hl
 1017+DF86                  ;5,
 1018+DF86 0A               ld a,(bc)
 1019+DF87 77               ld (hl),a
 1020+DF88 03               inc bc
 1021+DF89 23               inc hl
 1022+DF8A                  ;6
 1023+DF8A 0A               ld a,(bc)
 1024+DF8B 77               ld (hl),a
 1025+DF8C 03               inc bc
 1026+DF8D 23               inc hl
 1027+DF8E                  ;7,
 1028+DF8E 0A               ld a,(bc)
 1029+DF8F 77               ld (hl),a
 1030+DF90 03               inc bc
 1031+DF91 23               inc hl
 1032+DF92                  ;8,
 1033+DF92 0A               ld a,(bc)
 1034+DF93 77               ld (hl),a
 1035+DF94 03               inc bc
 1036+DF95 11 14 00         ld de,BUFFER_WINDOW_WIDTH-8
 1037+DF98 19               add hl,de ;increment HL pointer by wwidth
 1038+DF99
 1039+DF99                  ;0,0    ;;;;;;3
 1040+DF99 0A               ld a,(bc)
 1041+DF9A 77               ld (hl),a
 1042+DF9B 03               inc bc
 1043+DF9C 23               inc hl
 1044+DF9D                  ;1,
 1045+DF9D 0A               ld a,(bc)
 1046+DF9E 77               ld (hl),a
 1047+DF9F 03               inc bc
 1048+DFA0 23               inc hl
 1049+DFA1                  ;2,
 1050+DFA1 0A               ld a,(bc)
 1051+DFA2 77               ld (hl),a
 1052+DFA3 03               inc bc
 1053+DFA4 23               inc hl
 1054+DFA5                  ;3,
 1055+DFA5 0A               ld a,(bc)
 1056+DFA6 77               ld (hl),a
 1057+DFA7 03               inc bc
 1058+DFA8 23               inc hl
 1059+DFA9                  ;4,
 1060+DFA9 0A               ld a,(bc)
 1061+DFAA 77               ld (hl),a
 1062+DFAB 03               inc bc
 1063+DFAC 23               inc hl
 1064+DFAD                  ;5,
 1065+DFAD 0A               ld a,(bc)
 1066+DFAE 77               ld (hl),a
 1067+DFAF 03               inc bc
 1068+DFB0 23               inc hl
 1069+DFB1                  ;6
 1070+DFB1 0A               ld a,(bc)
 1071+DFB2 77               ld (hl),a
 1072+DFB3 03               inc bc
 1073+DFB4 23               inc hl
 1074+DFB5                  ;7,
 1075+DFB5 0A               ld a,(bc)
 1076+DFB6 77               ld (hl),a
 1077+DFB7 03               inc bc
 1078+DFB8 23               inc hl
 1079+DFB9                  ;8,
 1080+DFB9 0A               ld a,(bc)
 1081+DFBA 77               ld (hl),a
 1082+DFBB 03               inc bc
 1083+DFBC 11 14 00         ld de,BUFFER_WINDOW_WIDTH-8
 1084+DFBF 19               add hl,de ;increment HL pointer by wwidth
 1085+DFC0
 1086+DFC0                  ;0,0    ;;;;;;4
 1087+DFC0 0A               ld a,(bc)
 1088+DFC1 77               ld (hl),a
 1089+DFC2 03               inc bc
 1090+DFC3 23               inc hl
 1091+DFC4                  ;1,
 1092+DFC4 0A               ld a,(bc)
 1093+DFC5 77               ld (hl),a
 1094+DFC6 03               inc bc
 1095+DFC7 23               inc hl
 1096+DFC8                  ;2,
 1097+DFC8 0A               ld a,(bc)
 1098+DFC9 77               ld (hl),a
 1099+DFCA 03               inc bc
 1100+DFCB 23               inc hl
 1101+DFCC                  ;3,
 1102+DFCC 0A               ld a,(bc)
 1103+DFCD 77               ld (hl),a
 1104+DFCE 03               inc bc
 1105+DFCF 23               inc hl
 1106+DFD0                  ;4,
 1107+DFD0 0A               ld a,(bc)
 1108+DFD1 77               ld (hl),a
 1109+DFD2 03               inc bc
 1110+DFD3 23               inc hl
 1111+DFD4                  ;5,
 1112+DFD4 0A               ld a,(bc)
 1113+DFD5 77               ld (hl),a
 1114+DFD6 03               inc bc
 1115+DFD7 23               inc hl
 1116+DFD8                  ;6
 1117+DFD8 0A               ld a,(bc)
 1118+DFD9 77               ld (hl),a
 1119+DFDA 03               inc bc
 1120+DFDB 23               inc hl
 1121+DFDC                  ;7,
 1122+DFDC 0A               ld a,(bc)
 1123+DFDD 77               ld (hl),a
 1124+DFDE 03               inc bc
 1125+DFDF 23               inc hl
 1126+DFE0                  ;8,
 1127+DFE0 0A               ld a,(bc)
 1128+DFE1 77               ld (hl),a
 1129+DFE2 03               inc bc
 1130+DFE3 11 14 00         ld de,BUFFER_WINDOW_WIDTH-8
 1131+DFE6 19               add hl,de ;increment HL pointer by wwidth
 1132+DFE7
 1133+DFE7                  ;0,0    ;;;;;;5
 1134+DFE7 0A               ld a,(bc)
 1135+DFE8 77               ld (hl),a
 1136+DFE9 03               inc bc
 1137+DFEA 23               inc hl
 1138+DFEB                  ;1,
 1139+DFEB 0A               ld a,(bc)
 1140+DFEC 77               ld (hl),a
 1141+DFED 03               inc bc
 1142+DFEE 23               inc hl
 1143+DFEF                  ;2,
 1144+DFEF 0A               ld a,(bc)
 1145+DFF0 77               ld (hl),a
 1146+DFF1 03               inc bc
 1147+DFF2 23               inc hl
 1148+DFF3                  ;3,
 1149+DFF3 0A               ld a,(bc)
 1150+DFF4 77               ld (hl),a
 1151+DFF5 03               inc bc
 1152+DFF6 23               inc hl
 1153+DFF7                  ;4,
 1154+DFF7 0A               ld a,(bc)
 1155+DFF8 77               ld (hl),a
 1156+DFF9 03               inc bc
 1157+DFFA 23               inc hl
 1158+DFFB                  ;5,
 1159+DFFB 0A               ld a,(bc)
 1160+DFFC 77               ld (hl),a
 1161+DFFD 03               inc bc
 1162+DFFE 23               inc hl
 1163+DFFF                  ;6
 1164+DFFF 0A               ld a,(bc)
 1165+E000 77               ld (hl),a
 1166+E001 03               inc bc
 1167+E002 23               inc hl
 1168+E003                  ;7,
 1169+E003 0A               ld a,(bc)
 1170+E004 77               ld (hl),a
 1171+E005 03               inc bc
 1172+E006 23               inc hl
 1173+E007                  ;8,
 1174+E007 0A               ld a,(bc)
 1175+E008 77               ld (hl),a
 1176+E009 03               inc bc
 1177+E00A 11 14 00         ld de,BUFFER_WINDOW_WIDTH-8
 1178+E00D 19               add hl,de ;increment HL pointer by wwidth
 1179+E00E
 1180+E00E                  ;0,0    ;;;;;;6
 1181+E00E 0A               ld a,(bc)
 1182+E00F 77               ld (hl),a
 1183+E010 03               inc bc
 1184+E011 23               inc hl
 1185+E012                  ;1,
 1186+E012 0A               ld a,(bc)
 1187+E013 77               ld (hl),a
 1188+E014 03               inc bc
 1189+E015 23               inc hl
 1190+E016                  ;2,
 1191+E016 0A               ld a,(bc)
 1192+E017 77               ld (hl),a
 1193+E018 03               inc bc
 1194+E019 23               inc hl
 1195+E01A                  ;3,
 1196+E01A 0A               ld a,(bc)
 1197+E01B 77               ld (hl),a
 1198+E01C 03               inc bc
 1199+E01D 23               inc hl
 1200+E01E                  ;4,
 1201+E01E 0A               ld a,(bc)
 1202+E01F 77               ld (hl),a
 1203+E020 03               inc bc
 1204+E021 23               inc hl
 1205+E022                  ;5,
 1206+E022 0A               ld a,(bc)
 1207+E023 77               ld (hl),a
 1208+E024 03               inc bc
 1209+E025 23               inc hl
 1210+E026                  ;6
 1211+E026 0A               ld a,(bc)
 1212+E027 77               ld (hl),a
 1213+E028 03               inc bc
 1214+E029 23               inc hl
 1215+E02A                  ;7,
 1216+E02A 0A               ld a,(bc)
 1217+E02B 77               ld (hl),a
 1218+E02C 03               inc bc
 1219+E02D 23               inc hl
 1220+E02E                  ;8,
 1221+E02E 0A               ld a,(bc)
 1222+E02F 77               ld (hl),a
 1223+E030 03               inc bc
 1224+E031 11 14 00         ld de,BUFFER_WINDOW_WIDTH-8
 1225+E034 19               add hl,de ;increment HL pointer by wwidth
 1226+E035
 1227+E035                  ;0,0    ;;;;;;7
 1228+E035 0A               ld a,(bc)
 1229+E036 77               ld (hl),a
 1230+E037 03               inc bc
 1231+E038 23               inc hl
 1232+E039                  ;1,
 1233+E039 0A               ld a,(bc)
 1234+E03A 77               ld (hl),a
 1235+E03B 03               inc bc
 1236+E03C 23               inc hl
 1237+E03D                  ;2,
 1238+E03D 0A               ld a,(bc)
 1239+E03E 77               ld (hl),a
 1240+E03F 03               inc bc
 1241+E040 23               inc hl
 1242+E041                  ;3,
 1243+E041 0A               ld a,(bc)
 1244+E042 77               ld (hl),a
 1245+E043 03               inc bc
 1246+E044 23               inc hl
 1247+E045                  ;4,
 1248+E045 0A               ld a,(bc)
 1249+E046 77               ld (hl),a
 1250+E047 03               inc bc
 1251+E048 23               inc hl
 1252+E049                  ;5,
 1253+E049 0A               ld a,(bc)
 1254+E04A 77               ld (hl),a
 1255+E04B 03               inc bc
 1256+E04C 23               inc hl
 1257+E04D                  ;6
 1258+E04D 0A               ld a,(bc)
 1259+E04E 77               ld (hl),a
 1260+E04F 03               inc bc
 1261+E050 23               inc hl
 1262+E051                  ;7,
 1263+E051 0A               ld a,(bc)
 1264+E052 77               ld (hl),a
 1265+E053 03               inc bc
 1266+E054 23               inc hl
 1267+E055                  ;8,
 1268+E055 0A               ld a,(bc)
 1269+E056 77               ld (hl),a
 1270+E057 03               inc bc
 1271+E058 11 14 00         ld de,BUFFER_WINDOW_WIDTH-8
 1272+E05B 19               add hl,de ;increment HL pointer by wwidth
 1273+E05C
 1274+E05C                  ;0,0    ;;;;;;8
 1275+E05C 0A               ld a,(bc)
 1276+E05D 77               ld (hl),a
 1277+E05E 03               inc bc
 1278+E05F 23               inc hl
 1279+E060                  ;1,
 1280+E060 0A               ld a,(bc)
 1281+E061 77               ld (hl),a
 1282+E062 03               inc bc
 1283+E063 23               inc hl
 1284+E064                  ;2,
 1285+E064 0A               ld a,(bc)
 1286+E065 77               ld (hl),a
 1287+E066 03               inc bc
 1288+E067 23               inc hl
 1289+E068                  ;3,
 1290+E068 0A               ld a,(bc)
 1291+E069 77               ld (hl),a
 1292+E06A 03               inc bc
 1293+E06B 23               inc hl
 1294+E06C                  ;4,
 1295+E06C 0A               ld a,(bc)
 1296+E06D 77               ld (hl),a
 1297+E06E 03               inc bc
 1298+E06F 23               inc hl
 1299+E070                  ;5,
 1300+E070 0A               ld a,(bc)
 1301+E071 77               ld (hl),a
 1302+E072 03               inc bc
 1303+E073 23               inc hl
 1304+E074                  ;6
 1305+E074 0A               ld a,(bc)
 1306+E075 77               ld (hl),a
 1307+E076 03               inc bc
 1308+E077 23               inc hl
 1309+E078                  ;7,
 1310+E078 0A               ld a,(bc)
 1311+E079 77               ld (hl),a
 1312+E07A 03               inc bc
 1313+E07B 23               inc hl
 1314+E07C                  ;8,
 1315+E07C 0A               ld a,(bc)
 1316+E07D 77               ld (hl),a
 1317+E07E 03               inc bc
 1318+E07F 11 14 00         ld de,BUFFER_WINDOW_WIDTH-8
 1319+E082 19               add hl,de ;increment HL pointer by wwidth
 1320+E083
 1321+E083                  ;0,0    ;;;;;;9
 1322+E083 0A               ld a,(bc)
 1323+E084 77               ld (hl),a
 1324+E085 03               inc bc
 1325+E086 23               inc hl
 1326+E087                  ;1,
 1327+E087 0A               ld a,(bc)
 1328+E088 77               ld (hl),a
 1329+E089 03               inc bc
 1330+E08A 23               inc hl
 1331+E08B                  ;2,
 1332+E08B 0A               ld a,(bc)
 1333+E08C 77               ld (hl),a
 1334+E08D 03               inc bc
 1335+E08E 23               inc hl
 1336+E08F                  ;3,
 1337+E08F 0A               ld a,(bc)
 1338+E090 77               ld (hl),a
 1339+E091 03               inc bc
 1340+E092 23               inc hl
 1341+E093                  ;4,
 1342+E093 0A               ld a,(bc)
 1343+E094 77               ld (hl),a
 1344+E095 03               inc bc
 1345+E096 23               inc hl
 1346+E097                  ;5,
 1347+E097 0A               ld a,(bc)
 1348+E098 77               ld (hl),a
 1349+E099 03               inc bc
 1350+E09A 23               inc hl
 1351+E09B                  ;6
 1352+E09B 0A               ld a,(bc)
 1353+E09C 77               ld (hl),a
 1354+E09D 03               inc bc
 1355+E09E 23               inc hl
 1356+E09F                  ;7,
 1357+E09F 0A               ld a,(bc)
 1358+E0A0 77               ld (hl),a
 1359+E0A1 03               inc bc
 1360+E0A2 23               inc hl
 1361+E0A3                  ;8,
 1362+E0A3 0A               ld a,(bc)
 1363+E0A4 77               ld (hl),a
 1364+E0A5 03               inc bc
 1365+E0A6 11 14 00         ld de,BUFFER_WINDOW_WIDTH-8
 1366+E0A9 19               add hl,de ;increment HL pointer by wwidth
 1367+E0AA
 1368+E0AA                  ;0,0    ;;;;;;0
 1369+E0AA 0A               ld a,(bc)
 1370+E0AB 77               ld (hl),a
 1371+E0AC 03               inc bc
 1372+E0AD 23               inc hl
 1373+E0AE                  ;1,
 1374+E0AE 0A               ld a,(bc)
 1375+E0AF 77               ld (hl),a
 1376+E0B0 03               inc bc
 1377+E0B1 23               inc hl
 1378+E0B2                  ;2,
 1379+E0B2 0A               ld a,(bc)
 1380+E0B3 77               ld (hl),a
 1381+E0B4 03               inc bc
 1382+E0B5 23               inc hl
 1383+E0B6                  ;3,
 1384+E0B6 0A               ld a,(bc)
 1385+E0B7 77               ld (hl),a
 1386+E0B8 03               inc bc
 1387+E0B9 23               inc hl
 1388+E0BA                  ;4,
 1389+E0BA 0A               ld a,(bc)
 1390+E0BB 77               ld (hl),a
 1391+E0BC 03               inc bc
 1392+E0BD 23               inc hl
 1393+E0BE                  ;5,
 1394+E0BE 0A               ld a,(bc)
 1395+E0BF 77               ld (hl),a
 1396+E0C0 03               inc bc
 1397+E0C1 23               inc hl
 1398+E0C2                  ;6
 1399+E0C2 0A               ld a,(bc)
 1400+E0C3 77               ld (hl),a
 1401+E0C4 03               inc bc
 1402+E0C5 23               inc hl
 1403+E0C6                  ;7,
 1404+E0C6 0A               ld a,(bc)
 1405+E0C7 77               ld (hl),a
 1406+E0C8 03               inc bc
 1407+E0C9 23               inc hl
 1408+E0CA                  ;8,
 1409+E0CA 0A               ld a,(bc)
 1410+E0CB 77               ld (hl),a
 1411+E0CC 03               inc bc
 1412+E0CD 11 14 00         ld de,BUFFER_WINDOW_WIDTH-8
 1413+E0D0 19               add hl,de ;increment HL pointer by wwidth
 1414+E0D1
 1415+E0D1                  ;0,0    ;;;;;;1
 1416+E0D1 0A               ld a,(bc)
 1417+E0D2 77               ld (hl),a
 1418+E0D3 03               inc bc
 1419+E0D4 23               inc hl
 1420+E0D5                  ;1,
 1421+E0D5 0A               ld a,(bc)
 1422+E0D6 77               ld (hl),a
 1423+E0D7 03               inc bc
 1424+E0D8 23               inc hl
 1425+E0D9                  ;2,
 1426+E0D9 0A               ld a,(bc)
 1427+E0DA 77               ld (hl),a
 1428+E0DB 03               inc bc
 1429+E0DC 23               inc hl
 1430+E0DD                  ;3,
 1431+E0DD 0A               ld a,(bc)
 1432+E0DE 77               ld (hl),a
 1433+E0DF 03               inc bc
 1434+E0E0 23               inc hl
 1435+E0E1                  ;4,
 1436+E0E1 0A               ld a,(bc)
 1437+E0E2 77               ld (hl),a
 1438+E0E3 03               inc bc
 1439+E0E4 23               inc hl
 1440+E0E5                  ;5,
 1441+E0E5 0A               ld a,(bc)
 1442+E0E6 77               ld (hl),a
 1443+E0E7 03               inc bc
 1444+E0E8 23               inc hl
 1445+E0E9                  ;6
 1446+E0E9 0A               ld a,(bc)
 1447+E0EA 77               ld (hl),a
 1448+E0EB 03               inc bc
 1449+E0EC 23               inc hl
 1450+E0ED                  ;7,
 1451+E0ED 0A               ld a,(bc)
 1452+E0EE 77               ld (hl),a
 1453+E0EF 03               inc bc
 1454+E0F0 23               inc hl
 1455+E0F1                  ;8,
 1456+E0F1 0A               ld a,(bc)
 1457+E0F2 77               ld (hl),a
 1458+E0F3 03               inc bc
 1459+E0F4 11 14 00         ld de,BUFFER_WINDOW_WIDTH-8
 1460+E0F7 19               add hl,de ;increment HL pointer by wwidth
 1461+E0F8
 1462+E0F8                  ;0,0    ;;;;;;2
 1463+E0F8 0A               ld a,(bc)
 1464+E0F9 77               ld (hl),a
 1465+E0FA 03               inc bc
 1466+E0FB 23               inc hl
 1467+E0FC                  ;1,
 1468+E0FC 0A               ld a,(bc)
 1469+E0FD 77               ld (hl),a
 1470+E0FE 03               inc bc
 1471+E0FF 23               inc hl
 1472+E100                  ;2,
 1473+E100 0A               ld a,(bc)
 1474+E101 77               ld (hl),a
 1475+E102 03               inc bc
 1476+E103 23               inc hl
 1477+E104                  ;3,
 1478+E104 0A               ld a,(bc)
 1479+E105 77               ld (hl),a
 1480+E106 03               inc bc
 1481+E107 23               inc hl
 1482+E108                  ;4,
 1483+E108 0A               ld a,(bc)
 1484+E109 77               ld (hl),a
 1485+E10A 03               inc bc
 1486+E10B 23               inc hl
 1487+E10C                  ;5,
 1488+E10C 0A               ld a,(bc)
 1489+E10D 77               ld (hl),a
 1490+E10E 03               inc bc
 1491+E10F 23               inc hl
 1492+E110                  ;6
 1493+E110 0A               ld a,(bc)
 1494+E111 77               ld (hl),a
 1495+E112 03               inc bc
 1496+E113 23               inc hl
 1497+E114                  ;7,
 1498+E114 0A               ld a,(bc)
 1499+E115 77               ld (hl),a
 1500+E116 03               inc bc
 1501+E117 23               inc hl
 1502+E118                  ;8,
 1503+E118 0A               ld a,(bc)
 1504+E119 77               ld (hl),a
 1505+E11A 03               inc bc
 1506+E11B 11 14 00         ld de,BUFFER_WINDOW_WIDTH-8
 1507+E11E 19               add hl,de ;increment HL pointer by wwidth
 1508+E11F
 1509+E11F                  ;0,0    ;;;;;;3
 1510+E11F 0A               ld a,(bc)
 1511+E120 77               ld (hl),a
 1512+E121 03               inc bc
 1513+E122 23               inc hl
 1514+E123                  ;1,
 1515+E123 0A               ld a,(bc)
 1516+E124 77               ld (hl),a
 1517+E125 03               inc bc
 1518+E126 23               inc hl
 1519+E127                  ;2,
 1520+E127 0A               ld a,(bc)
 1521+E128 77               ld (hl),a
 1522+E129 03               inc bc
 1523+E12A 23               inc hl
 1524+E12B                  ;3,
 1525+E12B 0A               ld a,(bc)
 1526+E12C 77               ld (hl),a
 1527+E12D 03               inc bc
 1528+E12E 23               inc hl
 1529+E12F                  ;4,
 1530+E12F 0A               ld a,(bc)
 1531+E130 77               ld (hl),a
 1532+E131 03               inc bc
 1533+E132 23               inc hl
 1534+E133                  ;5,
 1535+E133 0A               ld a,(bc)
 1536+E134 77               ld (hl),a
 1537+E135 03               inc bc
 1538+E136 23               inc hl
 1539+E137                  ;6
 1540+E137 0A               ld a,(bc)
 1541+E138 77               ld (hl),a
 1542+E139 03               inc bc
 1543+E13A 23               inc hl
 1544+E13B                  ;7,
 1545+E13B 0A               ld a,(bc)
 1546+E13C 77               ld (hl),a
 1547+E13D 03               inc bc
 1548+E13E 23               inc hl
 1549+E13F                  ;8,
 1550+E13F 0A               ld a,(bc)
 1551+E140 77               ld (hl),a
 1552+E141 03               inc bc
 1553+E142 11 14 00         ld de,BUFFER_WINDOW_WIDTH-8
 1554+E145 19               add hl,de ;increment HL pointer by wwidth
 1555+E146
 1556+E146                  ;0,0    ;;;;;;4
 1557+E146 0A               ld a,(bc)
 1558+E147 77               ld (hl),a
 1559+E148 03               inc bc
 1560+E149 23               inc hl
 1561+E14A                  ;1,
 1562+E14A 0A               ld a,(bc)
 1563+E14B 77               ld (hl),a
 1564+E14C 03               inc bc
 1565+E14D 23               inc hl
 1566+E14E                  ;2,
 1567+E14E 0A               ld a,(bc)
 1568+E14F 77               ld (hl),a
 1569+E150 03               inc bc
 1570+E151 23               inc hl
 1571+E152                  ;3,
 1572+E152 0A               ld a,(bc)
 1573+E153 77               ld (hl),a
 1574+E154 03               inc bc
 1575+E155 23               inc hl
 1576+E156                  ;4,
 1577+E156 0A               ld a,(bc)
 1578+E157 77               ld (hl),a
 1579+E158 03               inc bc
 1580+E159 23               inc hl
 1581+E15A                  ;5,
 1582+E15A 0A               ld a,(bc)
 1583+E15B 77               ld (hl),a
 1584+E15C 03               inc bc
 1585+E15D 23               inc hl
 1586+E15E                  ;6
 1587+E15E 0A               ld a,(bc)
 1588+E15F 77               ld (hl),a
 1589+E160 03               inc bc
 1590+E161 23               inc hl
 1591+E162                  ;7,
 1592+E162 0A               ld a,(bc)
 1593+E163 77               ld (hl),a
 1594+E164 03               inc bc
 1595+E165 23               inc hl
 1596+E166                  ;8,
 1597+E166 0A               ld a,(bc)
 1598+E167 77               ld (hl),a
 1599+E168 03               inc bc
 1600+E169 11 14 00         ld de,BUFFER_WINDOW_WIDTH-8
 1601+E16C 19               add hl,de ;increment HL pointer by wwidth
 1602+E16D
 1603+E16D                  ;0,0    ;;;;;;5
 1604+E16D 0A               ld a,(bc)
 1605+E16E 77               ld (hl),a
 1606+E16F 03               inc bc
 1607+E170 23               inc hl
 1608+E171                  ;1,
 1609+E171 0A               ld a,(bc)
 1610+E172 77               ld (hl),a
 1611+E173 03               inc bc
 1612+E174 23               inc hl
 1613+E175                  ;2,
 1614+E175 0A               ld a,(bc)
 1615+E176 77               ld (hl),a
 1616+E177 03               inc bc
 1617+E178 23               inc hl
 1618+E179                  ;3,
 1619+E179 0A               ld a,(bc)
 1620+E17A 77               ld (hl),a
 1621+E17B 03               inc bc
 1622+E17C 23               inc hl
 1623+E17D                  ;4,
 1624+E17D 0A               ld a,(bc)
 1625+E17E 77               ld (hl),a
 1626+E17F 03               inc bc
 1627+E180 23               inc hl
 1628+E181                  ;5,
 1629+E181 0A               ld a,(bc)
 1630+E182 77               ld (hl),a
 1631+E183 03               inc bc
 1632+E184 23               inc hl
 1633+E185                  ;6
 1634+E185 0A               ld a,(bc)
 1635+E186 77               ld (hl),a
 1636+E187 03               inc bc
 1637+E188 23               inc hl
 1638+E189                  ;7,
 1639+E189 0A               ld a,(bc)
 1640+E18A 77               ld (hl),a
 1641+E18B 03               inc bc
 1642+E18C 23               inc hl
 1643+E18D                  ;8,
 1644+E18D 0A               ld a,(bc)
 1645+E18E 77               ld (hl),a
 1646+E18F 03               inc bc
 1647+E190 11 14 00         ld de,BUFFER_WINDOW_WIDTH-8
 1648+E193 19               add hl,de ;increment HL pointer by wwidth
 1649+E194
 1650+E194                  ;0,0    ;;;;;;6
 1651+E194 0A               ld a,(bc)
 1652+E195 77               ld (hl),a
 1653+E196 03               inc bc
 1654+E197 23               inc hl
 1655+E198                  ;1,
 1656+E198 0A               ld a,(bc)
 1657+E199 77               ld (hl),a
 1658+E19A 03               inc bc
 1659+E19B 23               inc hl
 1660+E19C                  ;2,
 1661+E19C 0A               ld a,(bc)
 1662+E19D 77               ld (hl),a
 1663+E19E 03               inc bc
 1664+E19F 23               inc hl
 1665+E1A0                  ;3,
 1666+E1A0 0A               ld a,(bc)
 1667+E1A1 77               ld (hl),a
 1668+E1A2 03               inc bc
 1669+E1A3 23               inc hl
 1670+E1A4                  ;4,
 1671+E1A4 0A               ld a,(bc)
 1672+E1A5 77               ld (hl),a
 1673+E1A6 03               inc bc
 1674+E1A7 23               inc hl
 1675+E1A8                  ;5,
 1676+E1A8 0A               ld a,(bc)
 1677+E1A9 77               ld (hl),a
 1678+E1AA 03               inc bc
 1679+E1AB 23               inc hl
 1680+E1AC                  ;6
 1681+E1AC 0A               ld a,(bc)
 1682+E1AD 77               ld (hl),a
 1683+E1AE 03               inc bc
 1684+E1AF 23               inc hl
 1685+E1B0                  ;7,
 1686+E1B0 0A               ld a,(bc)
 1687+E1B1 77               ld (hl),a
 1688+E1B2 03               inc bc
 1689+E1B3 23               inc hl
 1690+E1B4                  ;8,
 1691+E1B4 0A               ld a,(bc)
 1692+E1B5 77               ld (hl),a
 1693+E1B6 03               inc bc
 1694+E1B7 11 14 00         ld de,BUFFER_WINDOW_WIDTH-8
 1695+E1BA 19               add hl,de ;increment HL pointer by wwidth
 1696+E1BB
 1697+E1BB                  ;0,0    ;;;;;;7
 1698+E1BB 0A               ld a,(bc)
 1699+E1BC 77               ld (hl),a
 1700+E1BD 03               inc bc
 1701+E1BE 23               inc hl
 1702+E1BF                  ;1,
 1703+E1BF 0A               ld a,(bc)
 1704+E1C0 77               ld (hl),a
 1705+E1C1 03               inc bc
 1706+E1C2 23               inc hl
 1707+E1C3                  ;2,
 1708+E1C3 0A               ld a,(bc)
 1709+E1C4 77               ld (hl),a
 1710+E1C5 03               inc bc
 1711+E1C6 23               inc hl
 1712+E1C7                  ;3,
 1713+E1C7 0A               ld a,(bc)
 1714+E1C8 77               ld (hl),a
 1715+E1C9 03               inc bc
 1716+E1CA 23               inc hl
 1717+E1CB                  ;4,
 1718+E1CB 0A               ld a,(bc)
 1719+E1CC 77               ld (hl),a
 1720+E1CD 03               inc bc
 1721+E1CE 23               inc hl
 1722+E1CF                  ;5,
 1723+E1CF 0A               ld a,(bc)
 1724+E1D0 77               ld (hl),a
 1725+E1D1 03               inc bc
 1726+E1D2 23               inc hl
 1727+E1D3                  ;6
 1728+E1D3 0A               ld a,(bc)
 1729+E1D4 77               ld (hl),a
 1730+E1D5 03               inc bc
 1731+E1D6 23               inc hl
 1732+E1D7                  ;7,
 1733+E1D7 0A               ld a,(bc)
 1734+E1D8 77               ld (hl),a
 1735+E1D9 03               inc bc
 1736+E1DA 23               inc hl
 1737+E1DB                  ;8,
 1738+E1DB 0A               ld a,(bc)
 1739+E1DC 77               ld (hl),a
 1740+E1DD 03               inc bc
 1741+E1DE 11 14 00         ld de,BUFFER_WINDOW_WIDTH-8
 1742+E1E1 19               add hl,de ;increment HL pointer by wwidth
 1743+E1E2
 1744+E1E2                  ;0,0    ;;;;;;8
 1745+E1E2 0A               ld a,(bc)
 1746+E1E3 77               ld (hl),a
 1747+E1E4 03               inc bc
 1748+E1E5 23               inc hl
 1749+E1E6                  ;1,
 1750+E1E6 0A               ld a,(bc)
 1751+E1E7 77               ld (hl),a
 1752+E1E8 03               inc bc
 1753+E1E9 23               inc hl
 1754+E1EA                  ;2,
 1755+E1EA 0A               ld a,(bc)
 1756+E1EB 77               ld (hl),a
 1757+E1EC 03               inc bc
 1758+E1ED 23               inc hl
 1759+E1EE                  ;3,
 1760+E1EE 0A               ld a,(bc)
 1761+E1EF 77               ld (hl),a
 1762+E1F0 03               inc bc
 1763+E1F1 23               inc hl
 1764+E1F2                  ;4,
 1765+E1F2 0A               ld a,(bc)
 1766+E1F3 77               ld (hl),a
 1767+E1F4 03               inc bc
 1768+E1F5 23               inc hl
 1769+E1F6                  ;5,
 1770+E1F6 0A               ld a,(bc)
 1771+E1F7 77               ld (hl),a
 1772+E1F8 03               inc bc
 1773+E1F9 23               inc hl
 1774+E1FA                  ;6
 1775+E1FA 0A               ld a,(bc)
 1776+E1FB 77               ld (hl),a
 1777+E1FC 03               inc bc
 1778+E1FD 23               inc hl
 1779+E1FE                  ;7,
 1780+E1FE 0A               ld a,(bc)
 1781+E1FF 77               ld (hl),a
 1782+E200 03               inc bc
 1783+E201 23               inc hl
 1784+E202                  ;8,
 1785+E202 0A               ld a,(bc)
 1786+E203 77               ld (hl),a
 1787+E204 03               inc bc
 1788+E205 11 14 00         ld de,BUFFER_WINDOW_WIDTH-8
 1789+E208 19               add hl,de ;increment HL pointer by wwidth
 1790+E209
 1791+E209                  ;0,0    ;;;;;;9
 1792+E209 0A               ld a,(bc)
 1793+E20A 77               ld (hl),a
 1794+E20B 03               inc bc
 1795+E20C 23               inc hl
 1796+E20D                  ;1,
 1797+E20D 0A               ld a,(bc)
 1798+E20E 77               ld (hl),a
 1799+E20F 03               inc bc
 1800+E210 23               inc hl
 1801+E211                  ;2,
 1802+E211 0A               ld a,(bc)
 1803+E212 77               ld (hl),a
 1804+E213 03               inc bc
 1805+E214 23               inc hl
 1806+E215                  ;3,
 1807+E215 0A               ld a,(bc)
 1808+E216 77               ld (hl),a
 1809+E217 03               inc bc
 1810+E218 23               inc hl
 1811+E219                  ;4,
 1812+E219 0A               ld a,(bc)
 1813+E21A 77               ld (hl),a
 1814+E21B 03               inc bc
 1815+E21C 23               inc hl
 1816+E21D                  ;5,
 1817+E21D 0A               ld a,(bc)
 1818+E21E 77               ld (hl),a
 1819+E21F 03               inc bc
 1820+E220 23               inc hl
 1821+E221                  ;6
 1822+E221 0A               ld a,(bc)
 1823+E222 77               ld (hl),a
 1824+E223 03               inc bc
 1825+E224 23               inc hl
 1826+E225                  ;7,
 1827+E225 0A               ld a,(bc)
 1828+E226 77               ld (hl),a
 1829+E227 03               inc bc
 1830+E228 23               inc hl
 1831+E229                  ;8,
 1832+E229 0A               ld a,(bc)
 1833+E22A 77               ld (hl),a
 1834+E22B 03               inc bc
 1835+E22C 11 14 00         ld de,BUFFER_WINDOW_WIDTH-8
 1836+E22F 19               add hl,de ;increment HL pointer by wwidth
 1837+E230
 1838+E230                  ;0,0    ;;;;;;0
 1839+E230 0A               ld a,(bc)
 1840+E231 77               ld (hl),a
 1841+E232 03               inc bc
 1842+E233 23               inc hl
 1843+E234                  ;1,
 1844+E234 0A               ld a,(bc)
 1845+E235 77               ld (hl),a
 1846+E236 03               inc bc
 1847+E237 23               inc hl
 1848+E238                  ;2,
 1849+E238 0A               ld a,(bc)
 1850+E239 77               ld (hl),a
 1851+E23A 03               inc bc
 1852+E23B 23               inc hl
 1853+E23C                  ;3,
 1854+E23C 0A               ld a,(bc)
 1855+E23D 77               ld (hl),a
 1856+E23E 03               inc bc
 1857+E23F 23               inc hl
 1858+E240                  ;4,
 1859+E240 0A               ld a,(bc)
 1860+E241 77               ld (hl),a
 1861+E242 03               inc bc
 1862+E243 23               inc hl
 1863+E244                  ;5,
 1864+E244 0A               ld a,(bc)
 1865+E245 77               ld (hl),a
 1866+E246 03               inc bc
 1867+E247 23               inc hl
 1868+E248                  ;6
 1869+E248 0A               ld a,(bc)
 1870+E249 77               ld (hl),a
 1871+E24A 03               inc bc
 1872+E24B 23               inc hl
 1873+E24C                  ;7,
 1874+E24C 0A               ld a,(bc)
 1875+E24D 77               ld (hl),a
 1876+E24E 03               inc bc
 1877+E24F 23               inc hl
 1878+E250                  ;8,
 1879+E250 0A               ld a,(bc)
 1880+E251 77               ld (hl),a
 1881+E252 03               inc bc
 1882+E253 11 14 00         ld de,BUFFER_WINDOW_WIDTH-8
 1883+E256 19               add hl,de ;increment HL pointer by wwidth
 1884+E257
 1885+E257                  ;0,0    ;;;;;;1
 1886+E257 0A               ld a,(bc)
 1887+E258 77               ld (hl),a
 1888+E259 03               inc bc
 1889+E25A 23               inc hl
 1890+E25B                  ;1,
 1891+E25B 0A               ld a,(bc)
 1892+E25C 77               ld (hl),a
 1893+E25D 03               inc bc
 1894+E25E 23               inc hl
 1895+E25F                  ;2,
 1896+E25F 0A               ld a,(bc)
 1897+E260 77               ld (hl),a
 1898+E261 03               inc bc
 1899+E262 23               inc hl
 1900+E263                  ;3,
 1901+E263 0A               ld a,(bc)
 1902+E264 77               ld (hl),a
 1903+E265 03               inc bc
 1904+E266 23               inc hl
 1905+E267                  ;4,
 1906+E267 0A               ld a,(bc)
 1907+E268 77               ld (hl),a
 1908+E269 03               inc bc
 1909+E26A 23               inc hl
 1910+E26B                  ;5,
 1911+E26B 0A               ld a,(bc)
 1912+E26C 77               ld (hl),a
 1913+E26D 03               inc bc
 1914+E26E 23               inc hl
 1915+E26F                  ;6
 1916+E26F 0A               ld a,(bc)
 1917+E270 77               ld (hl),a
 1918+E271 03               inc bc
 1919+E272 23               inc hl
 1920+E273                  ;7,
 1921+E273 0A               ld a,(bc)
 1922+E274 77               ld (hl),a
 1923+E275 03               inc bc
 1924+E276 23               inc hl
 1925+E277                  ;8,
 1926+E277 0A               ld a,(bc)
 1927+E278 77               ld (hl),a
 1928+E279 03               inc bc
 1929+E27A 11 14 00         ld de,BUFFER_WINDOW_WIDTH-8
 1930+E27D 19               add hl,de ;increment HL pointer by wwidth
 1931+E27E
 1932+E27E                  ;0,0    ;;;;;;2
 1933+E27E 0A               ld a,(bc)
 1934+E27F 77               ld (hl),a
 1935+E280 03               inc bc
 1936+E281 23               inc hl
 1937+E282                  ;1,
 1938+E282 0A               ld a,(bc)
 1939+E283 77               ld (hl),a
 1940+E284 03               inc bc
 1941+E285 23               inc hl
 1942+E286                  ;2,
 1943+E286 0A               ld a,(bc)
 1944+E287 77               ld (hl),a
 1945+E288 03               inc bc
 1946+E289 23               inc hl
 1947+E28A                  ;3,
 1948+E28A 0A               ld a,(bc)
 1949+E28B 77               ld (hl),a
 1950+E28C 03               inc bc
 1951+E28D 23               inc hl
 1952+E28E                  ;4,
 1953+E28E 0A               ld a,(bc)
 1954+E28F 77               ld (hl),a
 1955+E290 03               inc bc
 1956+E291 23               inc hl
 1957+E292                  ;5,
 1958+E292 0A               ld a,(bc)
 1959+E293 77               ld (hl),a
 1960+E294 03               inc bc
 1961+E295 23               inc hl
 1962+E296                  ;6
 1963+E296 0A               ld a,(bc)
 1964+E297 77               ld (hl),a
 1965+E298 03               inc bc
 1966+E299 23               inc hl
 1967+E29A                  ;7,
 1968+E29A 0A               ld a,(bc)
 1969+E29B 77               ld (hl),a
 1970+E29C 03               inc bc
 1971+E29D 23               inc hl
 1972+E29E                  ;8,
 1973+E29E 0A               ld a,(bc)
 1974+E29F 77               ld (hl),a
 1975+E2A0 03               inc bc
 1976+E2A1 11 14 00         ld de,BUFFER_WINDOW_WIDTH-8
 1977+E2A4 19               add hl,de ;increment HL pointer by wwidth
 1978+E2A5
 1979+E2A5                  ;0,0    ;;;;;;3
 1980+E2A5 0A               ld a,(bc)
 1981+E2A6 77               ld (hl),a
 1982+E2A7 03               inc bc
 1983+E2A8 23               inc hl
 1984+E2A9                  ;1,
 1985+E2A9 0A               ld a,(bc)
 1986+E2AA 77               ld (hl),a
 1987+E2AB 03               inc bc
 1988+E2AC 23               inc hl
 1989+E2AD                  ;2,
 1990+E2AD 0A               ld a,(bc)
 1991+E2AE 77               ld (hl),a
 1992+E2AF 03               inc bc
 1993+E2B0 23               inc hl
 1994+E2B1                  ;3,
 1995+E2B1 0A               ld a,(bc)
 1996+E2B2 77               ld (hl),a
 1997+E2B3 03               inc bc
 1998+E2B4 23               inc hl
 1999+E2B5                  ;4,
 2000+E2B5 0A               ld a,(bc)
 2001+E2B6 77               ld (hl),a
 2002+E2B7 03               inc bc
 2003+E2B8 23               inc hl
 2004+E2B9                  ;5,
 2005+E2B9 0A               ld a,(bc)
 2006+E2BA 77               ld (hl),a
 2007+E2BB 03               inc bc
 2008+E2BC 23               inc hl
 2009+E2BD                  ;6
 2010+E2BD 0A               ld a,(bc)
 2011+E2BE 77               ld (hl),a
 2012+E2BF 03               inc bc
 2013+E2C0 23               inc hl
 2014+E2C1                  ;7,
 2015+E2C1 0A               ld a,(bc)
 2016+E2C2 77               ld (hl),a
 2017+E2C3 03               inc bc
 2018+E2C4 23               inc hl
 2019+E2C5                  ;8,
 2020+E2C5 0A               ld a,(bc)
 2021+E2C6 77               ld (hl),a
 2022+E2C7 03               inc bc
 2023+E2C8 11 14 00         ld de,BUFFER_WINDOW_WIDTH-8
 2024+E2CB 19               add hl,de ;increment HL pointer by wwidth
 2025+E2CC
 2026+E2CC                  ;0,0    ;;;;;;4
 2027+E2CC 0A               ld a,(bc)
 2028+E2CD 77               ld (hl),a
 2029+E2CE 03               inc bc
 2030+E2CF 23               inc hl
 2031+E2D0                  ;1,
 2032+E2D0 0A               ld a,(bc)
 2033+E2D1 77               ld (hl),a
 2034+E2D2 03               inc bc
 2035+E2D3 23               inc hl
 2036+E2D4                  ;2,
 2037+E2D4 0A               ld a,(bc)
 2038+E2D5 77               ld (hl),a
 2039+E2D6 03               inc bc
 2040+E2D7 23               inc hl
 2041+E2D8                  ;3,
 2042+E2D8 0A               ld a,(bc)
 2043+E2D9 77               ld (hl),a
 2044+E2DA 03               inc bc
 2045+E2DB 23               inc hl
 2046+E2DC                  ;4,
 2047+E2DC 0A               ld a,(bc)
 2048+E2DD 77               ld (hl),a
 2049+E2DE 03               inc bc
 2050+E2DF 23               inc hl
 2051+E2E0                  ;5,
 2052+E2E0 0A               ld a,(bc)
 2053+E2E1 77               ld (hl),a
 2054+E2E2 03               inc bc
 2055+E2E3 23               inc hl
 2056+E2E4                  ;6
 2057+E2E4 0A               ld a,(bc)
 2058+E2E5 77               ld (hl),a
 2059+E2E6 03               inc bc
 2060+E2E7 23               inc hl
 2061+E2E8                  ;7,
 2062+E2E8 0A               ld a,(bc)
 2063+E2E9 77               ld (hl),a
 2064+E2EA 03               inc bc
 2065+E2EB 23               inc hl
 2066+E2EC                  ;8,
 2067+E2EC 0A               ld a,(bc)
 2068+E2ED 77               ld (hl),a
 2069+E2EE 03               inc bc
 2070+E2EF 11 14 00         ld de,BUFFER_WINDOW_WIDTH-8
 2071+E2F2 19               add hl,de ;increment HL pointer by wwidth
 2072+E2F3
 2073+E2F3                  ;0,0    ;;;;;;5
 2074+E2F3 0A               ld a,(bc)
 2075+E2F4 77               ld (hl),a
 2076+E2F5 03               inc bc
 2077+E2F6 23               inc hl
 2078+E2F7                  ;1,
 2079+E2F7 0A               ld a,(bc)
 2080+E2F8 77               ld (hl),a
 2081+E2F9 03               inc bc
 2082+E2FA 23               inc hl
 2083+E2FB                  ;2,
 2084+E2FB 0A               ld a,(bc)
 2085+E2FC 77               ld (hl),a
 2086+E2FD 03               inc bc
 2087+E2FE 23               inc hl
 2088+E2FF                  ;3,
 2089+E2FF 0A               ld a,(bc)
 2090+E300 77               ld (hl),a
 2091+E301 03               inc bc
 2092+E302 23               inc hl
 2093+E303                  ;4,
 2094+E303 0A               ld a,(bc)
 2095+E304 77               ld (hl),a
 2096+E305 03               inc bc
 2097+E306 23               inc hl
 2098+E307                  ;5,
 2099+E307 0A               ld a,(bc)
 2100+E308 77               ld (hl),a
 2101+E309 03               inc bc
 2102+E30A 23               inc hl
 2103+E30B                  ;6
 2104+E30B 0A               ld a,(bc)
 2105+E30C 77               ld (hl),a
 2106+E30D 03               inc bc
 2107+E30E 23               inc hl
 2108+E30F                  ;7,
 2109+E30F 0A               ld a,(bc)
 2110+E310 77               ld (hl),a
 2111+E311 03               inc bc
 2112+E312 23               inc hl
 2113+E313                  ;8,
 2114+E313 0A               ld a,(bc)
 2115+E314 77               ld (hl),a
 2116+E315 03               inc bc
 2117+E316 11 14 00         ld de,BUFFER_WINDOW_WIDTH-8
 2118+E319 19               add hl,de ;increment HL pointer by wwidth
 2119+E31A
 2120+E31A                  ;0,0    ;;;;;;6
 2121+E31A 0A               ld a,(bc)
 2122+E31B 77               ld (hl),a
 2123+E31C 03               inc bc
 2124+E31D 23               inc hl
 2125+E31E                  ;1,
 2126+E31E 0A               ld a,(bc)
 2127+E31F 77               ld (hl),a
 2128+E320 03               inc bc
 2129+E321 23               inc hl
 2130+E322                  ;2,
 2131+E322 0A               ld a,(bc)
 2132+E323 77               ld (hl),a
 2133+E324 03               inc bc
 2134+E325 23               inc hl
 2135+E326                  ;3,
 2136+E326 0A               ld a,(bc)
 2137+E327 77               ld (hl),a
 2138+E328 03               inc bc
 2139+E329 23               inc hl
 2140+E32A                  ;4,
 2141+E32A 0A               ld a,(bc)
 2142+E32B 77               ld (hl),a
 2143+E32C 03               inc bc
 2144+E32D 23               inc hl
 2145+E32E                  ;5,
 2146+E32E 0A               ld a,(bc)
 2147+E32F 77               ld (hl),a
 2148+E330 03               inc bc
 2149+E331 23               inc hl
 2150+E332                  ;6
 2151+E332 0A               ld a,(bc)
 2152+E333 77               ld (hl),a
 2153+E334 03               inc bc
 2154+E335 23               inc hl
 2155+E336                  ;7,
 2156+E336 0A               ld a,(bc)
 2157+E337 77               ld (hl),a
 2158+E338 03               inc bc
 2159+E339 23               inc hl
 2160+E33A                  ;8,
 2161+E33A 0A               ld a,(bc)
 2162+E33B 77               ld (hl),a
 2163+E33C 03               inc bc
 2164+E33D 11 14 00         ld de,BUFFER_WINDOW_WIDTH-8
 2165+E340 19               add hl,de ;increment HL pointer by wwidth
 2166+E341
 2167+E341                  ;0,0    ;;;;;;7
 2168+E341 0A               ld a,(bc)
 2169+E342 77               ld (hl),a
 2170+E343 03               inc bc
 2171+E344 23               inc hl
 2172+E345                  ;1,
 2173+E345 0A               ld a,(bc)
 2174+E346 77               ld (hl),a
 2175+E347 03               inc bc
 2176+E348 23               inc hl
 2177+E349                  ;2,
 2178+E349 0A               ld a,(bc)
 2179+E34A 77               ld (hl),a
 2180+E34B 03               inc bc
 2181+E34C 23               inc hl
 2182+E34D                  ;3,
 2183+E34D 0A               ld a,(bc)
 2184+E34E 77               ld (hl),a
 2185+E34F 03               inc bc
 2186+E350 23               inc hl
 2187+E351                  ;4,
 2188+E351 0A               ld a,(bc)
 2189+E352 77               ld (hl),a
 2190+E353 03               inc bc
 2191+E354 23               inc hl
 2192+E355                  ;5,
 2193+E355 0A               ld a,(bc)
 2194+E356 77               ld (hl),a
 2195+E357 03               inc bc
 2196+E358 23               inc hl
 2197+E359                  ;6
 2198+E359 0A               ld a,(bc)
 2199+E35A 77               ld (hl),a
 2200+E35B 03               inc bc
 2201+E35C 23               inc hl
 2202+E35D                  ;7,
 2203+E35D 0A               ld a,(bc)
 2204+E35E 77               ld (hl),a
 2205+E35F 03               inc bc
 2206+E360 23               inc hl
 2207+E361                  ;8,
 2208+E361 0A               ld a,(bc)
 2209+E362 77               ld (hl),a
 2210+E363 C9               ret
 2211+E364
 2212+E364
 2213+E364
 2214+E364
 2215+E364
 2216+E364              ; ;;Window Width of 24....
 2217+E364              ; ;INPUTS:
 2218+E364              ; ;wwidth=24
 2219+E364              ; ;BC=sprite pointer
 2220+E364              ; ;DE=xy
 2221+E364              ; drawsprite88_64:
 2222+E364              ;     ld hl,0
 2223+E364              ;     ld a,e
 2224+E364              ;     ld l,a
 2225+E364              ;     add hl,hl ;HL= y*2
 2226+E364              ;     add hl,hl ;HL= y*4
 2227+E364              ;     push de
 2228+E364              ;     push hl
 2229+E364              ;     pop de ;DE=y*4
 2230+E364              ;     add hl,hl ;HL= y*8
 2231+E364              ;     push bc
 2232+E364              ;     push hl
 2233+E364              ;     pop bc ;BC=y*8
 2234+E364              ;     add hl,hl
 2235+E364              ;     add hl,bc ;HL=y*24
 2236+E364              ;     add hl,de ;HL=y*28
 2237+E364              ;     pop bc
 2238+E364              ;     pop de
 2239+E364              ;     ld e,d
 2240+E364              ;     ld d,0
 2241+E364              ;     add hl,de ;HL+=x
 2242+E364              ;     ld de,GAME_WINDOW_START
 2243+E364              ;     add hl,de ;HL+=memstart
 2244+E364              ;     ;start drawing bytes...
 2245+E364              ;     ;0,0    ;;;;;;0
 2246+E364              ;     ld a,(bc)
 2247+E364              ;     ld (hl),a
 2248+E364              ;     inc bc
 2249+E364              ;     inc hl
 2250+E364              ;     ;1,
 2251+E364              ;     ld a,(bc)
 2252+E364              ;     ld (hl),a
 2253+E364              ;     inc bc
 2254+E364              ;     inc hl
 2255+E364              ;     ;2,
 2256+E364              ;     ld a,(bc)
 2257+E364              ;     ld (hl),a
 2258+E364              ;     inc bc
 2259+E364              ;     inc hl
 2260+E364              ;     ;3,
 2261+E364              ;     ld a,(bc)
 2262+E364              ;     ld (hl),a
 2263+E364              ;     inc bc
 2264+E364              ;     inc hl
 2265+E364              ;     ;4,
 2266+E364              ;     ld a,(bc)
 2267+E364              ;     ld (hl),a
 2268+E364              ;     inc bc
 2269+E364              ;     inc hl
 2270+E364              ;     ;5,
 2271+E364              ;     ld a,(bc)
 2272+E364              ;     ld (hl),a
 2273+E364              ;     inc bc
 2274+E364              ;     inc hl
 2275+E364              ;     ;6
 2276+E364              ;     ld a,(bc)
 2277+E364              ;     ld (hl),a
 2278+E364              ;     inc bc
 2279+E364              ;     inc hl
 2280+E364              ;     ;7,
 2281+E364              ;     ld a,(bc)
 2282+E364              ;     ld (hl),a
 2283+E364              ;     inc bc
 2284+E364              ;     inc hl
 2285+E364              ;     ;8,
 2286+E364              ;     ld a,(bc)
 2287+E364              ;     ld (hl),a
 2288+E364              ;     inc bc
 2289+E364              ;     inc hl
 2290+E364              ;     ;9,
 2291+E364              ;     ld a,(bc)
 2292+E364              ;     ld (hl),a
 2293+E364              ;     inc bc
 2294+E364              ;     inc hl
 2295+E364              ;     ;10,
 2296+E364              ;     ld a,(bc)
 2297+E364              ;     ld (hl),a
 2298+E364              ;     inc bc
 2299+E364              ;     ld de,BUFFER_WINDOW_WIDTH-10
 2300+E364              ;     add hl,de ;increment HL pointer by wwidth
 2301+E364              ;     ;0,0    ;;;;;;1
 2302+E364              ;     ld a,(bc)
 2303+E364              ;     ld (hl),a
 2304+E364              ;     inc bc
 2305+E364              ;     inc hl
 2306+E364              ;     ;1,
 2307+E364              ;     ld a,(bc)
 2308+E364              ;     ld (hl),a
 2309+E364              ;     inc bc
 2310+E364              ;     inc hl
 2311+E364              ;     ;2,
 2312+E364              ;     ld a,(bc)
 2313+E364              ;     ld (hl),a
 2314+E364              ;     inc bc
 2315+E364              ;     inc hl
 2316+E364              ;     ;3,
 2317+E364              ;     ld a,(bc)
 2318+E364              ;     ld (hl),a
 2319+E364              ;     inc bc
 2320+E364              ;     inc hl
 2321+E364              ;     ;4,
 2322+E364              ;     ld a,(bc)
 2323+E364              ;     ld (hl),a
 2324+E364              ;     inc bc
 2325+E364              ;     inc hl
 2326+E364              ;     ;5,
 2327+E364              ;     ld a,(bc)
 2328+E364              ;     ld (hl),a
 2329+E364              ;     inc bc
 2330+E364              ;     inc hl
 2331+E364              ;     ;6
 2332+E364              ;     ld a,(bc)
 2333+E364              ;     ld (hl),a
 2334+E364              ;     inc bc
 2335+E364              ;     inc hl
 2336+E364              ;     ;7,
 2337+E364              ;     ld a,(bc)
 2338+E364              ;     ld (hl),a
 2339+E364              ;     inc bc
 2340+E364              ;     inc hl
 2341+E364              ;     ;8,
 2342+E364              ;     ld a,(bc)
 2343+E364              ;     ld (hl),a
 2344+E364              ;     inc bc
 2345+E364              ;     inc hl
 2346+E364              ;     ;9,
 2347+E364              ;     ld a,(bc)
 2348+E364              ;     ld (hl),a
 2349+E364              ;     inc bc
 2350+E364              ;     inc hl
 2351+E364              ;     ;10,
 2352+E364              ;     ld a,(bc)
 2353+E364              ;     ld (hl),a
 2354+E364              ;     inc bc
 2355+E364              ;     ld de,BUFFER_WINDOW_WIDTH-10
 2356+E364              ;     add hl,de ;increment HL pointer by wwidth
 2357+E364              ;     ;0,0    ;;;;;;2
 2358+E364              ;     ld a,(bc)
 2359+E364              ;     ld (hl),a
 2360+E364              ;     inc bc
 2361+E364              ;     inc hl
 2362+E364              ;     ;1,
 2363+E364              ;     ld a,(bc)
 2364+E364              ;     ld (hl),a
 2365+E364              ;     inc bc
 2366+E364              ;     inc hl
 2367+E364              ;     ;2,
 2368+E364              ;     ld a,(bc)
 2369+E364              ;     ld (hl),a
 2370+E364              ;     inc bc
 2371+E364              ;     inc hl
 2372+E364              ;     ;3,
 2373+E364              ;     ld a,(bc)
 2374+E364              ;     ld (hl),a
 2375+E364              ;     inc bc
 2376+E364              ;     inc hl
 2377+E364              ;     ;4,
 2378+E364              ;     ld a,(bc)
 2379+E364              ;     ld (hl),a
 2380+E364              ;     inc bc
 2381+E364              ;     inc hl
 2382+E364              ;     ;5,
 2383+E364              ;     ld a,(bc)
 2384+E364              ;     ld (hl),a
 2385+E364              ;     inc bc
 2386+E364              ;     inc hl
 2387+E364              ;     ;6
 2388+E364              ;     ld a,(bc)
 2389+E364              ;     ld (hl),a
 2390+E364              ;     inc bc
 2391+E364              ;     inc hl
 2392+E364              ;     ;7,
 2393+E364              ;     ld a,(bc)
 2394+E364              ;     ld (hl),a
 2395+E364              ;     inc bc
 2396+E364              ;     inc hl
 2397+E364              ;     ;8,
 2398+E364              ;     ld a,(bc)
 2399+E364              ;     ld (hl),a
 2400+E364              ;     inc bc
 2401+E364              ;     inc hl
 2402+E364              ;     ;9,
 2403+E364              ;     ld a,(bc)
 2404+E364              ;     ld (hl),a
 2405+E364              ;     inc bc
 2406+E364              ;     inc hl
 2407+E364              ;     ;10,
 2408+E364              ;     ld a,(bc)
 2409+E364              ;     ld (hl),a
 2410+E364              ;     inc bc
 2411+E364              ;     ld de,BUFFER_WINDOW_WIDTH-10
 2412+E364              ;     add hl,de ;increment HL pointer by wwidth
 2413+E364              ;     ;0,0    ;;;;;;3
 2414+E364              ;     ld a,(bc)
 2415+E364              ;     ld (hl),a
 2416+E364              ;     inc bc
 2417+E364              ;     inc hl
 2418+E364              ;     ;1,
 2419+E364              ;     ld a,(bc)
 2420+E364              ;     ld (hl),a
 2421+E364              ;     inc bc
 2422+E364              ;     inc hl
 2423+E364              ;     ;2,
 2424+E364              ;     ld a,(bc)
 2425+E364              ;     ld (hl),a
 2426+E364              ;     inc bc
 2427+E364              ;     inc hl
 2428+E364              ;     ;3,
 2429+E364              ;     ld a,(bc)
 2430+E364              ;     ld (hl),a
 2431+E364              ;     inc bc
 2432+E364              ;     inc hl
 2433+E364              ;     ;4,
 2434+E364              ;     ld a,(bc)
 2435+E364              ;     ld (hl),a
 2436+E364              ;     inc bc
 2437+E364              ;     inc hl
 2438+E364              ;     ;5,
 2439+E364              ;     ld a,(bc)
 2440+E364              ;     ld (hl),a
 2441+E364              ;     inc bc
 2442+E364              ;     inc hl
 2443+E364              ;     ;6
 2444+E364              ;     ld a,(bc)
 2445+E364              ;     ld (hl),a
 2446+E364              ;     inc bc
 2447+E364              ;     inc hl
 2448+E364              ;     ;7,
 2449+E364              ;     ld a,(bc)
 2450+E364              ;     ld (hl),a
 2451+E364              ;     inc bc
 2452+E364              ;     inc hl
 2453+E364              ;     ;8,
 2454+E364              ;     ld a,(bc)
 2455+E364              ;     ld (hl),a
 2456+E364              ;     inc bc
 2457+E364              ;     inc hl
 2458+E364              ;     ;9,
 2459+E364              ;     ld a,(bc)
 2460+E364              ;     ld (hl),a
 2461+E364              ;     inc bc
 2462+E364              ;     inc hl
 2463+E364              ;     ;10,
 2464+E364              ;     ld a,(bc)
 2465+E364              ;     ld (hl),a
 2466+E364              ;     inc bc
 2467+E364              ;     ld de,BUFFER_WINDOW_WIDTH-10
 2468+E364              ;     add hl,de ;increment HL pointer by wwidth
 2469+E364              ;     ;0,0    ;;;;;;4
 2470+E364              ;     ld a,(bc)
 2471+E364              ;     ld (hl),a
 2472+E364              ;     inc bc
 2473+E364              ;     inc hl
 2474+E364              ;     ;1,
 2475+E364              ;     ld a,(bc)
 2476+E364              ;     ld (hl),a
 2477+E364              ;     inc bc
 2478+E364              ;     inc hl
 2479+E364              ;     ;2,
 2480+E364              ;     ld a,(bc)
 2481+E364              ;     ld (hl),a
 2482+E364              ;     inc bc
 2483+E364              ;     inc hl
 2484+E364              ;     ;3,
 2485+E364              ;     ld a,(bc)
 2486+E364              ;     ld (hl),a
 2487+E364              ;     inc bc
 2488+E364              ;     inc hl
 2489+E364              ;     ;4,
 2490+E364              ;     ld a,(bc)
 2491+E364              ;     ld (hl),a
 2492+E364              ;     inc bc
 2493+E364              ;     inc hl
 2494+E364              ;     ;5,
 2495+E364              ;     ld a,(bc)
 2496+E364              ;     ld (hl),a
 2497+E364              ;     inc bc
 2498+E364              ;     inc hl
 2499+E364              ;     ;6
 2500+E364              ;     ld a,(bc)
 2501+E364              ;     ld (hl),a
 2502+E364              ;     inc bc
 2503+E364              ;     inc hl
 2504+E364              ;     ;7,
 2505+E364              ;     ld a,(bc)
 2506+E364              ;     ld (hl),a
 2507+E364              ;     inc bc
 2508+E364              ;     inc hl
 2509+E364              ;     ;8,
 2510+E364              ;     ld a,(bc)
 2511+E364              ;     ld (hl),a
 2512+E364              ;     inc bc
 2513+E364              ;     inc hl
 2514+E364              ;     ;9,
 2515+E364              ;     ld a,(bc)
 2516+E364              ;     ld (hl),a
 2517+E364              ;     inc bc
 2518+E364              ;     inc hl
 2519+E364              ;     ;10,
 2520+E364              ;     ld a,(bc)
 2521+E364              ;     ld (hl),a
 2522+E364              ;     inc bc
 2523+E364              ;     ld de,BUFFER_WINDOW_WIDTH-10
 2524+E364              ;     add hl,de ;increment HL pointer by wwidth
 2525+E364              ;     ;0,0    ;;;;;;5
 2526+E364              ;     ld a,(bc)
 2527+E364              ;     ld (hl),a
 2528+E364              ;     inc bc
 2529+E364              ;     inc hl
 2530+E364              ;     ;1,
 2531+E364              ;     ld a,(bc)
 2532+E364              ;     ld (hl),a
 2533+E364              ;     inc bc
 2534+E364              ;     inc hl
 2535+E364              ;     ;2,
 2536+E364              ;     ld a,(bc)
 2537+E364              ;     ld (hl),a
 2538+E364              ;     inc bc
 2539+E364              ;     inc hl
 2540+E364              ;     ;3,
 2541+E364              ;     ld a,(bc)
 2542+E364              ;     ld (hl),a
 2543+E364              ;     inc bc
 2544+E364              ;     inc hl
 2545+E364              ;     ;4,
 2546+E364              ;     ld a,(bc)
 2547+E364              ;     ld (hl),a
 2548+E364              ;     inc bc
 2549+E364              ;     inc hl
 2550+E364              ;     ;5,
 2551+E364              ;     ld a,(bc)
 2552+E364              ;     ld (hl),a
 2553+E364              ;     inc bc
 2554+E364              ;     inc hl
 2555+E364              ;     ;6
 2556+E364              ;     ld a,(bc)
 2557+E364              ;     ld (hl),a
 2558+E364              ;     inc bc
 2559+E364              ;     inc hl
 2560+E364              ;     ;7,
 2561+E364              ;     ld a,(bc)
 2562+E364              ;     ld (hl),a
 2563+E364              ;     inc bc
 2564+E364              ;     inc hl
 2565+E364              ;     ;8,
 2566+E364              ;     ld a,(bc)
 2567+E364              ;     ld (hl),a
 2568+E364              ;     inc bc
 2569+E364              ;     inc hl
 2570+E364              ;     ;9,
 2571+E364              ;     ld a,(bc)
 2572+E364              ;     ld (hl),a
 2573+E364              ;     inc bc
 2574+E364              ;     inc hl
 2575+E364              ;     ;10,
 2576+E364              ;     ld a,(bc)
 2577+E364              ;     ld (hl),a
 2578+E364              ;     inc bc
 2579+E364              ;     ld de,BUFFER_WINDOW_WIDTH-10
 2580+E364              ;     add hl,de ;increment HL pointer by wwidth
 2581+E364              ;     ;0,0    ;;;;;;6
 2582+E364              ;     ld a,(bc)
 2583+E364              ;     ld (hl),a
 2584+E364              ;     inc bc
 2585+E364              ;     inc hl
 2586+E364              ;     ;1,
 2587+E364              ;     ld a,(bc)
 2588+E364              ;     ld (hl),a
 2589+E364              ;     inc bc
 2590+E364              ;     inc hl
 2591+E364              ;     ;2,
 2592+E364              ;     ld a,(bc)
 2593+E364              ;     ld (hl),a
 2594+E364              ;     inc bc
 2595+E364              ;     inc hl
 2596+E364              ;     ;3,
 2597+E364              ;     ld a,(bc)
 2598+E364              ;     ld (hl),a
 2599+E364              ;     inc bc
 2600+E364              ;     inc hl
 2601+E364              ;     ;4,
 2602+E364              ;     ld a,(bc)
 2603+E364              ;     ld (hl),a
 2604+E364              ;     inc bc
 2605+E364              ;     inc hl
 2606+E364              ;     ;5,
 2607+E364              ;     ld a,(bc)
 2608+E364              ;     ld (hl),a
 2609+E364              ;     inc bc
 2610+E364              ;     inc hl
 2611+E364              ;     ;6
 2612+E364              ;     ld a,(bc)
 2613+E364              ;     ld (hl),a
 2614+E364              ;     inc bc
 2615+E364              ;     inc hl
 2616+E364              ;     ;7,
 2617+E364              ;     ld a,(bc)
 2618+E364              ;     ld (hl),a
 2619+E364              ;     inc bc
 2620+E364              ;     inc hl
 2621+E364              ;     ;8,
 2622+E364              ;     ld a,(bc)
 2623+E364              ;     ld (hl),a
 2624+E364              ;     inc bc
 2625+E364              ;     inc hl
 2626+E364              ;     ;9,
 2627+E364              ;     ld a,(bc)
 2628+E364              ;     ld (hl),a
 2629+E364              ;     inc bc
 2630+E364              ;     inc hl
 2631+E364              ;     ;10,
 2632+E364              ;     ld a,(bc)
 2633+E364              ;     ld (hl),a
 2634+E364              ;     inc bc
 2635+E364              ;     ld de,BUFFER_WINDOW_WIDTH-10
 2636+E364              ;     add hl,de ;increment HL pointer by wwidth
 2637+E364              ;     ;0,0    ;;;;;;7
 2638+E364              ;     ld a,(bc)
 2639+E364              ;     ld (hl),a
 2640+E364              ;     inc bc
 2641+E364              ;     inc hl
 2642+E364              ;     ;1,
 2643+E364              ;     ld a,(bc)
 2644+E364              ;     ld (hl),a
 2645+E364              ;     inc bc
 2646+E364              ;     inc hl
 2647+E364              ;     ;2,
 2648+E364              ;     ld a,(bc)
 2649+E364              ;     ld (hl),a
 2650+E364              ;     inc bc
 2651+E364              ;     inc hl
 2652+E364              ;     ;3,
 2653+E364              ;     ld a,(bc)
 2654+E364              ;     ld (hl),a
 2655+E364              ;     inc bc
 2656+E364              ;     inc hl
 2657+E364              ;     ;4,
 2658+E364              ;     ld a,(bc)
 2659+E364              ;     ld (hl),a
 2660+E364              ;     inc bc
 2661+E364              ;     inc hl
 2662+E364              ;     ;5,
 2663+E364              ;     ld a,(bc)
 2664+E364              ;     ld (hl),a
 2665+E364              ;     inc bc
 2666+E364              ;     inc hl
 2667+E364              ;     ;6
 2668+E364              ;     ld a,(bc)
 2669+E364              ;     ld (hl),a
 2670+E364              ;     inc bc
 2671+E364              ;     inc hl
 2672+E364              ;     ;7,
 2673+E364              ;     ld a,(bc)
 2674+E364              ;     ld (hl),a
 2675+E364              ;     inc bc
 2676+E364              ;     inc hl
 2677+E364              ;     ;8,
 2678+E364              ;     ld a,(bc)
 2679+E364              ;     ld (hl),a
 2680+E364              ;     inc bc
 2681+E364              ;     inc hl
 2682+E364              ;     ;9,
 2683+E364              ;     ld a,(bc)
 2684+E364              ;     ld (hl),a
 2685+E364              ;     inc bc
 2686+E364              ;     inc hl
 2687+E364              ;     ;10,
 2688+E364              ;     ld a,(bc)
 2689+E364              ;     ld (hl),a
 2690+E364              ;     inc bc
 2691+E364              ;     ld de,BUFFER_WINDOW_WIDTH-10
 2692+E364              ;     add hl,de ;increment HL pointer by wwidth
 2693+E364              ;     ;0,0    ;;;;;;8
 2694+E364              ;     ld a,(bc)
 2695+E364              ;     ld (hl),a
 2696+E364              ;     inc bc
 2697+E364              ;     inc hl
 2698+E364              ;     ;1,
 2699+E364              ;     ld a,(bc)
 2700+E364              ;     ld (hl),a
 2701+E364              ;     inc bc
 2702+E364              ;     inc hl
 2703+E364              ;     ;2,
 2704+E364              ;     ld a,(bc)
 2705+E364              ;     ld (hl),a
 2706+E364              ;     inc bc
 2707+E364              ;     inc hl
 2708+E364              ;     ;3,
 2709+E364              ;     ld a,(bc)
 2710+E364              ;     ld (hl),a
 2711+E364              ;     inc bc
 2712+E364              ;     inc hl
 2713+E364              ;     ;4,
 2714+E364              ;     ld a,(bc)
 2715+E364              ;     ld (hl),a
 2716+E364              ;     inc bc
 2717+E364              ;     inc hl
 2718+E364              ;     ;5,
 2719+E364              ;     ld a,(bc)
 2720+E364              ;     ld (hl),a
 2721+E364              ;     inc bc
 2722+E364              ;     inc hl
 2723+E364              ;     ;6
 2724+E364              ;     ld a,(bc)
 2725+E364              ;     ld (hl),a
 2726+E364              ;     inc bc
 2727+E364              ;     inc hl
 2728+E364              ;     ;7,
 2729+E364              ;     ld a,(bc)
 2730+E364              ;     ld (hl),a
 2731+E364              ;     inc bc
 2732+E364              ;     inc hl
 2733+E364              ;     ;8,
 2734+E364              ;     ld a,(bc)
 2735+E364              ;     ld (hl),a
 2736+E364              ;     inc bc
 2737+E364              ;     inc hl
 2738+E364              ;     ;9,
 2739+E364              ;     ld a,(bc)
 2740+E364              ;     ld (hl),a
 2741+E364              ;     inc bc
 2742+E364              ;     inc hl
 2743+E364              ;     ;10,
 2744+E364              ;     ld a,(bc)
 2745+E364              ;     ld (hl),a
 2746+E364              ;     inc bc
 2747+E364              ;     ld de,BUFFER_WINDOW_WIDTH-10
 2748+E364              ;     add hl,de ;increment HL pointer by wwidth
 2749+E364              ;     ;0,0    ;;;;;;9
 2750+E364              ;     ld a,(bc)
 2751+E364              ;     ld (hl),a
 2752+E364              ;     inc bc
 2753+E364              ;     inc hl
 2754+E364              ;     ;1,
 2755+E364              ;     ld a,(bc)
 2756+E364              ;     ld (hl),a
 2757+E364              ;     inc bc
 2758+E364              ;     inc hl
 2759+E364              ;     ;2,
 2760+E364              ;     ld a,(bc)
 2761+E364              ;     ld (hl),a
 2762+E364              ;     inc bc
 2763+E364              ;     inc hl
 2764+E364              ;     ;3,
 2765+E364              ;     ld a,(bc)
 2766+E364              ;     ld (hl),a
 2767+E364              ;     inc bc
 2768+E364              ;     inc hl
 2769+E364              ;     ;4,
 2770+E364              ;     ld a,(bc)
 2771+E364              ;     ld (hl),a
 2772+E364              ;     inc bc
 2773+E364              ;     inc hl
 2774+E364              ;     ;5,
 2775+E364              ;     ld a,(bc)
 2776+E364              ;     ld (hl),a
 2777+E364              ;     inc bc
 2778+E364              ;     inc hl
 2779+E364              ;     ;6
 2780+E364              ;     ld a,(bc)
 2781+E364              ;     ld (hl),a
 2782+E364              ;     inc bc
 2783+E364              ;     inc hl
 2784+E364              ;     ;7,
 2785+E364              ;     ld a,(bc)
 2786+E364              ;     ld (hl),a
 2787+E364              ;     inc bc
 2788+E364              ;     inc hl
 2789+E364              ;     ;8,
 2790+E364              ;     ld a,(bc)
 2791+E364              ;     ld (hl),a
 2792+E364              ;     inc bc
 2793+E364              ;     inc hl
 2794+E364              ;     ;9,
 2795+E364              ;     ld a,(bc)
 2796+E364              ;     ld (hl),a
 2797+E364              ;     inc bc
 2798+E364              ;     inc hl
 2799+E364              ;     ;10,
 2800+E364              ;     ld a,(bc)
 2801+E364              ;     ld (hl),a
 2802+E364              ;     inc bc
 2803+E364              ;     ld de,BUFFER_WINDOW_WIDTH-10
 2804+E364              ;     add hl,de ;increment HL pointer by wwidth
 2805+E364
 2806+E364
 2807+E364
 2808+E364
 2809+E364
 2810+E364
 2811+E364
 2812+E364
 2813+E364
 2814+E364              ;     ;0,0    ;;;;;;10
 2815+E364              ;     ld a,(bc)
 2816+E364              ;     ld (hl),a
 2817+E364              ;     inc bc
 2818+E364              ;     inc hl
 2819+E364              ;     ;1,
 2820+E364              ;     ld a,(bc)
 2821+E364              ;     ld (hl),a
 2822+E364              ;     inc bc
 2823+E364              ;     inc hl
 2824+E364              ;     ;2,
 2825+E364              ;     ld a,(bc)
 2826+E364              ;     ld (hl),a
 2827+E364              ;     inc bc
 2828+E364              ;     inc hl
 2829+E364              ;     ;3,
 2830+E364              ;     ld a,(bc)
 2831+E364              ;     ld (hl),a
 2832+E364              ;     inc bc
 2833+E364              ;     inc hl
 2834+E364              ;     ;4,
 2835+E364              ;     ld a,(bc)
 2836+E364              ;     ld (hl),a
 2837+E364              ;     inc bc
 2838+E364              ;     inc hl
 2839+E364              ;     ;5,
 2840+E364              ;     ld a,(bc)
 2841+E364              ;     ld (hl),a
 2842+E364              ;     inc bc
 2843+E364              ;     inc hl
 2844+E364              ;     ;6
 2845+E364              ;     ld a,(bc)
 2846+E364              ;     ld (hl),a
 2847+E364              ;     inc bc
 2848+E364              ;     inc hl
 2849+E364              ;     ;7,
 2850+E364              ;     ld a,(bc)
 2851+E364              ;     ld (hl),a
 2852+E364              ;     inc bc
 2853+E364              ;     inc hl
 2854+E364              ;     ;8,
 2855+E364              ;     ld a,(bc)
 2856+E364              ;     ld (hl),a
 2857+E364              ;     inc bc
 2858+E364              ;     inc hl
 2859+E364              ;     ;9,
 2860+E364              ;     ld a,(bc)
 2861+E364              ;     ld (hl),a
 2862+E364              ;     inc bc
 2863+E364              ;     inc hl
 2864+E364              ;     ;10,
 2865+E364              ;     ld a,(bc)
 2866+E364              ;     ld (hl),a
 2867+E364              ;     inc bc
 2868+E364              ;     ld de,BUFFER_WINDOW_WIDTH-10
 2869+E364              ;     add hl,de ;increment HL pointer by wwidth
 2870+E364              ;     ;0,0    ;;;;;;1
 2871+E364              ;     ld a,(bc)
 2872+E364              ;     ld (hl),a
 2873+E364              ;     inc bc
 2874+E364              ;     inc hl
 2875+E364              ;     ;1,
 2876+E364              ;     ld a,(bc)
 2877+E364              ;     ld (hl),a
 2878+E364              ;     inc bc
 2879+E364              ;     inc hl
 2880+E364              ;     ;2,
 2881+E364              ;     ld a,(bc)
 2882+E364              ;     ld (hl),a
 2883+E364              ;     inc bc
 2884+E364              ;     inc hl
 2885+E364              ;     ;3,
 2886+E364              ;     ld a,(bc)
 2887+E364              ;     ld (hl),a
 2888+E364              ;     inc bc
 2889+E364              ;     inc hl
 2890+E364              ;     ;4,
 2891+E364              ;     ld a,(bc)
 2892+E364              ;     ld (hl),a
 2893+E364              ;     inc bc
 2894+E364              ;     inc hl
 2895+E364              ;     ;5,
 2896+E364              ;     ld a,(bc)
 2897+E364              ;     ld (hl),a
 2898+E364              ;     inc bc
 2899+E364              ;     inc hl
 2900+E364              ;     ;6
 2901+E364              ;     ld a,(bc)
 2902+E364              ;     ld (hl),a
 2903+E364              ;     inc bc
 2904+E364              ;     inc hl
 2905+E364              ;     ;7,
 2906+E364              ;     ld a,(bc)
 2907+E364              ;     ld (hl),a
 2908+E364              ;     inc bc
 2909+E364              ;     inc hl
 2910+E364              ;     ;8,
 2911+E364              ;     ld a,(bc)
 2912+E364              ;     ld (hl),a
 2913+E364              ;     inc bc
 2914+E364              ;     inc hl
 2915+E364              ;     ;9,
 2916+E364              ;     ld a,(bc)
 2917+E364              ;     ld (hl),a
 2918+E364              ;     inc bc
 2919+E364              ;     inc hl
 2920+E364              ;     ;10,
 2921+E364              ;     ld a,(bc)
 2922+E364              ;     ld (hl),a
 2923+E364              ;     inc bc
 2924+E364              ;     ld de,BUFFER_WINDOW_WIDTH-10
 2925+E364              ;     add hl,de ;increment HL pointer by wwidth
 2926+E364              ;     ;0,0    ;;;;;;2
 2927+E364              ;     ld a,(bc)
 2928+E364              ;     ld (hl),a
 2929+E364              ;     inc bc
 2930+E364              ;     inc hl
 2931+E364              ;     ;1,
 2932+E364              ;     ld a,(bc)
 2933+E364              ;     ld (hl),a
 2934+E364              ;     inc bc
 2935+E364              ;     inc hl
 2936+E364              ;     ;2,
 2937+E364              ;     ld a,(bc)
 2938+E364              ;     ld (hl),a
 2939+E364              ;     inc bc
 2940+E364              ;     inc hl
 2941+E364              ;     ;3,
 2942+E364              ;     ld a,(bc)
 2943+E364              ;     ld (hl),a
 2944+E364              ;     inc bc
 2945+E364              ;     inc hl
 2946+E364              ;     ;4,
 2947+E364              ;     ld a,(bc)
 2948+E364              ;     ld (hl),a
 2949+E364              ;     inc bc
 2950+E364              ;     inc hl
 2951+E364              ;     ;5,
 2952+E364              ;     ld a,(bc)
 2953+E364              ;     ld (hl),a
 2954+E364              ;     inc bc
 2955+E364              ;     inc hl
 2956+E364              ;     ;6
 2957+E364              ;     ld a,(bc)
 2958+E364              ;     ld (hl),a
 2959+E364              ;     inc bc
 2960+E364              ;     inc hl
 2961+E364              ;     ;7,
 2962+E364              ;     ld a,(bc)
 2963+E364              ;     ld (hl),a
 2964+E364              ;     inc bc
 2965+E364              ;     inc hl
 2966+E364              ;     ;8,
 2967+E364              ;     ld a,(bc)
 2968+E364              ;     ld (hl),a
 2969+E364              ;     inc bc
 2970+E364              ;     inc hl
 2971+E364              ;     ;9,
 2972+E364              ;     ld a,(bc)
 2973+E364              ;     ld (hl),a
 2974+E364              ;     inc bc
 2975+E364              ;     inc hl
 2976+E364              ;     ;10,
 2977+E364              ;     ld a,(bc)
 2978+E364              ;     ld (hl),a
 2979+E364              ;     inc bc
 2980+E364              ;     ld de,BUFFER_WINDOW_WIDTH-10
 2981+E364              ;     add hl,de ;increment HL pointer by wwidth
 2982+E364              ;     ;0,0    ;;;;;;3
 2983+E364              ;     ld a,(bc)
 2984+E364              ;     ld (hl),a
 2985+E364              ;     inc bc
 2986+E364              ;     inc hl
 2987+E364              ;     ;1,
 2988+E364              ;     ld a,(bc)
 2989+E364              ;     ld (hl),a
 2990+E364              ;     inc bc
 2991+E364              ;     inc hl
 2992+E364              ;     ;2,
 2993+E364              ;     ld a,(bc)
 2994+E364              ;     ld (hl),a
 2995+E364              ;     inc bc
 2996+E364              ;     inc hl
 2997+E364              ;     ;3,
 2998+E364              ;     ld a,(bc)
 2999+E364              ;     ld (hl),a
 3000+E364              ;     inc bc
 3001+E364              ;     inc hl
 3002+E364              ;     ;4,
 3003+E364              ;     ld a,(bc)
 3004+E364              ;     ld (hl),a
 3005+E364              ;     inc bc
 3006+E364              ;     inc hl
 3007+E364              ;     ;5,
 3008+E364              ;     ld a,(bc)
 3009+E364              ;     ld (hl),a
 3010+E364              ;     inc bc
 3011+E364              ;     inc hl
 3012+E364              ;     ;6
 3013+E364              ;     ld a,(bc)
 3014+E364              ;     ld (hl),a
 3015+E364              ;     inc bc
 3016+E364              ;     inc hl
 3017+E364              ;     ;7,
 3018+E364              ;     ld a,(bc)
 3019+E364              ;     ld (hl),a
 3020+E364              ;     inc bc
 3021+E364              ;     inc hl
 3022+E364              ;     ;8,
 3023+E364              ;     ld a,(bc)
 3024+E364              ;     ld (hl),a
 3025+E364              ;     inc bc
 3026+E364              ;     inc hl
 3027+E364              ;     ;9,
 3028+E364              ;     ld a,(bc)
 3029+E364              ;     ld (hl),a
 3030+E364              ;     inc bc
 3031+E364              ;     inc hl
 3032+E364              ;     ;10,
 3033+E364              ;     ld a,(bc)
 3034+E364              ;     ld (hl),a
 3035+E364              ;     inc bc
 3036+E364              ;     ld de,BUFFER_WINDOW_WIDTH-10
 3037+E364              ;     add hl,de ;increment HL pointer by wwidth
 3038+E364              ;     ;0,0    ;;;;;;4
 3039+E364              ;     ld a,(bc)
 3040+E364              ;     ld (hl),a
 3041+E364              ;     inc bc
 3042+E364              ;     inc hl
 3043+E364              ;     ;1,
 3044+E364              ;     ld a,(bc)
 3045+E364              ;     ld (hl),a
 3046+E364              ;     inc bc
 3047+E364              ;     inc hl
 3048+E364              ;     ;2,
 3049+E364              ;     ld a,(bc)
 3050+E364              ;     ld (hl),a
 3051+E364              ;     inc bc
 3052+E364              ;     inc hl
 3053+E364              ;     ;3,
 3054+E364              ;     ld a,(bc)
 3055+E364              ;     ld (hl),a
 3056+E364              ;     inc bc
 3057+E364              ;     inc hl
 3058+E364              ;     ;4,
 3059+E364              ;     ld a,(bc)
 3060+E364              ;     ld (hl),a
 3061+E364              ;     inc bc
 3062+E364              ;     inc hl
 3063+E364              ;     ;5,
 3064+E364              ;     ld a,(bc)
 3065+E364              ;     ld (hl),a
 3066+E364              ;     inc bc
 3067+E364              ;     inc hl
 3068+E364              ;     ;6
 3069+E364              ;     ld a,(bc)
 3070+E364              ;     ld (hl),a
 3071+E364              ;     inc bc
 3072+E364              ;     inc hl
 3073+E364              ;     ;7,
 3074+E364              ;     ld a,(bc)
 3075+E364              ;     ld (hl),a
 3076+E364              ;     inc bc
 3077+E364              ;     inc hl
 3078+E364              ;     ;8,
 3079+E364              ;     ld a,(bc)
 3080+E364              ;     ld (hl),a
 3081+E364              ;     inc bc
 3082+E364              ;     inc hl
 3083+E364              ;     ;9,
 3084+E364              ;     ld a,(bc)
 3085+E364              ;     ld (hl),a
 3086+E364              ;     inc bc
 3087+E364              ;     inc hl
 3088+E364              ;     ;10,
 3089+E364              ;     ld a,(bc)
 3090+E364              ;     ld (hl),a
 3091+E364              ;     inc bc
 3092+E364              ;     ld de,BUFFER_WINDOW_WIDTH-10
 3093+E364              ;     add hl,de ;increment HL pointer by wwidth
 3094+E364              ;     ;0,0    ;;;;;;5
 3095+E364              ;     ld a,(bc)
 3096+E364              ;     ld (hl),a
 3097+E364              ;     inc bc
 3098+E364              ;     inc hl
 3099+E364              ;     ;1,
 3100+E364              ;     ld a,(bc)
 3101+E364              ;     ld (hl),a
 3102+E364              ;     inc bc
 3103+E364              ;     inc hl
 3104+E364              ;     ;2,
 3105+E364              ;     ld a,(bc)
 3106+E364              ;     ld (hl),a
 3107+E364              ;     inc bc
 3108+E364              ;     inc hl
 3109+E364              ;     ;3,
 3110+E364              ;     ld a,(bc)
 3111+E364              ;     ld (hl),a
 3112+E364              ;     inc bc
 3113+E364              ;     inc hl
 3114+E364              ;     ;4,
 3115+E364              ;     ld a,(bc)
 3116+E364              ;     ld (hl),a
 3117+E364              ;     inc bc
 3118+E364              ;     inc hl
 3119+E364              ;     ;5,
 3120+E364              ;     ld a,(bc)
 3121+E364              ;     ld (hl),a
 3122+E364              ;     inc bc
 3123+E364              ;     inc hl
 3124+E364              ;     ;6
 3125+E364              ;     ld a,(bc)
 3126+E364              ;     ld (hl),a
 3127+E364              ;     inc bc
 3128+E364              ;     inc hl
 3129+E364              ;     ;7,
 3130+E364              ;     ld a,(bc)
 3131+E364              ;     ld (hl),a
 3132+E364              ;     inc bc
 3133+E364              ;     inc hl
 3134+E364              ;     ;8,
 3135+E364              ;     ld a,(bc)
 3136+E364              ;     ld (hl),a
 3137+E364              ;     inc bc
 3138+E364              ;     inc hl
 3139+E364              ;     ;9,
 3140+E364              ;     ld a,(bc)
 3141+E364              ;     ld (hl),a
 3142+E364              ;     inc bc
 3143+E364              ;     inc hl
 3144+E364              ;     ;10,
 3145+E364              ;     ld a,(bc)
 3146+E364              ;     ld (hl),a
 3147+E364              ;     inc bc
 3148+E364              ;     ld de,BUFFER_WINDOW_WIDTH-10
 3149+E364              ;     add hl,de ;increment HL pointer by wwidth
 3150+E364              ;     ;0,0    ;;;;;;6
 3151+E364              ;     ld a,(bc)
 3152+E364              ;     ld (hl),a
 3153+E364              ;     inc bc
 3154+E364              ;     inc hl
 3155+E364              ;     ;1,
 3156+E364              ;     ld a,(bc)
 3157+E364              ;     ld (hl),a
 3158+E364              ;     inc bc
 3159+E364              ;     inc hl
 3160+E364              ;     ;2,
 3161+E364              ;     ld a,(bc)
 3162+E364              ;     ld (hl),a
 3163+E364              ;     inc bc
 3164+E364              ;     inc hl
 3165+E364              ;     ;3,
 3166+E364              ;     ld a,(bc)
 3167+E364              ;     ld (hl),a
 3168+E364              ;     inc bc
 3169+E364              ;     inc hl
 3170+E364              ;     ;4,
 3171+E364              ;     ld a,(bc)
 3172+E364              ;     ld (hl),a
 3173+E364              ;     inc bc
 3174+E364              ;     inc hl
 3175+E364              ;     ;5,
 3176+E364              ;     ld a,(bc)
 3177+E364              ;     ld (hl),a
 3178+E364              ;     inc bc
 3179+E364              ;     inc hl
 3180+E364              ;     ;6
 3181+E364              ;     ld a,(bc)
 3182+E364              ;     ld (hl),a
 3183+E364              ;     inc bc
 3184+E364              ;     inc hl
 3185+E364              ;     ;7,
 3186+E364              ;     ld a,(bc)
 3187+E364              ;     ld (hl),a
 3188+E364              ;     inc bc
 3189+E364              ;     inc hl
 3190+E364              ;     ;8,
 3191+E364              ;     ld a,(bc)
 3192+E364              ;     ld (hl),a
 3193+E364              ;     inc bc
 3194+E364              ;     inc hl
 3195+E364              ;     ;9,
 3196+E364              ;     ld a,(bc)
 3197+E364              ;     ld (hl),a
 3198+E364              ;     inc bc
 3199+E364              ;     inc hl
 3200+E364              ;     ;10,
 3201+E364              ;     ld a,(bc)
 3202+E364              ;     ld (hl),a
 3203+E364              ;     inc bc
 3204+E364              ;     ld de,BUFFER_WINDOW_WIDTH-10
 3205+E364              ;     add hl,de ;increment HL pointer by wwidth
 3206+E364              ;     ;0,0    ;;;;;;7
 3207+E364              ;     ld a,(bc)
 3208+E364              ;     ld (hl),a
 3209+E364              ;     inc bc
 3210+E364              ;     inc hl
 3211+E364              ;     ;1,
 3212+E364              ;     ld a,(bc)
 3213+E364              ;     ld (hl),a
 3214+E364              ;     inc bc
 3215+E364              ;     inc hl
 3216+E364              ;     ;2,
 3217+E364              ;     ld a,(bc)
 3218+E364              ;     ld (hl),a
 3219+E364              ;     inc bc
 3220+E364              ;     inc hl
 3221+E364              ;     ;3,
 3222+E364              ;     ld a,(bc)
 3223+E364              ;     ld (hl),a
 3224+E364              ;     inc bc
 3225+E364              ;     inc hl
 3226+E364              ;     ;4,
 3227+E364              ;     ld a,(bc)
 3228+E364              ;     ld (hl),a
 3229+E364              ;     inc bc
 3230+E364              ;     inc hl
 3231+E364              ;     ;5,
 3232+E364              ;     ld a,(bc)
 3233+E364              ;     ld (hl),a
 3234+E364              ;     inc bc
 3235+E364              ;     inc hl
 3236+E364              ;     ;6
 3237+E364              ;     ld a,(bc)
 3238+E364              ;     ld (hl),a
 3239+E364              ;     inc bc
 3240+E364              ;     inc hl
 3241+E364              ;     ;7,
 3242+E364              ;     ld a,(bc)
 3243+E364              ;     ld (hl),a
 3244+E364              ;     inc bc
 3245+E364              ;     inc hl
 3246+E364              ;     ;8,
 3247+E364              ;     ld a,(bc)
 3248+E364              ;     ld (hl),a
 3249+E364              ;     inc bc
 3250+E364              ;     inc hl
 3251+E364              ;     ;9,
 3252+E364              ;     ld a,(bc)
 3253+E364              ;     ld (hl),a
 3254+E364              ;     inc bc
 3255+E364              ;     inc hl
 3256+E364              ;     ;10,
 3257+E364              ;     ld a,(bc)
 3258+E364              ;     ld (hl),a
 3259+E364              ;     inc bc
 3260+E364              ;     ld de,BUFFER_WINDOW_WIDTH-10
 3261+E364              ;     add hl,de ;increment HL pointer by wwidth
 3262+E364              ;     ;0,0    ;;;;;;8
 3263+E364              ;     ld a,(bc)
 3264+E364              ;     ld (hl),a
 3265+E364              ;     inc bc
 3266+E364              ;     inc hl
 3267+E364              ;     ;1,
 3268+E364              ;     ld a,(bc)
 3269+E364              ;     ld (hl),a
 3270+E364              ;     inc bc
 3271+E364              ;     inc hl
 3272+E364              ;     ;2,
 3273+E364              ;     ld a,(bc)
 3274+E364              ;     ld (hl),a
 3275+E364              ;     inc bc
 3276+E364              ;     inc hl
 3277+E364              ;     ;3,
 3278+E364              ;     ld a,(bc)
 3279+E364              ;     ld (hl),a
 3280+E364              ;     inc bc
 3281+E364              ;     inc hl
 3282+E364              ;     ;4,
 3283+E364              ;     ld a,(bc)
 3284+E364              ;     ld (hl),a
 3285+E364              ;     inc bc
 3286+E364              ;     inc hl
 3287+E364              ;     ;5,
 3288+E364              ;     ld a,(bc)
 3289+E364              ;     ld (hl),a
 3290+E364              ;     inc bc
 3291+E364              ;     inc hl
 3292+E364              ;     ;6
 3293+E364              ;     ld a,(bc)
 3294+E364              ;     ld (hl),a
 3295+E364              ;     inc bc
 3296+E364              ;     inc hl
 3297+E364              ;     ;7,
 3298+E364              ;     ld a,(bc)
 3299+E364              ;     ld (hl),a
 3300+E364              ;     inc bc
 3301+E364              ;     inc hl
 3302+E364              ;     ;8,
 3303+E364              ;     ld a,(bc)
 3304+E364              ;     ld (hl),a
 3305+E364              ;     inc bc
 3306+E364              ;     inc hl
 3307+E364              ;     ;9,
 3308+E364              ;     ld a,(bc)
 3309+E364              ;     ld (hl),a
 3310+E364              ;     inc bc
 3311+E364              ;     inc hl
 3312+E364              ;     ;10,
 3313+E364              ;     ld a,(bc)
 3314+E364              ;     ld (hl),a
 3315+E364              ;     inc bc
 3316+E364              ;     ld de,BUFFER_WINDOW_WIDTH-10
 3317+E364              ;     add hl,de ;increment HL pointer by wwidth
 3318+E364              ;     ;0,0    ;;;;;;9
 3319+E364              ;     ld a,(bc)
 3320+E364              ;     ld (hl),a
 3321+E364              ;     inc bc
 3322+E364              ;     inc hl
 3323+E364              ;     ;1,
 3324+E364              ;     ld a,(bc)
 3325+E364              ;     ld (hl),a
 3326+E364              ;     inc bc
 3327+E364              ;     inc hl
 3328+E364              ;     ;2,
 3329+E364              ;     ld a,(bc)
 3330+E364              ;     ld (hl),a
 3331+E364              ;     inc bc
 3332+E364              ;     inc hl
 3333+E364              ;     ;3,
 3334+E364              ;     ld a,(bc)
 3335+E364              ;     ld (hl),a
 3336+E364              ;     inc bc
 3337+E364              ;     inc hl
 3338+E364              ;     ;4,
 3339+E364              ;     ld a,(bc)
 3340+E364              ;     ld (hl),a
 3341+E364              ;     inc bc
 3342+E364              ;     inc hl
 3343+E364              ;     ;5,
 3344+E364              ;     ld a,(bc)
 3345+E364              ;     ld (hl),a
 3346+E364              ;     inc bc
 3347+E364              ;     inc hl
 3348+E364              ;     ;6
 3349+E364              ;     ld a,(bc)
 3350+E364              ;     ld (hl),a
 3351+E364              ;     inc bc
 3352+E364              ;     inc hl
 3353+E364              ;     ;7,
 3354+E364              ;     ld a,(bc)
 3355+E364              ;     ld (hl),a
 3356+E364              ;     inc bc
 3357+E364              ;     inc hl
 3358+E364              ;     ;8,
 3359+E364              ;     ld a,(bc)
 3360+E364              ;     ld (hl),a
 3361+E364              ;     inc bc
 3362+E364              ;     inc hl
 3363+E364              ;     ;9,
 3364+E364              ;     ld a,(bc)
 3365+E364              ;     ld (hl),a
 3366+E364              ;     inc bc
 3367+E364              ;     inc hl
 3368+E364              ;     ;10,
 3369+E364              ;     ld a,(bc)
 3370+E364              ;     ld (hl),a
 3371+E364              ;     inc bc
 3372+E364              ;     ld de,BUFFER_WINDOW_WIDTH-10
 3373+E364              ;     add hl,de ;increment HL pointer by wwidth
 3374+E364
 3375+E364
 3376+E364
 3377+E364
 3378+E364
 3379+E364
 3380+E364
 3381+E364
 3382+E364
 3383+E364
 3384+E364
 3385+E364
 3386+E364
 3387+E364
 3388+E364
 3389+E364
 3390+E364
 3391+E364              ;     ;0,0    ;;;;;;20
 3392+E364              ;     ld a,(bc)
 3393+E364              ;     ld (hl),a
 3394+E364              ;     inc bc
 3395+E364              ;     inc hl
 3396+E364              ;     ;1,
 3397+E364              ;     ld a,(bc)
 3398+E364              ;     ld (hl),a
 3399+E364              ;     inc bc
 3400+E364              ;     inc hl
 3401+E364              ;     ;2,
 3402+E364              ;     ld a,(bc)
 3403+E364              ;     ld (hl),a
 3404+E364              ;     inc bc
 3405+E364              ;     inc hl
 3406+E364              ;     ;3,
 3407+E364              ;     ld a,(bc)
 3408+E364              ;     ld (hl),a
 3409+E364              ;     inc bc
 3410+E364              ;     inc hl
 3411+E364              ;     ;4,
 3412+E364              ;     ld a,(bc)
 3413+E364              ;     ld (hl),a
 3414+E364              ;     inc bc
 3415+E364              ;     inc hl
 3416+E364              ;     ;5,
 3417+E364              ;     ld a,(bc)
 3418+E364              ;     ld (hl),a
 3419+E364              ;     inc bc
 3420+E364              ;     inc hl
 3421+E364              ;     ;6
 3422+E364              ;     ld a,(bc)
 3423+E364              ;     ld (hl),a
 3424+E364              ;     inc bc
 3425+E364              ;     inc hl
 3426+E364              ;     ;7,
 3427+E364              ;     ld a,(bc)
 3428+E364              ;     ld (hl),a
 3429+E364              ;     inc bc
 3430+E364              ;     inc hl
 3431+E364              ;     ;8,
 3432+E364              ;     ld a,(bc)
 3433+E364              ;     ld (hl),a
 3434+E364              ;     inc bc
 3435+E364              ;     inc hl
 3436+E364              ;     ;9,
 3437+E364              ;     ld a,(bc)
 3438+E364              ;     ld (hl),a
 3439+E364              ;     inc bc
 3440+E364              ;     inc hl
 3441+E364              ;     ;10,
 3442+E364              ;     ld a,(bc)
 3443+E364              ;     ld (hl),a
 3444+E364              ;     inc bc
 3445+E364              ;     ld de,BUFFER_WINDOW_WIDTH-10
 3446+E364              ;     add hl,de ;increment HL pointer by wwidth
 3447+E364              ;     ;0,0    ;;;;;;1
 3448+E364              ;     ld a,(bc)
 3449+E364              ;     ld (hl),a
 3450+E364              ;     inc bc
 3451+E364              ;     inc hl
 3452+E364              ;     ;1,
 3453+E364              ;     ld a,(bc)
 3454+E364              ;     ld (hl),a
 3455+E364              ;     inc bc
 3456+E364              ;     inc hl
 3457+E364              ;     ;2,
 3458+E364              ;     ld a,(bc)
 3459+E364              ;     ld (hl),a
 3460+E364              ;     inc bc
 3461+E364              ;     inc hl
 3462+E364              ;     ;3,
 3463+E364              ;     ld a,(bc)
 3464+E364              ;     ld (hl),a
 3465+E364              ;     inc bc
 3466+E364              ;     inc hl
 3467+E364              ;     ;4,
 3468+E364              ;     ld a,(bc)
 3469+E364              ;     ld (hl),a
 3470+E364              ;     inc bc
 3471+E364              ;     inc hl
 3472+E364              ;     ;5,
 3473+E364              ;     ld a,(bc)
 3474+E364              ;     ld (hl),a
 3475+E364              ;     inc bc
 3476+E364              ;     inc hl
 3477+E364              ;     ;6
 3478+E364              ;     ld a,(bc)
 3479+E364              ;     ld (hl),a
 3480+E364              ;     inc bc
 3481+E364              ;     inc hl
 3482+E364              ;     ;7,
 3483+E364              ;     ld a,(bc)
 3484+E364              ;     ld (hl),a
 3485+E364              ;     inc bc
 3486+E364              ;     inc hl
 3487+E364              ;     ;8,
 3488+E364              ;     ld a,(bc)
 3489+E364              ;     ld (hl),a
 3490+E364              ;     inc bc
 3491+E364              ;     inc hl
 3492+E364              ;     ;9,
 3493+E364              ;     ld a,(bc)
 3494+E364              ;     ld (hl),a
 3495+E364              ;     inc bc
 3496+E364              ;     inc hl
 3497+E364              ;     ;10,
 3498+E364              ;     ld a,(bc)
 3499+E364              ;     ld (hl),a
 3500+E364              ;     inc bc
 3501+E364              ;     ld de,BUFFER_WINDOW_WIDTH-10
 3502+E364              ;     add hl,de ;increment HL pointer by wwidth
 3503+E364              ;     ;0,0    ;;;;;;2
 3504+E364              ;     ld a,(bc)
 3505+E364              ;     ld (hl),a
 3506+E364              ;     inc bc
 3507+E364              ;     inc hl
 3508+E364              ;     ;1,
 3509+E364              ;     ld a,(bc)
 3510+E364              ;     ld (hl),a
 3511+E364              ;     inc bc
 3512+E364              ;     inc hl
 3513+E364              ;     ;2,
 3514+E364              ;     ld a,(bc)
 3515+E364              ;     ld (hl),a
 3516+E364              ;     inc bc
 3517+E364              ;     inc hl
 3518+E364              ;     ;3,
 3519+E364              ;     ld a,(bc)
 3520+E364              ;     ld (hl),a
 3521+E364              ;     inc bc
 3522+E364              ;     inc hl
 3523+E364              ;     ;4,
 3524+E364              ;     ld a,(bc)
 3525+E364              ;     ld (hl),a
 3526+E364              ;     inc bc
 3527+E364              ;     inc hl
 3528+E364              ;     ;5,
 3529+E364              ;     ld a,(bc)
 3530+E364              ;     ld (hl),a
 3531+E364              ;     inc bc
 3532+E364              ;     inc hl
 3533+E364              ;     ;6
 3534+E364              ;     ld a,(bc)
 3535+E364              ;     ld (hl),a
 3536+E364              ;     inc bc
 3537+E364              ;     inc hl
 3538+E364              ;     ;7,
 3539+E364              ;     ld a,(bc)
 3540+E364              ;     ld (hl),a
 3541+E364              ;     inc bc
 3542+E364              ;     inc hl
 3543+E364              ;     ;8,
 3544+E364              ;     ld a,(bc)
 3545+E364              ;     ld (hl),a
 3546+E364              ;     inc bc
 3547+E364              ;     inc hl
 3548+E364              ;     ;9,
 3549+E364              ;     ld a,(bc)
 3550+E364              ;     ld (hl),a
 3551+E364              ;     inc bc
 3552+E364              ;     inc hl
 3553+E364              ;     ;10,
 3554+E364              ;     ld a,(bc)
 3555+E364              ;     ld (hl),a
 3556+E364              ;     inc bc
 3557+E364              ;     ld de,BUFFER_WINDOW_WIDTH-10
 3558+E364              ;     add hl,de ;increment HL pointer by wwidth
 3559+E364              ;     ;0,0    ;;;;;;3
 3560+E364              ;     ld a,(bc)
 3561+E364              ;     ld (hl),a
 3562+E364              ;     inc bc
 3563+E364              ;     inc hl
 3564+E364              ;     ;1,
 3565+E364              ;     ld a,(bc)
 3566+E364              ;     ld (hl),a
 3567+E364              ;     inc bc
 3568+E364              ;     inc hl
 3569+E364              ;     ;2,
 3570+E364              ;     ld a,(bc)
 3571+E364              ;     ld (hl),a
 3572+E364              ;     inc bc
 3573+E364              ;     inc hl
 3574+E364              ;     ;3,
 3575+E364              ;     ld a,(bc)
 3576+E364              ;     ld (hl),a
 3577+E364              ;     inc bc
 3578+E364              ;     inc hl
 3579+E364              ;     ;4,
 3580+E364              ;     ld a,(bc)
 3581+E364              ;     ld (hl),a
 3582+E364              ;     inc bc
 3583+E364              ;     inc hl
 3584+E364              ;     ;5,
 3585+E364              ;     ld a,(bc)
 3586+E364              ;     ld (hl),a
 3587+E364              ;     inc bc
 3588+E364              ;     inc hl
 3589+E364              ;     ;6
 3590+E364              ;     ld a,(bc)
 3591+E364              ;     ld (hl),a
 3592+E364              ;     inc bc
 3593+E364              ;     inc hl
 3594+E364              ;     ;7,
 3595+E364              ;     ld a,(bc)
 3596+E364              ;     ld (hl),a
 3597+E364              ;     inc bc
 3598+E364              ;     inc hl
 3599+E364              ;     ;8,
 3600+E364              ;     ld a,(bc)
 3601+E364              ;     ld (hl),a
 3602+E364              ;     inc bc
 3603+E364              ;     inc hl
 3604+E364              ;     ;9,
 3605+E364              ;     ld a,(bc)
 3606+E364              ;     ld (hl),a
 3607+E364              ;     inc bc
 3608+E364              ;     inc hl
 3609+E364              ;     ;10,
 3610+E364              ;     ld a,(bc)
 3611+E364              ;     ld (hl),a
 3612+E364              ;     inc bc
 3613+E364              ;     ld de,BUFFER_WINDOW_WIDTH-10
 3614+E364              ;     add hl,de ;increment HL pointer by wwidth
 3615+E364              ;     ;0,0    ;;;;;;4
 3616+E364              ;     ld a,(bc)
 3617+E364              ;     ld (hl),a
 3618+E364              ;     inc bc
 3619+E364              ;     inc hl
 3620+E364              ;     ;1,
 3621+E364              ;     ld a,(bc)
 3622+E364              ;     ld (hl),a
 3623+E364              ;     inc bc
 3624+E364              ;     inc hl
 3625+E364              ;     ;2,
 3626+E364              ;     ld a,(bc)
 3627+E364              ;     ld (hl),a
 3628+E364              ;     inc bc
 3629+E364              ;     inc hl
 3630+E364              ;     ;3,
 3631+E364              ;     ld a,(bc)
 3632+E364              ;     ld (hl),a
 3633+E364              ;     inc bc
 3634+E364              ;     inc hl
 3635+E364              ;     ;4,
 3636+E364              ;     ld a,(bc)
 3637+E364              ;     ld (hl),a
 3638+E364              ;     inc bc
 3639+E364              ;     inc hl
 3640+E364              ;     ;5,
 3641+E364              ;     ld a,(bc)
 3642+E364              ;     ld (hl),a
 3643+E364              ;     inc bc
 3644+E364              ;     inc hl
 3645+E364              ;     ;6
 3646+E364              ;     ld a,(bc)
 3647+E364              ;     ld (hl),a
 3648+E364              ;     inc bc
 3649+E364              ;     inc hl
 3650+E364              ;     ;7,
 3651+E364              ;     ld a,(bc)
 3652+E364              ;     ld (hl),a
 3653+E364              ;     inc bc
 3654+E364              ;     inc hl
 3655+E364              ;     ;8,
 3656+E364              ;     ld a,(bc)
 3657+E364              ;     ld (hl),a
 3658+E364              ;     inc bc
 3659+E364              ;     inc hl
 3660+E364              ;     ;9,
 3661+E364              ;     ld a,(bc)
 3662+E364              ;     ld (hl),a
 3663+E364              ;     inc bc
 3664+E364              ;     inc hl
 3665+E364              ;     ;10,
 3666+E364              ;     ld a,(bc)
 3667+E364              ;     ld (hl),a
 3668+E364              ;     inc bc
 3669+E364              ;     ld de,BUFFER_WINDOW_WIDTH-10
 3670+E364              ;     add hl,de ;increment HL pointer by wwidth
 3671+E364              ;     ;0,0    ;;;;;;5
 3672+E364              ;     ld a,(bc)
 3673+E364              ;     ld (hl),a
 3674+E364              ;     inc bc
 3675+E364              ;     inc hl
 3676+E364              ;     ;1,
 3677+E364              ;     ld a,(bc)
 3678+E364              ;     ld (hl),a
 3679+E364              ;     inc bc
 3680+E364              ;     inc hl
 3681+E364              ;     ;2,
 3682+E364              ;     ld a,(bc)
 3683+E364              ;     ld (hl),a
 3684+E364              ;     inc bc
 3685+E364              ;     inc hl
 3686+E364              ;     ;3,
 3687+E364              ;     ld a,(bc)
 3688+E364              ;     ld (hl),a
 3689+E364              ;     inc bc
 3690+E364              ;     inc hl
 3691+E364              ;     ;4,
 3692+E364              ;     ld a,(bc)
 3693+E364              ;     ld (hl),a
 3694+E364              ;     inc bc
 3695+E364              ;     inc hl
 3696+E364              ;     ;5,
 3697+E364              ;     ld a,(bc)
 3698+E364              ;     ld (hl),a
 3699+E364              ;     inc bc
 3700+E364              ;     inc hl
 3701+E364              ;     ;6
 3702+E364              ;     ld a,(bc)
 3703+E364              ;     ld (hl),a
 3704+E364              ;     inc bc
 3705+E364              ;     inc hl
 3706+E364              ;     ;7,
 3707+E364              ;     ld a,(bc)
 3708+E364              ;     ld (hl),a
 3709+E364              ;     inc bc
 3710+E364              ;     inc hl
 3711+E364              ;     ;8,
 3712+E364              ;     ld a,(bc)
 3713+E364              ;     ld (hl),a
 3714+E364              ;     inc bc
 3715+E364              ;     inc hl
 3716+E364              ;     ;9,
 3717+E364              ;     ld a,(bc)
 3718+E364              ;     ld (hl),a
 3719+E364              ;     inc bc
 3720+E364              ;     inc hl
 3721+E364              ;     ;10,
 3722+E364              ;     ld a,(bc)
 3723+E364              ;     ld (hl),a
 3724+E364              ;     inc bc
 3725+E364              ;     ld de,BUFFER_WINDOW_WIDTH-10
 3726+E364              ;     add hl,de ;increment HL pointer by wwidth
 3727+E364              ;     ;0,0    ;;;;;;6
 3728+E364              ;     ld a,(bc)
 3729+E364              ;     ld (hl),a
 3730+E364              ;     inc bc
 3731+E364              ;     inc hl
 3732+E364              ;     ;1,
 3733+E364              ;     ld a,(bc)
 3734+E364              ;     ld (hl),a
 3735+E364              ;     inc bc
 3736+E364              ;     inc hl
 3737+E364              ;     ;2,
 3738+E364              ;     ld a,(bc)
 3739+E364              ;     ld (hl),a
 3740+E364              ;     inc bc
 3741+E364              ;     inc hl
 3742+E364              ;     ;3,
 3743+E364              ;     ld a,(bc)
 3744+E364              ;     ld (hl),a
 3745+E364              ;     inc bc
 3746+E364              ;     inc hl
 3747+E364              ;     ;4,
 3748+E364              ;     ld a,(bc)
 3749+E364              ;     ld (hl),a
 3750+E364              ;     inc bc
 3751+E364              ;     inc hl
 3752+E364              ;     ;5,
 3753+E364              ;     ld a,(bc)
 3754+E364              ;     ld (hl),a
 3755+E364              ;     inc bc
 3756+E364              ;     inc hl
 3757+E364              ;     ;6
 3758+E364              ;     ld a,(bc)
 3759+E364              ;     ld (hl),a
 3760+E364              ;     inc bc
 3761+E364              ;     inc hl
 3762+E364              ;     ;7,
 3763+E364              ;     ld a,(bc)
 3764+E364              ;     ld (hl),a
 3765+E364              ;     inc bc
 3766+E364              ;     inc hl
 3767+E364              ;     ;8,
 3768+E364              ;     ld a,(bc)
 3769+E364              ;     ld (hl),a
 3770+E364              ;     inc bc
 3771+E364              ;     inc hl
 3772+E364              ;     ;9,
 3773+E364              ;     ld a,(bc)
 3774+E364              ;     ld (hl),a
 3775+E364              ;     inc bc
 3776+E364              ;     inc hl
 3777+E364              ;     ;10,
 3778+E364              ;     ld a,(bc)
 3779+E364              ;     ld (hl),a
 3780+E364              ;     inc bc
 3781+E364              ;     ld de,BUFFER_WINDOW_WIDTH-10
 3782+E364              ;     add hl,de ;increment HL pointer by wwidth
 3783+E364              ;     ;0,0    ;;;;;;7
 3784+E364              ;     ld a,(bc)
 3785+E364              ;     ld (hl),a
 3786+E364              ;     inc bc
 3787+E364              ;     inc hl
 3788+E364              ;     ;1,
 3789+E364              ;     ld a,(bc)
 3790+E364              ;     ld (hl),a
 3791+E364              ;     inc bc
 3792+E364              ;     inc hl
 3793+E364              ;     ;2,
 3794+E364              ;     ld a,(bc)
 3795+E364              ;     ld (hl),a
 3796+E364              ;     inc bc
 3797+E364              ;     inc hl
 3798+E364              ;     ;3,
 3799+E364              ;     ld a,(bc)
 3800+E364              ;     ld (hl),a
 3801+E364              ;     inc bc
 3802+E364              ;     inc hl
 3803+E364              ;     ;4,
 3804+E364              ;     ld a,(bc)
 3805+E364              ;     ld (hl),a
 3806+E364              ;     inc bc
 3807+E364              ;     inc hl
 3808+E364              ;     ;5,
 3809+E364              ;     ld a,(bc)
 3810+E364              ;     ld (hl),a
 3811+E364              ;     inc bc
 3812+E364              ;     inc hl
 3813+E364              ;     ;6
 3814+E364              ;     ld a,(bc)
 3815+E364              ;     ld (hl),a
 3816+E364              ;     inc bc
 3817+E364              ;     inc hl
 3818+E364              ;     ;7,
 3819+E364              ;     ld a,(bc)
 3820+E364              ;     ld (hl),a
 3821+E364              ;     inc bc
 3822+E364              ;     inc hl
 3823+E364              ;     ;8,
 3824+E364              ;     ld a,(bc)
 3825+E364              ;     ld (hl),a
 3826+E364              ;     inc bc
 3827+E364              ;     inc hl
 3828+E364              ;     ;9,
 3829+E364              ;     ld a,(bc)
 3830+E364              ;     ld (hl),a
 3831+E364              ;     inc bc
 3832+E364              ;     inc hl
 3833+E364              ;     ;10,
 3834+E364              ;     ld a,(bc)
 3835+E364              ;     ld (hl),a
 3836+E364              ;     inc bc
 3837+E364              ;     ld de,BUFFER_WINDOW_WIDTH-10
 3838+E364              ;     add hl,de ;increment HL pointer by wwidth
 3839+E364              ;     ;0,0    ;;;;;;8
 3840+E364              ;     ld a,(bc)
 3841+E364              ;     ld (hl),a
 3842+E364              ;     inc bc
 3843+E364              ;     inc hl
 3844+E364              ;     ;1,
 3845+E364              ;     ld a,(bc)
 3846+E364              ;     ld (hl),a
 3847+E364              ;     inc bc
 3848+E364              ;     inc hl
 3849+E364              ;     ;2,
 3850+E364              ;     ld a,(bc)
 3851+E364              ;     ld (hl),a
 3852+E364              ;     inc bc
 3853+E364              ;     inc hl
 3854+E364              ;     ;3,
 3855+E364              ;     ld a,(bc)
 3856+E364              ;     ld (hl),a
 3857+E364              ;     inc bc
 3858+E364              ;     inc hl
 3859+E364              ;     ;4,
 3860+E364              ;     ld a,(bc)
 3861+E364              ;     ld (hl),a
 3862+E364              ;     inc bc
 3863+E364              ;     inc hl
 3864+E364              ;     ;5,
 3865+E364              ;     ld a,(bc)
 3866+E364              ;     ld (hl),a
 3867+E364              ;     inc bc
 3868+E364              ;     inc hl
 3869+E364              ;     ;6
 3870+E364              ;     ld a,(bc)
 3871+E364              ;     ld (hl),a
 3872+E364              ;     inc bc
 3873+E364              ;     inc hl
 3874+E364              ;     ;7,
 3875+E364              ;     ld a,(bc)
 3876+E364              ;     ld (hl),a
 3877+E364              ;     inc bc
 3878+E364              ;     inc hl
 3879+E364              ;     ;8,
 3880+E364              ;     ld a,(bc)
 3881+E364              ;     ld (hl),a
 3882+E364              ;     inc bc
 3883+E364              ;     inc hl
 3884+E364              ;     ;9,
 3885+E364              ;     ld a,(bc)
 3886+E364              ;     ld (hl),a
 3887+E364              ;     inc bc
 3888+E364              ;     inc hl
 3889+E364              ;     ;10,
 3890+E364              ;     ld a,(bc)
 3891+E364              ;     ld (hl),a
 3892+E364              ;     inc bc
 3893+E364              ;     ld de,BUFFER_WINDOW_WIDTH-10
 3894+E364              ;     add hl,de ;increment HL pointer by wwidth
 3895+E364              ;     ;0,0    ;;;;;;9
 3896+E364              ;     ld a,(bc)
 3897+E364              ;     ld (hl),a
 3898+E364              ;     inc bc
 3899+E364              ;     inc hl
 3900+E364              ;     ;1,
 3901+E364              ;     ld a,(bc)
 3902+E364              ;     ld (hl),a
 3903+E364              ;     inc bc
 3904+E364              ;     inc hl
 3905+E364              ;     ;2,
 3906+E364              ;     ld a,(bc)
 3907+E364              ;     ld (hl),a
 3908+E364              ;     inc bc
 3909+E364              ;     inc hl
 3910+E364              ;     ;3,
 3911+E364              ;     ld a,(bc)
 3912+E364              ;     ld (hl),a
 3913+E364              ;     inc bc
 3914+E364              ;     inc hl
 3915+E364              ;     ;4,
 3916+E364              ;     ld a,(bc)
 3917+E364              ;     ld (hl),a
 3918+E364              ;     inc bc
 3919+E364              ;     inc hl
 3920+E364              ;     ;5,
 3921+E364              ;     ld a,(bc)
 3922+E364              ;     ld (hl),a
 3923+E364              ;     inc bc
 3924+E364              ;     inc hl
 3925+E364              ;     ;6
 3926+E364              ;     ld a,(bc)
 3927+E364              ;     ld (hl),a
 3928+E364              ;     inc bc
 3929+E364              ;     inc hl
 3930+E364              ;     ;7,
 3931+E364              ;     ld a,(bc)
 3932+E364              ;     ld (hl),a
 3933+E364              ;     inc bc
 3934+E364              ;     inc hl
 3935+E364              ;     ;8,
 3936+E364              ;     ld a,(bc)
 3937+E364              ;     ld (hl),a
 3938+E364              ;     inc bc
 3939+E364              ;     inc hl
 3940+E364              ;     ;9,
 3941+E364              ;     ld a,(bc)
 3942+E364              ;     ld (hl),a
 3943+E364              ;     inc bc
 3944+E364              ;     inc hl
 3945+E364              ;     ;10,
 3946+E364              ;     ld a,(bc)
 3947+E364              ;     ld (hl),a
 3948+E364              ;     inc bc
 3949+E364              ;     ld de,BUFFER_WINDOW_WIDTH-10
 3950+E364              ;     add hl,de ;increment HL pointer by wwidth
 3951+E364
 3952+E364
 3953+E364
 3954+E364
 3955+E364
 3956+E364
 3957+E364
 3958+E364
 3959+E364
 3960+E364
 3961+E364
 3962+E364
 3963+E364
 3964+E364
 3965+E364
 3966+E364              ;     ;0,0    ;;;;;;30
 3967+E364              ;     ld a,(bc)
 3968+E364              ;     ld (hl),a
 3969+E364              ;     inc bc
 3970+E364              ;     inc hl
 3971+E364              ;     ;1,
 3972+E364              ;     ld a,(bc)
 3973+E364              ;     ld (hl),a
 3974+E364              ;     inc bc
 3975+E364              ;     inc hl
 3976+E364              ;     ;2,
 3977+E364              ;     ld a,(bc)
 3978+E364              ;     ld (hl),a
 3979+E364              ;     inc bc
 3980+E364              ;     inc hl
 3981+E364              ;     ;3,
 3982+E364              ;     ld a,(bc)
 3983+E364              ;     ld (hl),a
 3984+E364              ;     inc bc
 3985+E364              ;     inc hl
 3986+E364              ;     ;4,
 3987+E364              ;     ld a,(bc)
 3988+E364              ;     ld (hl),a
 3989+E364              ;     inc bc
 3990+E364              ;     inc hl
 3991+E364              ;     ;5,
 3992+E364              ;     ld a,(bc)
 3993+E364              ;     ld (hl),a
 3994+E364              ;     inc bc
 3995+E364              ;     inc hl
 3996+E364              ;     ;6
 3997+E364              ;     ld a,(bc)
 3998+E364              ;     ld (hl),a
 3999+E364              ;     inc bc
 4000+E364              ;     inc hl
 4001+E364              ;     ;7,
 4002+E364              ;     ld a,(bc)
 4003+E364              ;     ld (hl),a
 4004+E364              ;     inc bc
 4005+E364              ;     inc hl
 4006+E364              ;     ;8,
 4007+E364              ;     ld a,(bc)
 4008+E364              ;     ld (hl),a
 4009+E364              ;     inc bc
 4010+E364              ;     inc hl
 4011+E364              ;     ;9,
 4012+E364              ;     ld a,(bc)
 4013+E364              ;     ld (hl),a
 4014+E364              ;     inc bc
 4015+E364              ;     inc hl
 4016+E364              ;     ;10,
 4017+E364              ;     ld a,(bc)
 4018+E364              ;     ld (hl),a
 4019+E364              ;     inc bc
 4020+E364              ;     ld de,BUFFER_WINDOW_WIDTH-10
 4021+E364              ;     add hl,de ;increment HL pointer by wwidth
 4022+E364              ;     ;0,0    ;;;;;;1
 4023+E364              ;     ld a,(bc)
 4024+E364              ;     ld (hl),a
 4025+E364              ;     inc bc
 4026+E364              ;     inc hl
 4027+E364              ;     ;1,
 4028+E364              ;     ld a,(bc)
 4029+E364              ;     ld (hl),a
 4030+E364              ;     inc bc
 4031+E364              ;     inc hl
 4032+E364              ;     ;2,
 4033+E364              ;     ld a,(bc)
 4034+E364              ;     ld (hl),a
 4035+E364              ;     inc bc
 4036+E364              ;     inc hl
 4037+E364              ;     ;3,
 4038+E364              ;     ld a,(bc)
 4039+E364              ;     ld (hl),a
 4040+E364              ;     inc bc
 4041+E364              ;     inc hl
 4042+E364              ;     ;4,
 4043+E364              ;     ld a,(bc)
 4044+E364              ;     ld (hl),a
 4045+E364              ;     inc bc
 4046+E364              ;     inc hl
 4047+E364              ;     ;5,
 4048+E364              ;     ld a,(bc)
 4049+E364              ;     ld (hl),a
 4050+E364              ;     inc bc
 4051+E364              ;     inc hl
 4052+E364              ;     ;6
 4053+E364              ;     ld a,(bc)
 4054+E364              ;     ld (hl),a
 4055+E364              ;     inc bc
 4056+E364              ;     inc hl
 4057+E364              ;     ;7,
 4058+E364              ;     ld a,(bc)
 4059+E364              ;     ld (hl),a
 4060+E364              ;     inc bc
 4061+E364              ;     inc hl
 4062+E364              ;     ;8,
 4063+E364              ;     ld a,(bc)
 4064+E364              ;     ld (hl),a
 4065+E364              ;     inc bc
 4066+E364              ;     inc hl
 4067+E364              ;     ;9,
 4068+E364              ;     ld a,(bc)
 4069+E364              ;     ld (hl),a
 4070+E364              ;     inc bc
 4071+E364              ;     inc hl
 4072+E364              ;     ;10,
 4073+E364              ;     ld a,(bc)
 4074+E364              ;     ld (hl),a
 4075+E364              ;     inc bc
 4076+E364              ;     ld de,BUFFER_WINDOW_WIDTH-10
 4077+E364              ;     add hl,de ;increment HL pointer by wwidth
 4078+E364              ;     ;0,0    ;;;;;;2
 4079+E364              ;     ld a,(bc)
 4080+E364              ;     ld (hl),a
 4081+E364              ;     inc bc
 4082+E364              ;     inc hl
 4083+E364              ;     ;1,
 4084+E364              ;     ld a,(bc)
 4085+E364              ;     ld (hl),a
 4086+E364              ;     inc bc
 4087+E364              ;     inc hl
 4088+E364              ;     ;2,
 4089+E364              ;     ld a,(bc)
 4090+E364              ;     ld (hl),a
 4091+E364              ;     inc bc
 4092+E364              ;     inc hl
 4093+E364              ;     ;3,
 4094+E364              ;     ld a,(bc)
 4095+E364              ;     ld (hl),a
 4096+E364              ;     inc bc
 4097+E364              ;     inc hl
 4098+E364              ;     ;4,
 4099+E364              ;     ld a,(bc)
 4100+E364              ;     ld (hl),a
 4101+E364              ;     inc bc
 4102+E364              ;     inc hl
 4103+E364              ;     ;5,
 4104+E364              ;     ld a,(bc)
 4105+E364              ;     ld (hl),a
 4106+E364              ;     inc bc
 4107+E364              ;     inc hl
 4108+E364              ;     ;6
 4109+E364              ;     ld a,(bc)
 4110+E364              ;     ld (hl),a
 4111+E364              ;     inc bc
 4112+E364              ;     inc hl
 4113+E364              ;     ;7,
 4114+E364              ;     ld a,(bc)
 4115+E364              ;     ld (hl),a
 4116+E364              ;     inc bc
 4117+E364              ;     inc hl
 4118+E364              ;     ;8,
 4119+E364              ;     ld a,(bc)
 4120+E364              ;     ld (hl),a
 4121+E364              ;     inc bc
 4122+E364              ;     inc hl
 4123+E364              ;     ;9,
 4124+E364              ;     ld a,(bc)
 4125+E364              ;     ld (hl),a
 4126+E364              ;     inc bc
 4127+E364              ;     inc hl
 4128+E364              ;     ;10,
 4129+E364              ;     ld a,(bc)
 4130+E364              ;     ld (hl),a
 4131+E364              ;     inc bc
 4132+E364              ;     ld de,BUFFER_WINDOW_WIDTH-10
 4133+E364              ;     add hl,de ;increment HL pointer by wwidth
 4134+E364              ;     ;0,0    ;;;;;;3
 4135+E364              ;     ld a,(bc)
 4136+E364              ;     ld (hl),a
 4137+E364              ;     inc bc
 4138+E364              ;     inc hl
 4139+E364              ;     ;1,
 4140+E364              ;     ld a,(bc)
 4141+E364              ;     ld (hl),a
 4142+E364              ;     inc bc
 4143+E364              ;     inc hl
 4144+E364              ;     ;2,
 4145+E364              ;     ld a,(bc)
 4146+E364              ;     ld (hl),a
 4147+E364              ;     inc bc
 4148+E364              ;     inc hl
 4149+E364              ;     ;3,
 4150+E364              ;     ld a,(bc)
 4151+E364              ;     ld (hl),a
 4152+E364              ;     inc bc
 4153+E364              ;     inc hl
 4154+E364              ;     ;4,
 4155+E364              ;     ld a,(bc)
 4156+E364              ;     ld (hl),a
 4157+E364              ;     inc bc
 4158+E364              ;     inc hl
 4159+E364              ;     ;5,
 4160+E364              ;     ld a,(bc)
 4161+E364              ;     ld (hl),a
 4162+E364              ;     inc bc
 4163+E364              ;     inc hl
 4164+E364              ;     ;6
 4165+E364              ;     ld a,(bc)
 4166+E364              ;     ld (hl),a
 4167+E364              ;     inc bc
 4168+E364              ;     inc hl
 4169+E364              ;     ;7,
 4170+E364              ;     ld a,(bc)
 4171+E364              ;     ld (hl),a
 4172+E364              ;     inc bc
 4173+E364              ;     inc hl
 4174+E364              ;     ;8,
 4175+E364              ;     ld a,(bc)
 4176+E364              ;     ld (hl),a
 4177+E364              ;     inc bc
 4178+E364              ;     inc hl
 4179+E364              ;     ;9,
 4180+E364              ;     ld a,(bc)
 4181+E364              ;     ld (hl),a
 4182+E364              ;     inc bc
 4183+E364              ;     inc hl
 4184+E364              ;     ;10,
 4185+E364              ;     ld a,(bc)
 4186+E364              ;     ld (hl),a
 4187+E364              ;     inc bc
 4188+E364              ;     ld de,BUFFER_WINDOW_WIDTH-10
 4189+E364              ;     add hl,de ;increment HL pointer by wwidth
 4190+E364              ;     ;0,0    ;;;;;;4
 4191+E364              ;     ld a,(bc)
 4192+E364              ;     ld (hl),a
 4193+E364              ;     inc bc
 4194+E364              ;     inc hl
 4195+E364              ;     ;1,
 4196+E364              ;     ld a,(bc)
 4197+E364              ;     ld (hl),a
 4198+E364              ;     inc bc
 4199+E364              ;     inc hl
 4200+E364              ;     ;2,
 4201+E364              ;     ld a,(bc)
 4202+E364              ;     ld (hl),a
 4203+E364              ;     inc bc
 4204+E364              ;     inc hl
 4205+E364              ;     ;3,
 4206+E364              ;     ld a,(bc)
 4207+E364              ;     ld (hl),a
 4208+E364              ;     inc bc
 4209+E364              ;     inc hl
 4210+E364              ;     ;4,
 4211+E364              ;     ld a,(bc)
 4212+E364              ;     ld (hl),a
 4213+E364              ;     inc bc
 4214+E364              ;     inc hl
 4215+E364              ;     ;5,
 4216+E364              ;     ld a,(bc)
 4217+E364              ;     ld (hl),a
 4218+E364              ;     inc bc
 4219+E364              ;     inc hl
 4220+E364              ;     ;6
 4221+E364              ;     ld a,(bc)
 4222+E364              ;     ld (hl),a
 4223+E364              ;     inc bc
 4224+E364              ;     inc hl
 4225+E364              ;     ;7,
 4226+E364              ;     ld a,(bc)
 4227+E364              ;     ld (hl),a
 4228+E364              ;     inc bc
 4229+E364              ;     inc hl
 4230+E364              ;     ;8,
 4231+E364              ;     ld a,(bc)
 4232+E364              ;     ld (hl),a
 4233+E364              ;     inc bc
 4234+E364              ;     inc hl
 4235+E364              ;     ;9,
 4236+E364              ;     ld a,(bc)
 4237+E364              ;     ld (hl),a
 4238+E364              ;     inc bc
 4239+E364              ;     inc hl
 4240+E364              ;     ;10,
 4241+E364              ;     ld a,(bc)
 4242+E364              ;     ld (hl),a
 4243+E364              ;     inc bc
 4244+E364              ;     ld de,BUFFER_WINDOW_WIDTH-10
 4245+E364              ;     add hl,de ;increment HL pointer by wwidth
 4246+E364              ;     ;0,0    ;;;;;;5
 4247+E364              ;     ld a,(bc)
 4248+E364              ;     ld (hl),a
 4249+E364              ;     inc bc
 4250+E364              ;     inc hl
 4251+E364              ;     ;1,
 4252+E364              ;     ld a,(bc)
 4253+E364              ;     ld (hl),a
 4254+E364              ;     inc bc
 4255+E364              ;     inc hl
 4256+E364              ;     ;2,
 4257+E364              ;     ld a,(bc)
 4258+E364              ;     ld (hl),a
 4259+E364              ;     inc bc
 4260+E364              ;     inc hl
 4261+E364              ;     ;3,
 4262+E364              ;     ld a,(bc)
 4263+E364              ;     ld (hl),a
 4264+E364              ;     inc bc
 4265+E364              ;     inc hl
 4266+E364              ;     ;4,
 4267+E364              ;     ld a,(bc)
 4268+E364              ;     ld (hl),a
 4269+E364              ;     inc bc
 4270+E364              ;     inc hl
 4271+E364              ;     ;5,
 4272+E364              ;     ld a,(bc)
 4273+E364              ;     ld (hl),a
 4274+E364              ;     inc bc
 4275+E364              ;     inc hl
 4276+E364              ;     ;6
 4277+E364              ;     ld a,(bc)
 4278+E364              ;     ld (hl),a
 4279+E364              ;     inc bc
 4280+E364              ;     inc hl
 4281+E364              ;     ;7,
 4282+E364              ;     ld a,(bc)
 4283+E364              ;     ld (hl),a
 4284+E364              ;     inc bc
 4285+E364              ;     inc hl
 4286+E364              ;     ;8,
 4287+E364              ;     ld a,(bc)
 4288+E364              ;     ld (hl),a
 4289+E364              ;     inc bc
 4290+E364              ;     inc hl
 4291+E364              ;     ;9,
 4292+E364              ;     ld a,(bc)
 4293+E364              ;     ld (hl),a
 4294+E364              ;     inc bc
 4295+E364              ;     inc hl
 4296+E364              ;     ;10,
 4297+E364              ;     ld a,(bc)
 4298+E364              ;     ld (hl),a
 4299+E364              ;     inc bc
 4300+E364              ;     ld de,BUFFER_WINDOW_WIDTH-10
 4301+E364              ;     add hl,de ;increment HL pointer by wwidth
 4302+E364              ;     ;0,0    ;;;;;;6
 4303+E364              ;     ld a,(bc)
 4304+E364              ;     ld (hl),a
 4305+E364              ;     inc bc
 4306+E364              ;     inc hl
 4307+E364              ;     ;1,
 4308+E364              ;     ld a,(bc)
 4309+E364              ;     ld (hl),a
 4310+E364              ;     inc bc
 4311+E364              ;     inc hl
 4312+E364              ;     ;2,
 4313+E364              ;     ld a,(bc)
 4314+E364              ;     ld (hl),a
 4315+E364              ;     inc bc
 4316+E364              ;     inc hl
 4317+E364              ;     ;3,
 4318+E364              ;     ld a,(bc)
 4319+E364              ;     ld (hl),a
 4320+E364              ;     inc bc
 4321+E364              ;     inc hl
 4322+E364              ;     ;4,
 4323+E364              ;     ld a,(bc)
 4324+E364              ;     ld (hl),a
 4325+E364              ;     inc bc
 4326+E364              ;     inc hl
 4327+E364              ;     ;5,
 4328+E364              ;     ld a,(bc)
 4329+E364              ;     ld (hl),a
 4330+E364              ;     inc bc
 4331+E364              ;     inc hl
 4332+E364              ;     ;6
 4333+E364              ;     ld a,(bc)
 4334+E364              ;     ld (hl),a
 4335+E364              ;     inc bc
 4336+E364              ;     inc hl
 4337+E364              ;     ;7,
 4338+E364              ;     ld a,(bc)
 4339+E364              ;     ld (hl),a
 4340+E364              ;     inc bc
 4341+E364              ;     inc hl
 4342+E364              ;     ;8,
 4343+E364              ;     ld a,(bc)
 4344+E364              ;     ld (hl),a
 4345+E364              ;     inc bc
 4346+E364              ;     inc hl
 4347+E364              ;     ;9,
 4348+E364              ;     ld a,(bc)
 4349+E364              ;     ld (hl),a
 4350+E364              ;     inc bc
 4351+E364              ;     inc hl
 4352+E364              ;     ;10,
 4353+E364              ;     ld a,(bc)
 4354+E364              ;     ld (hl),a
 4355+E364              ;     inc bc
 4356+E364              ;     ld de,BUFFER_WINDOW_WIDTH-10
 4357+E364              ;     add hl,de ;increment HL pointer by wwidth
 4358+E364              ;     ;0,0    ;;;;;;7
 4359+E364              ;     ld a,(bc)
 4360+E364              ;     ld (hl),a
 4361+E364              ;     inc bc
 4362+E364              ;     inc hl
 4363+E364              ;     ;1,
 4364+E364              ;     ld a,(bc)
 4365+E364              ;     ld (hl),a
 4366+E364              ;     inc bc
 4367+E364              ;     inc hl
 4368+E364              ;     ;2,
 4369+E364              ;     ld a,(bc)
 4370+E364              ;     ld (hl),a
 4371+E364              ;     inc bc
 4372+E364              ;     inc hl
 4373+E364              ;     ;3,
 4374+E364              ;     ld a,(bc)
 4375+E364              ;     ld (hl),a
 4376+E364              ;     inc bc
 4377+E364              ;     inc hl
 4378+E364              ;     ;4,
 4379+E364              ;     ld a,(bc)
 4380+E364              ;     ld (hl),a
 4381+E364              ;     inc bc
 4382+E364              ;     inc hl
 4383+E364              ;     ;5,
 4384+E364              ;     ld a,(bc)
 4385+E364              ;     ld (hl),a
 4386+E364              ;     inc bc
 4387+E364              ;     inc hl
 4388+E364              ;     ;6
 4389+E364              ;     ld a,(bc)
 4390+E364              ;     ld (hl),a
 4391+E364              ;     inc bc
 4392+E364              ;     inc hl
 4393+E364              ;     ;7,
 4394+E364              ;     ld a,(bc)
 4395+E364              ;     ld (hl),a
 4396+E364              ;     inc bc
 4397+E364              ;     inc hl
 4398+E364              ;     ;8,
 4399+E364              ;     ld a,(bc)
 4400+E364              ;     ld (hl),a
 4401+E364              ;     inc bc
 4402+E364              ;     inc hl
 4403+E364              ;     ;9,
 4404+E364              ;     ld a,(bc)
 4405+E364              ;     ld (hl),a
 4406+E364              ;     inc bc
 4407+E364              ;     inc hl
 4408+E364              ;     ;10,
 4409+E364              ;     ld a,(bc)
 4410+E364              ;     ld (hl),a
 4411+E364              ;     inc bc
 4412+E364              ;     ld de,BUFFER_WINDOW_WIDTH-10
 4413+E364              ;     add hl,de ;increment HL pointer by wwidth
 4414+E364              ;     ;0,0    ;;;;;;8
 4415+E364              ;     ld a,(bc)
 4416+E364              ;     ld (hl),a
 4417+E364              ;     inc bc
 4418+E364              ;     inc hl
 4419+E364              ;     ;1,
 4420+E364              ;     ld a,(bc)
 4421+E364              ;     ld (hl),a
 4422+E364              ;     inc bc
 4423+E364              ;     inc hl
 4424+E364              ;     ;2,
 4425+E364              ;     ld a,(bc)
 4426+E364              ;     ld (hl),a
 4427+E364              ;     inc bc
 4428+E364              ;     inc hl
 4429+E364              ;     ;3,
 4430+E364              ;     ld a,(bc)
 4431+E364              ;     ld (hl),a
 4432+E364              ;     inc bc
 4433+E364              ;     inc hl
 4434+E364              ;     ;4,
 4435+E364              ;     ld a,(bc)
 4436+E364              ;     ld (hl),a
 4437+E364              ;     inc bc
 4438+E364              ;     inc hl
 4439+E364              ;     ;5,
 4440+E364              ;     ld a,(bc)
 4441+E364              ;     ld (hl),a
 4442+E364              ;     inc bc
 4443+E364              ;     inc hl
 4444+E364              ;     ;6
 4445+E364              ;     ld a,(bc)
 4446+E364              ;     ld (hl),a
 4447+E364              ;     inc bc
 4448+E364              ;     inc hl
 4449+E364              ;     ;7,
 4450+E364              ;     ld a,(bc)
 4451+E364              ;     ld (hl),a
 4452+E364              ;     inc bc
 4453+E364              ;     inc hl
 4454+E364              ;     ;8,
 4455+E364              ;     ld a,(bc)
 4456+E364              ;     ld (hl),a
 4457+E364              ;     inc bc
 4458+E364              ;     inc hl
 4459+E364              ;     ;9,
 4460+E364              ;     ld a,(bc)
 4461+E364              ;     ld (hl),a
 4462+E364              ;     inc bc
 4463+E364              ;     inc hl
 4464+E364              ;     ;10,
 4465+E364              ;     ld a,(bc)
 4466+E364              ;     ld (hl),a
 4467+E364              ;     inc bc
 4468+E364              ;     ld de,BUFFER_WINDOW_WIDTH-10
 4469+E364              ;     add hl,de ;increment HL pointer by wwidth
 4470+E364              ;     ;0,0    ;;;;;;9
 4471+E364              ;     ld a,(bc)
 4472+E364              ;     ld (hl),a
 4473+E364              ;     inc bc
 4474+E364              ;     inc hl
 4475+E364              ;     ;1,
 4476+E364              ;     ld a,(bc)
 4477+E364              ;     ld (hl),a
 4478+E364              ;     inc bc
 4479+E364              ;     inc hl
 4480+E364              ;     ;2,
 4481+E364              ;     ld a,(bc)
 4482+E364              ;     ld (hl),a
 4483+E364              ;     inc bc
 4484+E364              ;     inc hl
 4485+E364              ;     ;3,
 4486+E364              ;     ld a,(bc)
 4487+E364              ;     ld (hl),a
 4488+E364              ;     inc bc
 4489+E364              ;     inc hl
 4490+E364              ;     ;4,
 4491+E364              ;     ld a,(bc)
 4492+E364              ;     ld (hl),a
 4493+E364              ;     inc bc
 4494+E364              ;     inc hl
 4495+E364              ;     ;5,
 4496+E364              ;     ld a,(bc)
 4497+E364              ;     ld (hl),a
 4498+E364              ;     inc bc
 4499+E364              ;     inc hl
 4500+E364              ;     ;6
 4501+E364              ;     ld a,(bc)
 4502+E364              ;     ld (hl),a
 4503+E364              ;     inc bc
 4504+E364              ;     inc hl
 4505+E364              ;     ;7,
 4506+E364              ;     ld a,(bc)
 4507+E364              ;     ld (hl),a
 4508+E364              ;     inc bc
 4509+E364              ;     inc hl
 4510+E364              ;     ;8,
 4511+E364              ;     ld a,(bc)
 4512+E364              ;     ld (hl),a
 4513+E364              ;     inc bc
 4514+E364              ;     inc hl
 4515+E364              ;     ;9,
 4516+E364              ;     ld a,(bc)
 4517+E364              ;     ld (hl),a
 4518+E364              ;     inc bc
 4519+E364              ;     inc hl
 4520+E364              ;     ;10,
 4521+E364              ;     ld a,(bc)
 4522+E364              ;     ld (hl),a
 4523+E364              ;     inc bc
 4524+E364              ;     ld de,BUFFER_WINDOW_WIDTH-10
 4525+E364              ;     add hl,de ;increment HL pointer by wwidth
 4526+E364
 4527+E364
 4528+E364
 4529+E364
 4530+E364
 4531+E364
 4532+E364
 4533+E364
 4534+E364
 4535+E364
 4536+E364
 4537+E364
 4538+E364
 4539+E364
 4540+E364              ;     ;0,0    ;;;;;;40
 4541+E364              ;     ld a,(bc)
 4542+E364              ;     ld (hl),a
 4543+E364              ;     inc bc
 4544+E364              ;     inc hl
 4545+E364              ;     ;1,
 4546+E364              ;     ld a,(bc)
 4547+E364              ;     ld (hl),a
 4548+E364              ;     inc bc
 4549+E364              ;     inc hl
 4550+E364              ;     ;2,
 4551+E364              ;     ld a,(bc)
 4552+E364              ;     ld (hl),a
 4553+E364              ;     inc bc
 4554+E364              ;     inc hl
 4555+E364              ;     ;3,
 4556+E364              ;     ld a,(bc)
 4557+E364              ;     ld (hl),a
 4558+E364              ;     inc bc
 4559+E364              ;     inc hl
 4560+E364              ;     ;4,
 4561+E364              ;     ld a,(bc)
 4562+E364              ;     ld (hl),a
 4563+E364              ;     inc bc
 4564+E364              ;     inc hl
 4565+E364              ;     ;5,
 4566+E364              ;     ld a,(bc)
 4567+E364              ;     ld (hl),a
 4568+E364              ;     inc bc
 4569+E364              ;     inc hl
 4570+E364              ;     ;6
 4571+E364              ;     ld a,(bc)
 4572+E364              ;     ld (hl),a
 4573+E364              ;     inc bc
 4574+E364              ;     inc hl
 4575+E364              ;     ;7,
 4576+E364              ;     ld a,(bc)
 4577+E364              ;     ld (hl),a
 4578+E364              ;     inc bc
 4579+E364              ;     inc hl
 4580+E364              ;     ;8,
 4581+E364              ;     ld a,(bc)
 4582+E364              ;     ld (hl),a
 4583+E364              ;     inc bc
 4584+E364              ;     inc hl
 4585+E364              ;     ;9,
 4586+E364              ;     ld a,(bc)
 4587+E364              ;     ld (hl),a
 4588+E364              ;     inc bc
 4589+E364              ;     inc hl
 4590+E364              ;     ;10,
 4591+E364              ;     ld a,(bc)
 4592+E364              ;     ld (hl),a
 4593+E364              ;     inc bc
 4594+E364              ;     ld de,BUFFER_WINDOW_WIDTH-10
 4595+E364              ;     add hl,de ;increment HL pointer by wwidth
 4596+E364              ;     ;0,0    ;;;;;;1
 4597+E364              ;     ld a,(bc)
 4598+E364              ;     ld (hl),a
 4599+E364              ;     inc bc
 4600+E364              ;     inc hl
 4601+E364              ;     ;1,
 4602+E364              ;     ld a,(bc)
 4603+E364              ;     ld (hl),a
 4604+E364              ;     inc bc
 4605+E364              ;     inc hl
 4606+E364              ;     ;2,
 4607+E364              ;     ld a,(bc)
 4608+E364              ;     ld (hl),a
 4609+E364              ;     inc bc
 4610+E364              ;     inc hl
 4611+E364              ;     ;3,
 4612+E364              ;     ld a,(bc)
 4613+E364              ;     ld (hl),a
 4614+E364              ;     inc bc
 4615+E364              ;     inc hl
 4616+E364              ;     ;4,
 4617+E364              ;     ld a,(bc)
 4618+E364              ;     ld (hl),a
 4619+E364              ;     inc bc
 4620+E364              ;     inc hl
 4621+E364              ;     ;5,
 4622+E364              ;     ld a,(bc)
 4623+E364              ;     ld (hl),a
 4624+E364              ;     inc bc
 4625+E364              ;     inc hl
 4626+E364              ;     ;6
 4627+E364              ;     ld a,(bc)
 4628+E364              ;     ld (hl),a
 4629+E364              ;     inc bc
 4630+E364              ;     inc hl
 4631+E364              ;     ;7,
 4632+E364              ;     ld a,(bc)
 4633+E364              ;     ld (hl),a
 4634+E364              ;     inc bc
 4635+E364              ;     inc hl
 4636+E364              ;     ;8,
 4637+E364              ;     ld a,(bc)
 4638+E364              ;     ld (hl),a
 4639+E364              ;     inc bc
 4640+E364              ;     inc hl
 4641+E364              ;     ;9,
 4642+E364              ;     ld a,(bc)
 4643+E364              ;     ld (hl),a
 4644+E364              ;     inc bc
 4645+E364              ;     inc hl
 4646+E364              ;     ;10,
 4647+E364              ;     ld a,(bc)
 4648+E364              ;     ld (hl),a
 4649+E364              ;     inc bc
 4650+E364              ;     ld de,BUFFER_WINDOW_WIDTH-10
 4651+E364              ;     add hl,de ;increment HL pointer by wwidth
 4652+E364              ;     ;0,0    ;;;;;;2
 4653+E364              ;     ld a,(bc)
 4654+E364              ;     ld (hl),a
 4655+E364              ;     inc bc
 4656+E364              ;     inc hl
 4657+E364              ;     ;1,
 4658+E364              ;     ld a,(bc)
 4659+E364              ;     ld (hl),a
 4660+E364              ;     inc bc
 4661+E364              ;     inc hl
 4662+E364              ;     ;2,
 4663+E364              ;     ld a,(bc)
 4664+E364              ;     ld (hl),a
 4665+E364              ;     inc bc
 4666+E364              ;     inc hl
 4667+E364              ;     ;3,
 4668+E364              ;     ld a,(bc)
 4669+E364              ;     ld (hl),a
 4670+E364              ;     inc bc
 4671+E364              ;     inc hl
 4672+E364              ;     ;4,
 4673+E364              ;     ld a,(bc)
 4674+E364              ;     ld (hl),a
 4675+E364              ;     inc bc
 4676+E364              ;     inc hl
 4677+E364              ;     ;5,
 4678+E364              ;     ld a,(bc)
 4679+E364              ;     ld (hl),a
 4680+E364              ;     inc bc
 4681+E364              ;     inc hl
 4682+E364              ;     ;6
 4683+E364              ;     ld a,(bc)
 4684+E364              ;     ld (hl),a
 4685+E364              ;     inc bc
 4686+E364              ;     inc hl
 4687+E364              ;     ;7,
 4688+E364              ;     ld a,(bc)
 4689+E364              ;     ld (hl),a
 4690+E364              ;     inc bc
 4691+E364              ;     inc hl
 4692+E364              ;     ;8,
 4693+E364              ;     ld a,(bc)
 4694+E364              ;     ld (hl),a
 4695+E364              ;     inc bc
 4696+E364              ;     inc hl
 4697+E364              ;     ;9,
 4698+E364              ;     ld a,(bc)
 4699+E364              ;     ld (hl),a
 4700+E364              ;     inc bc
 4701+E364              ;     inc hl
 4702+E364              ;     ;10,
 4703+E364              ;     ld a,(bc)
 4704+E364              ;     ld (hl),a
 4705+E364              ;     inc bc
 4706+E364              ;     ld de,BUFFER_WINDOW_WIDTH-10
 4707+E364              ;     add hl,de ;increment HL pointer by wwidth
 4708+E364              ;     ;0,0    ;;;;;;3
 4709+E364              ;     ld a,(bc)
 4710+E364              ;     ld (hl),a
 4711+E364              ;     inc bc
 4712+E364              ;     inc hl
 4713+E364              ;     ;1,
 4714+E364              ;     ld a,(bc)
 4715+E364              ;     ld (hl),a
 4716+E364              ;     inc bc
 4717+E364              ;     inc hl
 4718+E364              ;     ;2,
 4719+E364              ;     ld a,(bc)
 4720+E364              ;     ld (hl),a
 4721+E364              ;     inc bc
 4722+E364              ;     inc hl
 4723+E364              ;     ;3,
 4724+E364              ;     ld a,(bc)
 4725+E364              ;     ld (hl),a
 4726+E364              ;     inc bc
 4727+E364              ;     inc hl
 4728+E364              ;     ;4,
 4729+E364              ;     ld a,(bc)
 4730+E364              ;     ld (hl),a
 4731+E364              ;     inc bc
 4732+E364              ;     inc hl
 4733+E364              ;     ;5,
 4734+E364              ;     ld a,(bc)
 4735+E364              ;     ld (hl),a
 4736+E364              ;     inc bc
 4737+E364              ;     inc hl
 4738+E364              ;     ;6
 4739+E364              ;     ld a,(bc)
 4740+E364              ;     ld (hl),a
 4741+E364              ;     inc bc
 4742+E364              ;     inc hl
 4743+E364              ;     ;7,
 4744+E364              ;     ld a,(bc)
 4745+E364              ;     ld (hl),a
 4746+E364              ;     inc bc
 4747+E364              ;     inc hl
 4748+E364              ;     ;8,
 4749+E364              ;     ld a,(bc)
 4750+E364              ;     ld (hl),a
 4751+E364              ;     inc bc
 4752+E364              ;     inc hl
 4753+E364              ;     ;9,
 4754+E364              ;     ld a,(bc)
 4755+E364              ;     ld (hl),a
 4756+E364              ;     inc bc
 4757+E364              ;     inc hl
 4758+E364              ;     ;10,
 4759+E364              ;     ld a,(bc)
 4760+E364              ;     ld (hl),a
 4761+E364              ;     inc bc
 4762+E364              ;     ld de,BUFFER_WINDOW_WIDTH-10
 4763+E364              ;     add hl,de ;increment HL pointer by wwidth
 4764+E364              ;     ;0,0    ;;;;;;4
 4765+E364              ;     ld a,(bc)
 4766+E364              ;     ld (hl),a
 4767+E364              ;     inc bc
 4768+E364              ;     inc hl
 4769+E364              ;     ;1,
 4770+E364              ;     ld a,(bc)
 4771+E364              ;     ld (hl),a
 4772+E364              ;     inc bc
 4773+E364              ;     inc hl
 4774+E364              ;     ;2,
 4775+E364              ;     ld a,(bc)
 4776+E364              ;     ld (hl),a
 4777+E364              ;     inc bc
 4778+E364              ;     inc hl
 4779+E364              ;     ;3,
 4780+E364              ;     ld a,(bc)
 4781+E364              ;     ld (hl),a
 4782+E364              ;     inc bc
 4783+E364              ;     inc hl
 4784+E364              ;     ;4,
 4785+E364              ;     ld a,(bc)
 4786+E364              ;     ld (hl),a
 4787+E364              ;     inc bc
 4788+E364              ;     inc hl
 4789+E364              ;     ;5,
 4790+E364              ;     ld a,(bc)
 4791+E364              ;     ld (hl),a
 4792+E364              ;     inc bc
 4793+E364              ;     inc hl
 4794+E364              ;     ;6
 4795+E364              ;     ld a,(bc)
 4796+E364              ;     ld (hl),a
 4797+E364              ;     inc bc
 4798+E364              ;     inc hl
 4799+E364              ;     ;7,
 4800+E364              ;     ld a,(bc)
 4801+E364              ;     ld (hl),a
 4802+E364              ;     inc bc
 4803+E364              ;     inc hl
 4804+E364              ;     ;8,
 4805+E364              ;     ld a,(bc)
 4806+E364              ;     ld (hl),a
 4807+E364              ;     inc bc
 4808+E364              ;     inc hl
 4809+E364              ;     ;9,
 4810+E364              ;     ld a,(bc)
 4811+E364              ;     ld (hl),a
 4812+E364              ;     inc bc
 4813+E364              ;     inc hl
 4814+E364              ;     ;10,
 4815+E364              ;     ld a,(bc)
 4816+E364              ;     ld (hl),a
 4817+E364              ;     inc bc
 4818+E364              ;     ld de,BUFFER_WINDOW_WIDTH-10
 4819+E364              ;     add hl,de ;increment HL pointer by wwidth
 4820+E364              ;     ;0,0    ;;;;;;5
 4821+E364              ;     ld a,(bc)
 4822+E364              ;     ld (hl),a
 4823+E364              ;     inc bc
 4824+E364              ;     inc hl
 4825+E364              ;     ;1,
 4826+E364              ;     ld a,(bc)
 4827+E364              ;     ld (hl),a
 4828+E364              ;     inc bc
 4829+E364              ;     inc hl
 4830+E364              ;     ;2,
 4831+E364              ;     ld a,(bc)
 4832+E364              ;     ld (hl),a
 4833+E364              ;     inc bc
 4834+E364              ;     inc hl
 4835+E364              ;     ;3,
 4836+E364              ;     ld a,(bc)
 4837+E364              ;     ld (hl),a
 4838+E364              ;     inc bc
 4839+E364              ;     inc hl
 4840+E364              ;     ;4,
 4841+E364              ;     ld a,(bc)
 4842+E364              ;     ld (hl),a
 4843+E364              ;     inc bc
 4844+E364              ;     inc hl
 4845+E364              ;     ;5,
 4846+E364              ;     ld a,(bc)
 4847+E364              ;     ld (hl),a
 4848+E364              ;     inc bc
 4849+E364              ;     inc hl
 4850+E364              ;     ;6
 4851+E364              ;     ld a,(bc)
 4852+E364              ;     ld (hl),a
 4853+E364              ;     inc bc
 4854+E364              ;     inc hl
 4855+E364              ;     ;7,
 4856+E364              ;     ld a,(bc)
 4857+E364              ;     ld (hl),a
 4858+E364              ;     inc bc
 4859+E364              ;     inc hl
 4860+E364              ;     ;8,
 4861+E364              ;     ld a,(bc)
 4862+E364              ;     ld (hl),a
 4863+E364              ;     inc bc
 4864+E364              ;     inc hl
 4865+E364              ;     ;9,
 4866+E364              ;     ld a,(bc)
 4867+E364              ;     ld (hl),a
 4868+E364              ;     inc bc
 4869+E364              ;     inc hl
 4870+E364              ;     ;10,
 4871+E364              ;     ld a,(bc)
 4872+E364              ;     ld (hl),a
 4873+E364              ;     inc bc
 4874+E364              ;     ld de,BUFFER_WINDOW_WIDTH-10
 4875+E364              ;     add hl,de ;increment HL pointer by wwidth
 4876+E364              ;     ;0,0    ;;;;;;6
 4877+E364              ;     ld a,(bc)
 4878+E364              ;     ld (hl),a
 4879+E364              ;     inc bc
 4880+E364              ;     inc hl
 4881+E364              ;     ;1,
 4882+E364              ;     ld a,(bc)
 4883+E364              ;     ld (hl),a
 4884+E364              ;     inc bc
 4885+E364              ;     inc hl
 4886+E364              ;     ;2,
 4887+E364              ;     ld a,(bc)
 4888+E364              ;     ld (hl),a
 4889+E364              ;     inc bc
 4890+E364              ;     inc hl
 4891+E364              ;     ;3,
 4892+E364              ;     ld a,(bc)
 4893+E364              ;     ld (hl),a
 4894+E364              ;     inc bc
 4895+E364              ;     inc hl
 4896+E364              ;     ;4,
 4897+E364              ;     ld a,(bc)
 4898+E364              ;     ld (hl),a
 4899+E364              ;     inc bc
 4900+E364              ;     inc hl
 4901+E364              ;     ;5,
 4902+E364              ;     ld a,(bc)
 4903+E364              ;     ld (hl),a
 4904+E364              ;     inc bc
 4905+E364              ;     inc hl
 4906+E364              ;     ;6
 4907+E364              ;     ld a,(bc)
 4908+E364              ;     ld (hl),a
 4909+E364              ;     inc bc
 4910+E364              ;     inc hl
 4911+E364              ;     ;7,
 4912+E364              ;     ld a,(bc)
 4913+E364              ;     ld (hl),a
 4914+E364              ;     inc bc
 4915+E364              ;     inc hl
 4916+E364              ;     ;8,
 4917+E364              ;     ld a,(bc)
 4918+E364              ;     ld (hl),a
 4919+E364              ;     inc bc
 4920+E364              ;     inc hl
 4921+E364              ;     ;9,
 4922+E364              ;     ld a,(bc)
 4923+E364              ;     ld (hl),a
 4924+E364              ;     inc bc
 4925+E364              ;     inc hl
 4926+E364              ;     ;10,
 4927+E364              ;     ld a,(bc)
 4928+E364              ;     ld (hl),a
 4929+E364              ;     inc bc
 4930+E364              ;     ld de,BUFFER_WINDOW_WIDTH-10
 4931+E364              ;     add hl,de ;increment HL pointer by wwidth
 4932+E364              ;     ;0,0    ;;;;;;7
 4933+E364              ;     ld a,(bc)
 4934+E364              ;     ld (hl),a
 4935+E364              ;     inc bc
 4936+E364              ;     inc hl
 4937+E364              ;     ;1,
 4938+E364              ;     ld a,(bc)
 4939+E364              ;     ld (hl),a
 4940+E364              ;     inc bc
 4941+E364              ;     inc hl
 4942+E364              ;     ;2,
 4943+E364              ;     ld a,(bc)
 4944+E364              ;     ld (hl),a
 4945+E364              ;     inc bc
 4946+E364              ;     inc hl
 4947+E364              ;     ;3,
 4948+E364              ;     ld a,(bc)
 4949+E364              ;     ld (hl),a
 4950+E364              ;     inc bc
 4951+E364              ;     inc hl
 4952+E364              ;     ;4,
 4953+E364              ;     ld a,(bc)
 4954+E364              ;     ld (hl),a
 4955+E364              ;     inc bc
 4956+E364              ;     inc hl
 4957+E364              ;     ;5,
 4958+E364              ;     ld a,(bc)
 4959+E364              ;     ld (hl),a
 4960+E364              ;     inc bc
 4961+E364              ;     inc hl
 4962+E364              ;     ;6
 4963+E364              ;     ld a,(bc)
 4964+E364              ;     ld (hl),a
 4965+E364              ;     inc bc
 4966+E364              ;     inc hl
 4967+E364              ;     ;7,
 4968+E364              ;     ld a,(bc)
 4969+E364              ;     ld (hl),a
 4970+E364              ;     inc bc
 4971+E364              ;     inc hl
 4972+E364              ;     ;8,
 4973+E364              ;     ld a,(bc)
 4974+E364              ;     ld (hl),a
 4975+E364              ;     inc bc
 4976+E364              ;     inc hl
 4977+E364              ;     ;9,
 4978+E364              ;     ld a,(bc)
 4979+E364              ;     ld (hl),a
 4980+E364              ;     inc bc
 4981+E364              ;     inc hl
 4982+E364              ;     ;10,
 4983+E364              ;     ld a,(bc)
 4984+E364              ;     ld (hl),a
 4985+E364              ;     inc bc
 4986+E364              ;     ld de,BUFFER_WINDOW_WIDTH-10
 4987+E364              ;     add hl,de ;increment HL pointer by wwidth
 4988+E364              ;     ;0,0    ;;;;;;8
 4989+E364              ;     ld a,(bc)
 4990+E364              ;     ld (hl),a
 4991+E364              ;     inc bc
 4992+E364              ;     inc hl
 4993+E364              ;     ;1,
 4994+E364              ;     ld a,(bc)
 4995+E364              ;     ld (hl),a
 4996+E364              ;     inc bc
 4997+E364              ;     inc hl
 4998+E364              ;     ;2,
 4999+E364              ;     ld a,(bc)
 5000+E364              ;     ld (hl),a
 5001+E364              ;     inc bc
 5002+E364              ;     inc hl
 5003+E364              ;     ;3,
 5004+E364              ;     ld a,(bc)
 5005+E364              ;     ld (hl),a
 5006+E364              ;     inc bc
 5007+E364              ;     inc hl
 5008+E364              ;     ;4,
 5009+E364              ;     ld a,(bc)
 5010+E364              ;     ld (hl),a
 5011+E364              ;     inc bc
 5012+E364              ;     inc hl
 5013+E364              ;     ;5,
 5014+E364              ;     ld a,(bc)
 5015+E364              ;     ld (hl),a
 5016+E364              ;     inc bc
 5017+E364              ;     inc hl
 5018+E364              ;     ;6
 5019+E364              ;     ld a,(bc)
 5020+E364              ;     ld (hl),a
 5021+E364              ;     inc bc
 5022+E364              ;     inc hl
 5023+E364              ;     ;7,
 5024+E364              ;     ld a,(bc)
 5025+E364              ;     ld (hl),a
 5026+E364              ;     inc bc
 5027+E364              ;     inc hl
 5028+E364              ;     ;8,
 5029+E364              ;     ld a,(bc)
 5030+E364              ;     ld (hl),a
 5031+E364              ;     inc bc
 5032+E364              ;     inc hl
 5033+E364              ;     ;9,
 5034+E364              ;     ld a,(bc)
 5035+E364              ;     ld (hl),a
 5036+E364              ;     inc bc
 5037+E364              ;     inc hl
 5038+E364              ;     ;10,
 5039+E364              ;     ld a,(bc)
 5040+E364              ;     ld (hl),a
 5041+E364              ;     inc bc
 5042+E364              ;     ld de,BUFFER_WINDOW_WIDTH-10
 5043+E364              ;     add hl,de ;increment HL pointer by wwidth
 5044+E364              ;     ;0,0    ;;;;;;9
 5045+E364              ;     ld a,(bc)
 5046+E364              ;     ld (hl),a
 5047+E364              ;     inc bc
 5048+E364              ;     inc hl
 5049+E364              ;     ;1,
 5050+E364              ;     ld a,(bc)
 5051+E364              ;     ld (hl),a
 5052+E364              ;     inc bc
 5053+E364              ;     inc hl
 5054+E364              ;     ;2,
 5055+E364              ;     ld a,(bc)
 5056+E364              ;     ld (hl),a
 5057+E364              ;     inc bc
 5058+E364              ;     inc hl
 5059+E364              ;     ;3,
 5060+E364              ;     ld a,(bc)
 5061+E364              ;     ld (hl),a
 5062+E364              ;     inc bc
 5063+E364              ;     inc hl
 5064+E364              ;     ;4,
 5065+E364              ;     ld a,(bc)
 5066+E364              ;     ld (hl),a
 5067+E364              ;     inc bc
 5068+E364              ;     inc hl
 5069+E364              ;     ;5,
 5070+E364              ;     ld a,(bc)
 5071+E364              ;     ld (hl),a
 5072+E364              ;     inc bc
 5073+E364              ;     inc hl
 5074+E364              ;     ;6
 5075+E364              ;     ld a,(bc)
 5076+E364              ;     ld (hl),a
 5077+E364              ;     inc bc
 5078+E364              ;     inc hl
 5079+E364              ;     ;7,
 5080+E364              ;     ld a,(bc)
 5081+E364              ;     ld (hl),a
 5082+E364              ;     inc bc
 5083+E364              ;     inc hl
 5084+E364              ;     ;8,
 5085+E364              ;     ld a,(bc)
 5086+E364              ;     ld (hl),a
 5087+E364              ;     inc bc
 5088+E364              ;     inc hl
 5089+E364              ;     ;9,
 5090+E364              ;     ld a,(bc)
 5091+E364              ;     ld (hl),a
 5092+E364              ;     inc bc
 5093+E364              ;     inc hl
 5094+E364              ;     ;10,
 5095+E364              ;     ld a,(bc)
 5096+E364              ;     ld (hl),a
 5097+E364              ;     inc bc
 5098+E364              ;     ld de,BUFFER_WINDOW_WIDTH-10
 5099+E364              ;     add hl,de ;increment HL pointer by wwidth
 5100+E364
 5101+E364
 5102+E364
 5103+E364
 5104+E364
 5105+E364
 5106+E364              ;     ;0,0    ;;;;;;50
 5107+E364              ;     ld a,(bc)
 5108+E364              ;     ld (hl),a
 5109+E364              ;     inc bc
 5110+E364              ;     inc hl
 5111+E364              ;     ;1,
 5112+E364              ;     ld a,(bc)
 5113+E364              ;     ld (hl),a
 5114+E364              ;     inc bc
 5115+E364              ;     inc hl
 5116+E364              ;     ;2,
 5117+E364              ;     ld a,(bc)
 5118+E364              ;     ld (hl),a
 5119+E364              ;     inc bc
 5120+E364              ;     inc hl
 5121+E364              ;     ;3,
 5122+E364              ;     ld a,(bc)
 5123+E364              ;     ld (hl),a
 5124+E364              ;     inc bc
 5125+E364              ;     inc hl
 5126+E364              ;     ;4,
 5127+E364              ;     ld a,(bc)
 5128+E364              ;     ld (hl),a
 5129+E364              ;     inc bc
 5130+E364              ;     inc hl
 5131+E364              ;     ;5,
 5132+E364              ;     ld a,(bc)
 5133+E364              ;     ld (hl),a
 5134+E364              ;     inc bc
 5135+E364              ;     inc hl
 5136+E364              ;     ;6
 5137+E364              ;     ld a,(bc)
 5138+E364              ;     ld (hl),a
 5139+E364              ;     inc bc
 5140+E364              ;     inc hl
 5141+E364              ;     ;7,
 5142+E364              ;     ld a,(bc)
 5143+E364              ;     ld (hl),a
 5144+E364              ;     inc bc
 5145+E364              ;     inc hl
 5146+E364              ;     ;8,
 5147+E364              ;     ld a,(bc)
 5148+E364              ;     ld (hl),a
 5149+E364              ;     inc bc
 5150+E364              ;     inc hl
 5151+E364              ;     ;9,
 5152+E364              ;     ld a,(bc)
 5153+E364              ;     ld (hl),a
 5154+E364              ;     inc bc
 5155+E364              ;     inc hl
 5156+E364              ;     ;10,
 5157+E364              ;     ld a,(bc)
 5158+E364              ;     ld (hl),a
 5159+E364              ;     inc bc
 5160+E364              ;     ld de,BUFFER_WINDOW_WIDTH-10
 5161+E364              ;     add hl,de ;increment HL pointer by wwidth
 5162+E364              ;     ;0,0    ;;;;;;1
 5163+E364              ;     ld a,(bc)
 5164+E364              ;     ld (hl),a
 5165+E364              ;     inc bc
 5166+E364              ;     inc hl
 5167+E364              ;     ;1,
 5168+E364              ;     ld a,(bc)
 5169+E364              ;     ld (hl),a
 5170+E364              ;     inc bc
 5171+E364              ;     inc hl
 5172+E364              ;     ;2,
 5173+E364              ;     ld a,(bc)
 5174+E364              ;     ld (hl),a
 5175+E364              ;     inc bc
 5176+E364              ;     inc hl
 5177+E364              ;     ;3,
 5178+E364              ;     ld a,(bc)
 5179+E364              ;     ld (hl),a
 5180+E364              ;     inc bc
 5181+E364              ;     inc hl
 5182+E364              ;     ;4,
 5183+E364              ;     ld a,(bc)
 5184+E364              ;     ld (hl),a
 5185+E364              ;     inc bc
 5186+E364              ;     inc hl
 5187+E364              ;     ;5,
 5188+E364              ;     ld a,(bc)
 5189+E364              ;     ld (hl),a
 5190+E364              ;     inc bc
 5191+E364              ;     inc hl
 5192+E364              ;     ;6
 5193+E364              ;     ld a,(bc)
 5194+E364              ;     ld (hl),a
 5195+E364              ;     inc bc
 5196+E364              ;     inc hl
 5197+E364              ;     ;7,
 5198+E364              ;     ld a,(bc)
 5199+E364              ;     ld (hl),a
 5200+E364              ;     inc bc
 5201+E364              ;     inc hl
 5202+E364              ;     ;8,
 5203+E364              ;     ld a,(bc)
 5204+E364              ;     ld (hl),a
 5205+E364              ;     inc bc
 5206+E364              ;     inc hl
 5207+E364              ;     ;9,
 5208+E364              ;     ld a,(bc)
 5209+E364              ;     ld (hl),a
 5210+E364              ;     inc bc
 5211+E364              ;     inc hl
 5212+E364              ;     ;10,
 5213+E364              ;     ld a,(bc)
 5214+E364              ;     ld (hl),a
 5215+E364              ;     inc bc
 5216+E364              ;     ld de,BUFFER_WINDOW_WIDTH-10
 5217+E364              ;     add hl,de ;increment HL pointer by wwidth
 5218+E364              ;     ;0,0    ;;;;;;2
 5219+E364              ;     ld a,(bc)
 5220+E364              ;     ld (hl),a
 5221+E364              ;     inc bc
 5222+E364              ;     inc hl
 5223+E364              ;     ;1,
 5224+E364              ;     ld a,(bc)
 5225+E364              ;     ld (hl),a
 5226+E364              ;     inc bc
 5227+E364              ;     inc hl
 5228+E364              ;     ;2,
 5229+E364              ;     ld a,(bc)
 5230+E364              ;     ld (hl),a
 5231+E364              ;     inc bc
 5232+E364              ;     inc hl
 5233+E364              ;     ;3,
 5234+E364              ;     ld a,(bc)
 5235+E364              ;     ld (hl),a
 5236+E364              ;     inc bc
 5237+E364              ;     inc hl
 5238+E364              ;     ;4,
 5239+E364              ;     ld a,(bc)
 5240+E364              ;     ld (hl),a
 5241+E364              ;     inc bc
 5242+E364              ;     inc hl
 5243+E364              ;     ;5,
 5244+E364              ;     ld a,(bc)
 5245+E364              ;     ld (hl),a
 5246+E364              ;     inc bc
 5247+E364              ;     inc hl
 5248+E364              ;     ;6
 5249+E364              ;     ld a,(bc)
 5250+E364              ;     ld (hl),a
 5251+E364              ;     inc bc
 5252+E364              ;     inc hl
 5253+E364              ;     ;7,
 5254+E364              ;     ld a,(bc)
 5255+E364              ;     ld (hl),a
 5256+E364              ;     inc bc
 5257+E364              ;     inc hl
 5258+E364              ;     ;8,
 5259+E364              ;     ld a,(bc)
 5260+E364              ;     ld (hl),a
 5261+E364              ;     inc bc
 5262+E364              ;     inc hl
 5263+E364              ;     ;9,
 5264+E364              ;     ld a,(bc)
 5265+E364              ;     ld (hl),a
 5266+E364              ;     inc bc
 5267+E364              ;     inc hl
 5268+E364              ;     ;10,
 5269+E364              ;     ld a,(bc)
 5270+E364              ;     ld (hl),a
 5271+E364              ;     inc bc
 5272+E364              ;     ld de,BUFFER_WINDOW_WIDTH-10
 5273+E364              ;     add hl,de ;increment HL pointer by wwidth
 5274+E364              ;     ;0,0    ;;;;;;3
 5275+E364              ;     ld a,(bc)
 5276+E364              ;     ld (hl),a
 5277+E364              ;     inc bc
 5278+E364              ;     inc hl
 5279+E364              ;     ;1,
 5280+E364              ;     ld a,(bc)
 5281+E364              ;     ld (hl),a
 5282+E364              ;     inc bc
 5283+E364              ;     inc hl
 5284+E364              ;     ;2,
 5285+E364              ;     ld a,(bc)
 5286+E364              ;     ld (hl),a
 5287+E364              ;     inc bc
 5288+E364              ;     inc hl
 5289+E364              ;     ;3,
 5290+E364              ;     ld a,(bc)
 5291+E364              ;     ld (hl),a
 5292+E364              ;     inc bc
 5293+E364              ;     inc hl
 5294+E364              ;     ;4,
 5295+E364              ;     ld a,(bc)
 5296+E364              ;     ld (hl),a
 5297+E364              ;     inc bc
 5298+E364              ;     inc hl
 5299+E364              ;     ;5,
 5300+E364              ;     ld a,(bc)
 5301+E364              ;     ld (hl),a
 5302+E364              ;     inc bc
 5303+E364              ;     inc hl
 5304+E364              ;     ;6
 5305+E364              ;     ld a,(bc)
 5306+E364              ;     ld (hl),a
 5307+E364              ;     inc bc
 5308+E364              ;     inc hl
 5309+E364              ;     ;7,
 5310+E364              ;     ld a,(bc)
 5311+E364              ;     ld (hl),a
 5312+E364              ;     inc bc
 5313+E364              ;     inc hl
 5314+E364              ;     ;8,
 5315+E364              ;     ld a,(bc)
 5316+E364              ;     ld (hl),a
 5317+E364              ;     inc bc
 5318+E364              ;     inc hl
 5319+E364              ;     ;9,
 5320+E364              ;     ld a,(bc)
 5321+E364              ;     ld (hl),a
 5322+E364              ;     inc bc
 5323+E364              ;     inc hl
 5324+E364              ;     ;10,
 5325+E364              ;     ld a,(bc)
 5326+E364              ;     ld (hl),a
 5327+E364              ;     inc bc
 5328+E364              ;     ld de,BUFFER_WINDOW_WIDTH-10
 5329+E364              ;     add hl,de ;increment HL pointer by wwidth
 5330+E364              ;     ;0,0    ;;;;;;4
 5331+E364              ;     ld a,(bc)
 5332+E364              ;     ld (hl),a
 5333+E364              ;     inc bc
 5334+E364              ;     inc hl
 5335+E364              ;     ;1,
 5336+E364              ;     ld a,(bc)
 5337+E364              ;     ld (hl),a
 5338+E364              ;     inc bc
 5339+E364              ;     inc hl
 5340+E364              ;     ;2,
 5341+E364              ;     ld a,(bc)
 5342+E364              ;     ld (hl),a
 5343+E364              ;     inc bc
 5344+E364              ;     inc hl
 5345+E364              ;     ;3,
 5346+E364              ;     ld a,(bc)
 5347+E364              ;     ld (hl),a
 5348+E364              ;     inc bc
 5349+E364              ;     inc hl
 5350+E364              ;     ;4,
 5351+E364              ;     ld a,(bc)
 5352+E364              ;     ld (hl),a
 5353+E364              ;     inc bc
 5354+E364              ;     inc hl
 5355+E364              ;     ;5,
 5356+E364              ;     ld a,(bc)
 5357+E364              ;     ld (hl),a
 5358+E364              ;     inc bc
 5359+E364              ;     inc hl
 5360+E364              ;     ;6
 5361+E364              ;     ld a,(bc)
 5362+E364              ;     ld (hl),a
 5363+E364              ;     inc bc
 5364+E364              ;     inc hl
 5365+E364              ;     ;7,
 5366+E364              ;     ld a,(bc)
 5367+E364              ;     ld (hl),a
 5368+E364              ;     inc bc
 5369+E364              ;     inc hl
 5370+E364              ;     ;8,
 5371+E364              ;     ld a,(bc)
 5372+E364              ;     ld (hl),a
 5373+E364              ;     inc bc
 5374+E364              ;     inc hl
 5375+E364              ;     ;9,
 5376+E364              ;     ld a,(bc)
 5377+E364              ;     ld (hl),a
 5378+E364              ;     inc bc
 5379+E364              ;     inc hl
 5380+E364              ;     ;10,
 5381+E364              ;     ld a,(bc)
 5382+E364              ;     ld (hl),a
 5383+E364              ;     inc bc
 5384+E364              ;     ld de,BUFFER_WINDOW_WIDTH-10
 5385+E364              ;     add hl,de ;increment HL pointer by wwidth
 5386+E364              ;     ;0,0    ;;;;;;5
 5387+E364              ;     ld a,(bc)
 5388+E364              ;     ld (hl),a
 5389+E364              ;     inc bc
 5390+E364              ;     inc hl
 5391+E364              ;     ;1,
 5392+E364              ;     ld a,(bc)
 5393+E364              ;     ld (hl),a
 5394+E364              ;     inc bc
 5395+E364              ;     inc hl
 5396+E364              ;     ;2,
 5397+E364              ;     ld a,(bc)
 5398+E364              ;     ld (hl),a
 5399+E364              ;     inc bc
 5400+E364              ;     inc hl
 5401+E364              ;     ;3,
 5402+E364              ;     ld a,(bc)
 5403+E364              ;     ld (hl),a
 5404+E364              ;     inc bc
 5405+E364              ;     inc hl
 5406+E364              ;     ;4,
 5407+E364              ;     ld a,(bc)
 5408+E364              ;     ld (hl),a
 5409+E364              ;     inc bc
 5410+E364              ;     inc hl
 5411+E364              ;     ;5,
 5412+E364              ;     ld a,(bc)
 5413+E364              ;     ld (hl),a
 5414+E364              ;     inc bc
 5415+E364              ;     inc hl
 5416+E364              ;     ;6
 5417+E364              ;     ld a,(bc)
 5418+E364              ;     ld (hl),a
 5419+E364              ;     inc bc
 5420+E364              ;     inc hl
 5421+E364              ;     ;7,
 5422+E364              ;     ld a,(bc)
 5423+E364              ;     ld (hl),a
 5424+E364              ;     inc bc
 5425+E364              ;     inc hl
 5426+E364              ;     ;8,
 5427+E364              ;     ld a,(bc)
 5428+E364              ;     ld (hl),a
 5429+E364              ;     inc bc
 5430+E364              ;     inc hl
 5431+E364              ;     ;9,
 5432+E364              ;     ld a,(bc)
 5433+E364              ;     ld (hl),a
 5434+E364              ;     inc bc
 5435+E364              ;     inc hl
 5436+E364              ;     ;10,
 5437+E364              ;     ld a,(bc)
 5438+E364              ;     ld (hl),a
 5439+E364              ;     inc bc
 5440+E364              ;     ld de,BUFFER_WINDOW_WIDTH-10
 5441+E364              ;     add hl,de ;increment HL pointer by wwidth
 5442+E364              ;     ;0,0    ;;;;;;6
 5443+E364              ;     ld a,(bc)
 5444+E364              ;     ld (hl),a
 5445+E364              ;     inc bc
 5446+E364              ;     inc hl
 5447+E364              ;     ;1,
 5448+E364              ;     ld a,(bc)
 5449+E364              ;     ld (hl),a
 5450+E364              ;     inc bc
 5451+E364              ;     inc hl
 5452+E364              ;     ;2,
 5453+E364              ;     ld a,(bc)
 5454+E364              ;     ld (hl),a
 5455+E364              ;     inc bc
 5456+E364              ;     inc hl
 5457+E364              ;     ;3,
 5458+E364              ;     ld a,(bc)
 5459+E364              ;     ld (hl),a
 5460+E364              ;     inc bc
 5461+E364              ;     inc hl
 5462+E364              ;     ;4,
 5463+E364              ;     ld a,(bc)
 5464+E364              ;     ld (hl),a
 5465+E364              ;     inc bc
 5466+E364              ;     inc hl
 5467+E364              ;     ;5,
 5468+E364              ;     ld a,(bc)
 5469+E364              ;     ld (hl),a
 5470+E364              ;     inc bc
 5471+E364              ;     inc hl
 5472+E364              ;     ;6
 5473+E364              ;     ld a,(bc)
 5474+E364              ;     ld (hl),a
 5475+E364              ;     inc bc
 5476+E364              ;     inc hl
 5477+E364              ;     ;7,
 5478+E364              ;     ld a,(bc)
 5479+E364              ;     ld (hl),a
 5480+E364              ;     inc bc
 5481+E364              ;     inc hl
 5482+E364              ;     ;8,
 5483+E364              ;     ld a,(bc)
 5484+E364              ;     ld (hl),a
 5485+E364              ;     inc bc
 5486+E364              ;     inc hl
 5487+E364              ;     ;9,
 5488+E364              ;     ld a,(bc)
 5489+E364              ;     ld (hl),a
 5490+E364              ;     inc bc
 5491+E364              ;     inc hl
 5492+E364              ;     ;10,
 5493+E364              ;     ld a,(bc)
 5494+E364              ;     ld (hl),a
 5495+E364              ;     inc bc
 5496+E364              ;     ld de,BUFFER_WINDOW_WIDTH-10
 5497+E364              ;     add hl,de ;increment HL pointer by wwidth
 5498+E364              ;     ;0,0    ;;;;;;7
 5499+E364              ;     ld a,(bc)
 5500+E364              ;     ld (hl),a
 5501+E364              ;     inc bc
 5502+E364              ;     inc hl
 5503+E364              ;     ;1,
 5504+E364              ;     ld a,(bc)
 5505+E364              ;     ld (hl),a
 5506+E364              ;     inc bc
 5507+E364              ;     inc hl
 5508+E364              ;     ;2,
 5509+E364              ;     ld a,(bc)
 5510+E364              ;     ld (hl),a
 5511+E364              ;     inc bc
 5512+E364              ;     inc hl
 5513+E364              ;     ;3,
 5514+E364              ;     ld a,(bc)
 5515+E364              ;     ld (hl),a
 5516+E364              ;     inc bc
 5517+E364              ;     inc hl
 5518+E364              ;     ;4,
 5519+E364              ;     ld a,(bc)
 5520+E364              ;     ld (hl),a
 5521+E364              ;     inc bc
 5522+E364              ;     inc hl
 5523+E364              ;     ;5,
 5524+E364              ;     ld a,(bc)
 5525+E364              ;     ld (hl),a
 5526+E364              ;     inc bc
 5527+E364              ;     inc hl
 5528+E364              ;     ;6
 5529+E364              ;     ld a,(bc)
 5530+E364              ;     ld (hl),a
 5531+E364              ;     inc bc
 5532+E364              ;     inc hl
 5533+E364              ;     ;7,
 5534+E364              ;     ld a,(bc)
 5535+E364              ;     ld (hl),a
 5536+E364              ;     inc bc
 5537+E364              ;     inc hl
 5538+E364              ;     ;8,
 5539+E364              ;     ld a,(bc)
 5540+E364              ;     ld (hl),a
 5541+E364              ;     inc bc
 5542+E364              ;     inc hl
 5543+E364              ;     ;9,
 5544+E364              ;     ld a,(bc)
 5545+E364              ;     ld (hl),a
 5546+E364              ;     inc bc
 5547+E364              ;     inc hl
 5548+E364              ;     ;10,
 5549+E364              ;     ld a,(bc)
 5550+E364              ;     ld (hl),a
 5551+E364              ;     inc bc
 5552+E364              ;     ld de,BUFFER_WINDOW_WIDTH-10
 5553+E364              ;     add hl,de ;increment HL pointer by wwidth
 5554+E364              ;     ;0,0    ;;;;;;8
 5555+E364              ;     ld a,(bc)
 5556+E364              ;     ld (hl),a
 5557+E364              ;     inc bc
 5558+E364              ;     inc hl
 5559+E364              ;     ;1,
 5560+E364              ;     ld a,(bc)
 5561+E364              ;     ld (hl),a
 5562+E364              ;     inc bc
 5563+E364              ;     inc hl
 5564+E364              ;     ;2,
 5565+E364              ;     ld a,(bc)
 5566+E364              ;     ld (hl),a
 5567+E364              ;     inc bc
 5568+E364              ;     inc hl
 5569+E364              ;     ;3,
 5570+E364              ;     ld a,(bc)
 5571+E364              ;     ld (hl),a
 5572+E364              ;     inc bc
 5573+E364              ;     inc hl
 5574+E364              ;     ;4,
 5575+E364              ;     ld a,(bc)
 5576+E364              ;     ld (hl),a
 5577+E364              ;     inc bc
 5578+E364              ;     inc hl
 5579+E364              ;     ;5,
 5580+E364              ;     ld a,(bc)
 5581+E364              ;     ld (hl),a
 5582+E364              ;     inc bc
 5583+E364              ;     inc hl
 5584+E364              ;     ;6
 5585+E364              ;     ld a,(bc)
 5586+E364              ;     ld (hl),a
 5587+E364              ;     inc bc
 5588+E364              ;     inc hl
 5589+E364              ;     ;7,
 5590+E364              ;     ld a,(bc)
 5591+E364              ;     ld (hl),a
 5592+E364              ;     inc bc
 5593+E364              ;     inc hl
 5594+E364              ;     ;8,
 5595+E364              ;     ld a,(bc)
 5596+E364              ;     ld (hl),a
 5597+E364              ;     inc bc
 5598+E364              ;     inc hl
 5599+E364              ;     ;9,
 5600+E364              ;     ld a,(bc)
 5601+E364              ;     ld (hl),a
 5602+E364              ;     inc bc
 5603+E364              ;     inc hl
 5604+E364              ;     ;10,
 5605+E364              ;     ld a,(bc)
 5606+E364              ;     ld (hl),a
 5607+E364              ;     inc bc
 5608+E364              ;     ld de,BUFFER_WINDOW_WIDTH-10
 5609+E364              ;     add hl,de ;increment HL pointer by wwidth
 5610+E364              ;     ;0,0    ;;;;;;9
 5611+E364              ;     ld a,(bc)
 5612+E364              ;     ld (hl),a
 5613+E364              ;     inc bc
 5614+E364              ;     inc hl
 5615+E364              ;     ;1,
 5616+E364              ;     ld a,(bc)
 5617+E364              ;     ld (hl),a
 5618+E364              ;     inc bc
 5619+E364              ;     inc hl
 5620+E364              ;     ;2,
 5621+E364              ;     ld a,(bc)
 5622+E364              ;     ld (hl),a
 5623+E364              ;     inc bc
 5624+E364              ;     inc hl
 5625+E364              ;     ;3,
 5626+E364              ;     ld a,(bc)
 5627+E364              ;     ld (hl),a
 5628+E364              ;     inc bc
 5629+E364              ;     inc hl
 5630+E364              ;     ;4,
 5631+E364              ;     ld a,(bc)
 5632+E364              ;     ld (hl),a
 5633+E364              ;     inc bc
 5634+E364              ;     inc hl
 5635+E364              ;     ;5,
 5636+E364              ;     ld a,(bc)
 5637+E364              ;     ld (hl),a
 5638+E364              ;     inc bc
 5639+E364              ;     inc hl
 5640+E364              ;     ;6
 5641+E364              ;     ld a,(bc)
 5642+E364              ;     ld (hl),a
 5643+E364              ;     inc bc
 5644+E364              ;     inc hl
 5645+E364              ;     ;7,
 5646+E364              ;     ld a,(bc)
 5647+E364              ;     ld (hl),a
 5648+E364              ;     inc bc
 5649+E364              ;     inc hl
 5650+E364              ;     ;8,
 5651+E364              ;     ld a,(bc)
 5652+E364              ;     ld (hl),a
 5653+E364              ;     inc bc
 5654+E364              ;     inc hl
 5655+E364              ;     ;9,
 5656+E364              ;     ld a,(bc)
 5657+E364              ;     ld (hl),a
 5658+E364              ;     inc bc
 5659+E364              ;     inc hl
 5660+E364              ;     ;10,
 5661+E364              ;     ld a,(bc)
 5662+E364              ;     ld (hl),a
 5663+E364              ;     inc bc
 5664+E364              ;     ld de,BUFFER_WINDOW_WIDTH-10
 5665+E364              ;     add hl,de ;increment HL pointer by wwidth
 5666+E364
 5667+E364
 5668+E364
 5669+E364
 5670+E364
 5671+E364
 5672+E364
 5673+E364
 5674+E364
 5675+E364              ;     ;0,0    ;;;;;;50
 5676+E364              ;     ld a,(bc)
 5677+E364              ;     ld (hl),a
 5678+E364              ;     inc bc
 5679+E364              ;     inc hl
 5680+E364              ;     ;1,
 5681+E364              ;     ld a,(bc)
 5682+E364              ;     ld (hl),a
 5683+E364              ;     inc bc
 5684+E364              ;     inc hl
 5685+E364              ;     ;2,
 5686+E364              ;     ld a,(bc)
 5687+E364              ;     ld (hl),a
 5688+E364              ;     inc bc
 5689+E364              ;     inc hl
 5690+E364              ;     ;3,
 5691+E364              ;     ld a,(bc)
 5692+E364              ;     ld (hl),a
 5693+E364              ;     inc bc
 5694+E364              ;     inc hl
 5695+E364              ;     ;4,
 5696+E364              ;     ld a,(bc)
 5697+E364              ;     ld (hl),a
 5698+E364              ;     inc bc
 5699+E364              ;     inc hl
 5700+E364              ;     ;5,
 5701+E364              ;     ld a,(bc)
 5702+E364              ;     ld (hl),a
 5703+E364              ;     inc bc
 5704+E364              ;     inc hl
 5705+E364              ;     ;6
 5706+E364              ;     ld a,(bc)
 5707+E364              ;     ld (hl),a
 5708+E364              ;     inc bc
 5709+E364              ;     inc hl
 5710+E364              ;     ;7,
 5711+E364              ;     ld a,(bc)
 5712+E364              ;     ld (hl),a
 5713+E364              ;     inc bc
 5714+E364              ;     inc hl
 5715+E364              ;     ;8,
 5716+E364              ;     ld a,(bc)
 5717+E364              ;     ld (hl),a
 5718+E364              ;     inc bc
 5719+E364              ;     inc hl
 5720+E364              ;     ;9,
 5721+E364              ;     ld a,(bc)
 5722+E364              ;     ld (hl),a
 5723+E364              ;     inc bc
 5724+E364              ;     inc hl
 5725+E364              ;     ;10,
 5726+E364              ;     ld a,(bc)
 5727+E364              ;     ld (hl),a
 5728+E364              ;     inc bc
 5729+E364              ;     ld de,BUFFER_WINDOW_WIDTH-10
 5730+E364              ;     add hl,de ;increment HL pointer by wwidth
 5731+E364              ;     ;0,0    ;;;;;;1
 5732+E364              ;     ld a,(bc)
 5733+E364              ;     ld (hl),a
 5734+E364              ;     inc bc
 5735+E364              ;     inc hl
 5736+E364              ;     ;1,
 5737+E364              ;     ld a,(bc)
 5738+E364              ;     ld (hl),a
 5739+E364              ;     inc bc
 5740+E364              ;     inc hl
 5741+E364              ;     ;2,
 5742+E364              ;     ld a,(bc)
 5743+E364              ;     ld (hl),a
 5744+E364              ;     inc bc
 5745+E364              ;     inc hl
 5746+E364              ;     ;3,
 5747+E364              ;     ld a,(bc)
 5748+E364              ;     ld (hl),a
 5749+E364              ;     inc bc
 5750+E364              ;     inc hl
 5751+E364              ;     ;4,
 5752+E364              ;     ld a,(bc)
 5753+E364              ;     ld (hl),a
 5754+E364              ;     inc bc
 5755+E364              ;     inc hl
 5756+E364              ;     ;5,
 5757+E364              ;     ld a,(bc)
 5758+E364              ;     ld (hl),a
 5759+E364              ;     inc bc
 5760+E364              ;     inc hl
 5761+E364              ;     ;6
 5762+E364              ;     ld a,(bc)
 5763+E364              ;     ld (hl),a
 5764+E364              ;     inc bc
 5765+E364              ;     inc hl
 5766+E364              ;     ;7,
 5767+E364              ;     ld a,(bc)
 5768+E364              ;     ld (hl),a
 5769+E364              ;     inc bc
 5770+E364              ;     inc hl
 5771+E364              ;     ;8,
 5772+E364              ;     ld a,(bc)
 5773+E364              ;     ld (hl),a
 5774+E364              ;     inc bc
 5775+E364              ;     inc hl
 5776+E364              ;     ;9,
 5777+E364              ;     ld a,(bc)
 5778+E364              ;     ld (hl),a
 5779+E364              ;     inc bc
 5780+E364              ;     inc hl
 5781+E364              ;     ;10,
 5782+E364              ;     ld a,(bc)
 5783+E364              ;     ld (hl),a
 5784+E364              ;     inc bc
 5785+E364              ;     ld de,BUFFER_WINDOW_WIDTH-10
 5786+E364              ;     add hl,de ;increment HL pointer by wwidth
 5787+E364              ;     ;0,0    ;;;;;;2
 5788+E364              ;     ld a,(bc)
 5789+E364              ;     ld (hl),a
 5790+E364              ;     inc bc
 5791+E364              ;     inc hl
 5792+E364              ;     ;1,
 5793+E364              ;     ld a,(bc)
 5794+E364              ;     ld (hl),a
 5795+E364              ;     inc bc
 5796+E364              ;     inc hl
 5797+E364              ;     ;2,
 5798+E364              ;     ld a,(bc)
 5799+E364              ;     ld (hl),a
 5800+E364              ;     inc bc
 5801+E364              ;     inc hl
 5802+E364              ;     ;3,
 5803+E364              ;     ld a,(bc)
 5804+E364              ;     ld (hl),a
 5805+E364              ;     inc bc
 5806+E364              ;     inc hl
 5807+E364              ;     ;4,
 5808+E364              ;     ld a,(bc)
 5809+E364              ;     ld (hl),a
 5810+E364              ;     inc bc
 5811+E364              ;     inc hl
 5812+E364              ;     ;5,
 5813+E364              ;     ld a,(bc)
 5814+E364              ;     ld (hl),a
 5815+E364              ;     inc bc
 5816+E364              ;     inc hl
 5817+E364              ;     ;6
 5818+E364              ;     ld a,(bc)
 5819+E364              ;     ld (hl),a
 5820+E364              ;     inc bc
 5821+E364              ;     inc hl
 5822+E364              ;     ;7,
 5823+E364              ;     ld a,(bc)
 5824+E364              ;     ld (hl),a
 5825+E364              ;     inc bc
 5826+E364              ;     inc hl
 5827+E364              ;     ;8,
 5828+E364              ;     ld a,(bc)
 5829+E364              ;     ld (hl),a
 5830+E364              ;     inc bc
 5831+E364              ;     inc hl
 5832+E364              ;     ;9,
 5833+E364              ;     ld a,(bc)
 5834+E364              ;     ld (hl),a
 5835+E364              ;     inc bc
 5836+E364              ;     inc hl
 5837+E364              ;     ;10,
 5838+E364              ;     ld a,(bc)
 5839+E364              ;     ld (hl),a
 5840+E364              ;     ret
# file closed: retrohelpers/spritedrawing.asm
   47 E364                  include 'ui\ui.asm'
# file opened: ui/ui.asm
    1+E364              UI_COLOURS equ %01010100
    2+E364
    3+E364              ui_init:
    4+E364 21 00 58         ld hl,0x5800
    5+E367 06 54            ld b,UI_COLOURS
    6+E369 CD BC 98         call paint_base_attributes
    7+E36C
    8+E36C CD 73 E3         call init_ui_labels
    9+E36F CD B8 E3         call refresh_ui_numbers
   10+E372 C9               ret
   11+E373
   12+E373
   13+E373              init_ui_labels:
   14+E373 01 00 3D         ld bc,15616
   15+E376 16 01            ld d,CASH_LABEL_Y
   16+E378 1E 19            ld e,CASH_LABEL_X
   17+E37A CD 22 98         call GetCharAddr
   18+E37D 11 57 E7         ld de,cash_string
   19+E380 CD 5D 98         call PrintStr
   20+E383
   21+E383 16 04            ld d,SCORE_LABEL_Y
   22+E385 1E 19            ld e,SCORE_LABEL_X
   23+E387 CD 22 98         call GetCharAddr
   24+E38A 11 62 E7         ld de,score_string
   25+E38D CD 5D 98         call PrintStr
   26+E390
   27+E390 16 07            ld d,LIVES_LABEL_Y
   28+E392 1E 19            ld e,LIVES_LABEL_X
   29+E394 CD 22 98         call GetCharAddr
   30+E397 11 6E E7         ld de,lives_string
   31+E39A CD 5D 98         call PrintStr
   32+E39D
   33+E39D 16 0A            ld d,UI_SMART_BOMBS_LABEL_Y
   34+E39F 1E 19            ld e,UI_SMART_BOMBS_LABEL_X
   35+E3A1 CD 22 98         call GetCharAddr
   36+E3A4 11 75 E7         ld de,ui_smart_bombs_string
   37+E3A7 CD 5D 98         call PrintStr
   38+E3AA
   39+E3AA 16 0D            ld d,UI_SHIELD_LABEL_Y
   40+E3AC 1E 19            ld e,UI_SHIELD_LABEL_X
   41+E3AE CD 22 98         call GetCharAddr
   42+E3B1 11 7C E7         ld de,shield_string
   43+E3B4 CD 5D 98         call PrintStr
   44+E3B7
   45+E3B7 C9               ret
   46+E3B8
   47+E3B8              refresh_ui_numbers:
   48+E3B8 01 00 3D         ld bc,15616
   49+E3BB 16 02            ld d,CASH_Y
   50+E3BD 1E 19            ld e,CASH_10000_X
   51+E3BF CD 22 98         call GetCharAddr
   52+E3C2 3A 61 E7         ld a,(cash_10000)
   53+E3C5 C6 30            add a,ASCII_ZERO
   54+E3C7 CD 31 98         call PrintChar
   55+E3CA
   56+E3CA 16 02            ld d,CASH_Y
   57+E3CC 1E 1A            ld e,CASH_1000_X
   58+E3CE CD 22 98         call GetCharAddr
   59+E3D1 3A 60 E7         ld a,(cash_1000)
   60+E3D4 C6 30            add a,ASCII_ZERO
   61+E3D6 CD 31 98         call PrintChar
   62+E3D9
   63+E3D9 16 02            ld d,CASH_Y
   64+E3DB 1E 1B            ld e,CASH_100_X
   65+E3DD CD 22 98         call GetCharAddr
   66+E3E0 3A 5F E7         ld a,(cash_100)
   67+E3E3 C6 30            add a,ASCII_ZERO
   68+E3E5 CD 31 98         call PrintChar
   69+E3E8
   70+E3E8 16 02            ld d,CASH_Y
   71+E3EA 1E 1C            ld e,CASH_10_X
   72+E3EC CD 22 98         call GetCharAddr
   73+E3EF 3A 5E E7         ld a,(cash_10)
   74+E3F2 C6 30            add a,ASCII_ZERO
   75+E3F4 CD 31 98         call PrintChar
   76+E3F7
   77+E3F7 16 02            ld d,CASH_Y
   78+E3F9 1E 1D            ld e,CASH_1_X
   79+E3FB CD 22 98         call GetCharAddr
   80+E3FE 3A 5D E7         ld a,(cash_1)
   81+E401 C6 30            add a,ASCII_ZERO
   82+E403 CD 31 98         call PrintChar
   83+E406
   84+E406 16 02            ld d,CASH_Y
   85+E408 1E 1E            ld e,CASH_1_X+1
   86+E40A CD 22 98         call GetCharAddr
   87+E40D 3E 4D            ld a,'M'
   88+E40F CD 31 98         call PrintChar
   89+E412
   90+E412                  ;;POINTS::
   91+E412
   92+E412 16 05            ld d,SCORE_Y
   93+E414 1E 19            ld e,SCORE_100000_X
   94+E416 CD 22 98         call GetCharAddr
   95+E419 3A 6D E7         ld a,(score_100000)
   96+E41C C6 30            add a,ASCII_ZERO
   97+E41E CD 31 98         call PrintChar
   98+E421
   99+E421 16 05            ld d,SCORE_Y
  100+E423 1E 1A            ld e,SCORE_10000_X
  101+E425 CD 22 98         call GetCharAddr
  102+E428 3A 6C E7         ld a,(score_10000)
  103+E42B C6 30            add a,ASCII_ZERO
  104+E42D CD 31 98         call PrintChar
  105+E430
  106+E430 16 05            ld d,SCORE_Y
  107+E432 1E 1B            ld e,SCORE_1000_X
  108+E434 CD 22 98         call GetCharAddr
  109+E437 3A 6B E7         ld a,(score_1000)
  110+E43A C6 30            add a,ASCII_ZERO
  111+E43C CD 31 98         call PrintChar
  112+E43F
  113+E43F 16 05            ld d,SCORE_Y
  114+E441 1E 1C            ld e,SCORE_100_X
  115+E443 CD 22 98         call GetCharAddr
  116+E446 3A 6A E7         ld a,(score_100)
  117+E449 C6 30            add a,ASCII_ZERO
  118+E44B CD 31 98         call PrintChar
  119+E44E
  120+E44E 16 05            ld d,SCORE_Y
  121+E450 1E 1D            ld e,SCORE_10_X
  122+E452 CD 22 98         call GetCharAddr
  123+E455 3A 69 E7         ld a,(score_10)
  124+E458 C6 30            add a,ASCII_ZERO
  125+E45A CD 31 98         call PrintChar
  126+E45D
  127+E45D 16 05            ld d,SCORE_Y
  128+E45F 1E 1E            ld e,SCORE_1_X
  129+E461 CD 22 98         call GetCharAddr
  130+E464 3A 68 E7         ld a,(score_1)
  131+E467 C6 30            add a,ASCII_ZERO
  132+E469 CD 31 98         call PrintChar
  133+E46C
  134+E46C                  ;LIVES
  135+E46C
  136+E46C 16 08            ld d,LIVES_Y
  137+E46E 1E 1D            ld e,LIVES_1_X
  138+E470 CD 22 98         call GetCharAddr
  139+E473 3A 74 E7         ld a,(lives_1)
  140+E476 C6 30            add a,ASCII_ZERO
  141+E478 CD 31 98         call PrintChar
  142+E47B
  143+E47B
  144+E47B                  ;SMART BOMBS:
  145+E47B
  146+E47B 16 0B            ld d,UI_SMART_BOMBS_Y
  147+E47D 1E 1D            ld e,UI_SMART_BOMBS_1_X
  148+E47F CD 22 98         call GetCharAddr
  149+E482 3A 7B E7         ld a,(player_smartbombs)
  150+E485 C6 30            add a,ASCII_ZERO
  151+E487 CD 31 98         call PrintChar
  152+E48A
  153+E48A
  154+E48A                  ;SHIELDS:
  155+E48A
  156+E48A 16 0E            ld d,UI_SHIELD_Y
  157+E48C 1E 1D            ld e,UI_SHIELD_1_X
  158+E48E CD 22 98         call GetCharAddr
  159+E491 3A 83 E7         ld a,(player_shields)
  160+E494 C6 30            add a,ASCII_ZERO
  161+E496 CD 31 98         call PrintChar
  162+E499
  163+E499
  164+E499 C9               ret
  165+E49A              ;
  166+E49A
  167+E49A              ;DE=yx
  168+E49A              ;A=(value)
  169+E49A              draw_digit:
  170+E49A 01 00 3D         ld bc,15616
  171+E49D F5               push af
  172+E49E CD 22 98         call GetCharAddr
  173+E4A1 F1               pop af
  174+E4A2 C6 30            add a,ASCII_ZERO
  175+E4A4 CD 31 98         call PrintChar
  176+E4A7 C9               ret
  177+E4A8              ;
  178+E4A8
  179+E4A8
  180+E4A8
  181+E4A8
  182+E4A8
  183+E4A8              increment_cash1:
  184+E4A8 3A 5D E7         ld a,(cash_1)
  185+E4AB 3C               inc a
  186+E4AC 32 5D E7         ld (cash_1),a
  187+E4AF FE 09            cp 9
  188+E4B1 CA BF E4         jp z, reset_cash_1
  189+E4B4
  190+E4B4 16 02            ld d,CASH_Y
  191+E4B6 1E 1D            ld e,CASH_1_X
  192+E4B8 3A 5D E7         ld a,(cash_1)
  193+E4BB CD 9A E4         call draw_digit
  194+E4BE C9               ret
  195+E4BF              reset_cash_1:
  196+E4BF CD D1 E4         call increment_cash10
  197+E4C2 AF               xor a
  198+E4C3 32 5D E7         ld (cash_1),a
  199+E4C6 16 02            ld d,CASH_Y
  200+E4C8 1E 1D            ld e,CASH_1_X
  201+E4CA 3A 5D E7         ld a,(cash_1)
  202+E4CD CD 9A E4         call draw_digit
  203+E4D0 C9               ret
  204+E4D1
  205+E4D1              increment_cash10:
  206+E4D1 3A 5E E7         ld a,(cash_10)
  207+E4D4 FE 09            cp 9
  208+E4D6 D2 E8 E4         jp nc,reset_cash10
  209+E4D9 3C               inc a
  210+E4DA 32 5E E7         ld (cash_10),a
  211+E4DD 16 02            ld d,CASH_Y
  212+E4DF 1E 1C            ld e,CASH_10_X
  213+E4E1 3A 5E E7         ld a,(cash_10)
  214+E4E4 CD 9A E4         call draw_digit
  215+E4E7 C9               ret
  216+E4E8
  217+E4E8              reset_cash10:
  218+E4E8 CD FA E4         call increment_cash100
  219+E4EB AF               xor a
  220+E4EC 32 5E E7         ld (cash_10),a
  221+E4EF 16 02            ld d,CASH_Y
  222+E4F1 1E 1C            ld e,CASH_10_X
  223+E4F3 3A 5E E7         ld a,(cash_10)
  224+E4F6 CD 9A E4         call draw_digit
  225+E4F9
  226+E4F9 C9               ret
  227+E4FA
  228+E4FA              increment_cash100:
  229+E4FA 3A 5F E7         ld a,(cash_100)
  230+E4FD FE 09            cp 9
  231+E4FF CA 11 E5         jp z,reset_cash100
  232+E502 3C               inc a
  233+E503 32 5F E7         ld (cash_100),a
  234+E506 16 02            ld d,CASH_Y
  235+E508 1E 1B            ld e,CASH_100_X
  236+E50A 3A 5F E7         ld a,(cash_100)
  237+E50D CD 9A E4         call draw_digit
  238+E510 C9               ret
  239+E511
  240+E511              reset_cash100:
  241+E511 CD 23 E5         call increment_cash1000
  242+E514 AF               xor a
  243+E515 32 5F E7         ld (cash_100),a
  244+E518 16 02            ld d,CASH_Y
  245+E51A 1E 1B            ld e,CASH_100_X
  246+E51C 3A 5F E7         ld a,(cash_100)
  247+E51F CD 9A E4         call draw_digit
  248+E522
  249+E522 C9               ret
  250+E523
  251+E523              increment_cash1000:
  252+E523 3A 60 E7         ld a,(cash_1000)
  253+E526 FE 09            cp 9
  254+E528 CA 3A E5         jp z,reset_cash1000
  255+E52B 3C               inc a
  256+E52C 32 60 E7         ld (cash_1000),a
  257+E52F 16 02            ld d,CASH_Y
  258+E531 1E 1A            ld e,CASH_1000_X
  259+E533 3A 60 E7         ld a,(cash_1000)
  260+E536 CD 9A E4         call draw_digit
  261+E539 C9               ret
  262+E53A
  263+E53A              reset_cash1000:
  264+E53A CD 4C E5         call increment_cash10000
  265+E53D AF               xor a
  266+E53E 32 60 E7         ld (cash_1000),a
  267+E541 16 02            ld d,CASH_Y
  268+E543 1E 1A            ld e,CASH_1000_X
  269+E545 3A 60 E7         ld a,(cash_1000)
  270+E548 CD 9A E4         call draw_digit
  271+E54B
  272+E54B C9               ret
  273+E54C
  274+E54C              increment_cash10000:
  275+E54C 3A 61 E7         ld a,(cash_10000)
  276+E54F FE 09            cp 9
  277+E551 C8               ret z
  278+E552 3C               inc a
  279+E553 32 61 E7         ld (cash_10000),a
  280+E556 16 02            ld d,CASH_Y
  281+E558 1E 19            ld e,CASH_10000_X
  282+E55A 3A 61 E7         ld a,(cash_10000)
  283+E55D CD 9A E4         call draw_digit
  284+E560 C9               ret
  285+E561
  286+E561
  287+E561
  288+E561
  289+E561
  290+E561              decrement_cash100:
  291+E561 3A 5F E7         ld a,(cash_100)
  292+E564 FE 00            cp 0
  293+E566 CA 78 E5         jp z,dec_reset_cash100
  294+E569 3D               dec a
  295+E56A 32 5F E7         ld (cash_100),a
  296+E56D 16 02            ld d,CASH_Y
  297+E56F 1E 1B            ld e,CASH_100_X
  298+E571 3A 5F E7         ld a,(cash_100)
  299+E574 CD 9A E4         call draw_digit
  300+E577 C9               ret
  301+E578
  302+E578              dec_reset_cash100:
  303+E578 CD 8B E5         call decrement_cash1000
  304+E57B 3E 09            ld a,9
  305+E57D 32 5F E7         ld (cash_100),a
  306+E580 16 02            ld d,CASH_Y
  307+E582 1E 1B            ld e,CASH_100_X
  308+E584 3A 5F E7         ld a,(cash_100)
  309+E587 CD 9A E4         call draw_digit
  310+E58A C9               ret
  311+E58B
  312+E58B              decrement_cash1000:
  313+E58B 3A 60 E7         ld a,(cash_1000)
  314+E58E FE 00            cp 0
  315+E590 CA A2 E5         jp z,dec_reset_cash1000
  316+E593 3D               dec a
  317+E594 32 60 E7         ld (cash_1000),a
  318+E597 16 02            ld d,CASH_Y
  319+E599 1E 1A            ld e,CASH_1000_X
  320+E59B 3A 60 E7         ld a,(cash_1000)
  321+E59E CD 9A E4         call draw_digit
  322+E5A1 C9               ret
  323+E5A2
  324+E5A2              dec_reset_cash1000:
  325+E5A2 CD B5 E5         call decrement_cash10000
  326+E5A5 3E 09            ld a,9
  327+E5A7 32 60 E7         ld (cash_1000),a
  328+E5AA 16 02            ld d,CASH_Y
  329+E5AC 1E 1A            ld e,CASH_1000_X
  330+E5AE 3A 60 E7         ld a,(cash_1000)
  331+E5B1 CD 9A E4         call draw_digit
  332+E5B4
  333+E5B4 C9               ret
  334+E5B5
  335+E5B5              decrement_cash10000:
  336+E5B5 3A 61 E7         ld a,(cash_10000)
  337+E5B8 FE 00            cp 0
  338+E5BA C8               ret z
  339+E5BB 3D               dec a
  340+E5BC 32 61 E7         ld (cash_10000),a
  341+E5BF 16 02            ld d,CASH_Y
  342+E5C1 1E 19            ld e,CASH_10000_X
  343+E5C3 3A 61 E7         ld a,(cash_10000)
  344+E5C6 CD 9A E4         call draw_digit
  345+E5C9 C9               ret
  346+E5CA
  347+E5CA
  348+E5CA
  349+E5CA
  350+E5CA
  351+E5CA
  352+E5CA
  353+E5CA
  354+E5CA
  355+E5CA              increment_score1:
  356+E5CA 3A 68 E7         ld a,(score_1)
  357+E5CD 3C               inc a
  358+E5CE 32 68 E7         ld (score_1),a
  359+E5D1 FE 09            cp 9
  360+E5D3 CA E1 E5         jp z, reset_score_1
  361+E5D6
  362+E5D6 16 05            ld d,SCORE_Y
  363+E5D8 1E 1E            ld e,SCORE_1_X
  364+E5DA 3A 68 E7         ld a,(score_1)
  365+E5DD CD 9A E4         call draw_digit
  366+E5E0 C9               ret
  367+E5E1              reset_score_1:
  368+E5E1 CD F3 E5         call increment_score10
  369+E5E4 AF               xor a
  370+E5E5 32 68 E7         ld (score_1),a
  371+E5E8 16 05            ld d,SCORE_Y
  372+E5EA 1E 1E            ld e,SCORE_1_X
  373+E5EC 3A 68 E7         ld a,(score_1)
  374+E5EF CD 9A E4         call draw_digit
  375+E5F2 C9               ret
  376+E5F3
  377+E5F3              increment_score10:
  378+E5F3 3A 69 E7         ld a,(score_10)
  379+E5F6 FE 09            cp 9
  380+E5F8 D2 0A E6         jp nc,reset_score10
  381+E5FB 3C               inc a
  382+E5FC 32 69 E7         ld (score_10),a
  383+E5FF 16 05            ld d,SCORE_Y
  384+E601 1E 1D            ld e,SCORE_10_X
  385+E603 3A 69 E7         ld a,(score_10)
  386+E606 CD 9A E4         call draw_digit
  387+E609 C9               ret
  388+E60A
  389+E60A              reset_score10:
  390+E60A CD 1C E6         call increment_score100
  391+E60D AF               xor a
  392+E60E 32 69 E7         ld (score_10),a
  393+E611 16 05            ld d,SCORE_Y
  394+E613 1E 1D            ld e,SCORE_10_X
  395+E615 3A 69 E7         ld a,(score_10)
  396+E618 CD 9A E4         call draw_digit
  397+E61B
  398+E61B C9               ret
  399+E61C
  400+E61C              increment_score100:
  401+E61C 3A 6A E7         ld a,(score_100)
  402+E61F FE 09            cp 9
  403+E621 CA 33 E6         jp z,reset_score100
  404+E624 3C               inc a
  405+E625 32 6A E7         ld (score_100),a
  406+E628 16 05            ld d,SCORE_Y
  407+E62A 1E 1C            ld e,SCORE_100_X
  408+E62C 3A 6A E7         ld a,(score_100)
  409+E62F CD 9A E4         call draw_digit
  410+E632 C9               ret
  411+E633
  412+E633              reset_score100:
  413+E633 CD 45 E6         call increment_score1000
  414+E636 AF               xor a
  415+E637 32 6A E7         ld (score_100),a
  416+E63A 16 05            ld d,SCORE_Y
  417+E63C 1E 1C            ld e,SCORE_100_X
  418+E63E 3A 6A E7         ld a,(score_100)
  419+E641 CD 9A E4         call draw_digit
  420+E644
  421+E644 C9               ret
  422+E645
  423+E645              increment_score1000:
  424+E645 3A 6B E7         ld a,(score_1000)
  425+E648 FE 09            cp 9
  426+E64A CA 5C E6         jp z,reset_score1000
  427+E64D 3C               inc a
  428+E64E 32 6B E7         ld (score_1000),a
  429+E651 16 05            ld d,SCORE_Y
  430+E653 1E 1B            ld e,SCORE_1000_X
  431+E655 3A 6B E7         ld a,(score_1000)
  432+E658 CD 9A E4         call draw_digit
  433+E65B C9               ret
  434+E65C
  435+E65C              reset_score1000:
  436+E65C CD 6E E6         call increment_score10000
  437+E65F AF               xor a
  438+E660 32 6B E7         ld (score_1000),a
  439+E663 16 05            ld d,SCORE_Y
  440+E665 1E 1B            ld e,SCORE_1000_X
  441+E667 3A 6B E7         ld a,(score_1000)
  442+E66A CD 9A E4         call draw_digit
  443+E66D
  444+E66D C9               ret
  445+E66E
  446+E66E              increment_score10000:
  447+E66E 3A 6C E7         ld a,(score_10000)
  448+E671 FE 09            cp 9
  449+E673 CA 85 E6         jp z,reset_score10000
  450+E676 3C               inc a
  451+E677 32 6C E7         ld (score_10000),a
  452+E67A 16 05            ld d,SCORE_Y
  453+E67C 1E 1A            ld e,SCORE_10000_X
  454+E67E 3A 6C E7         ld a,(score_10000)
  455+E681 CD 9A E4         call draw_digit
  456+E684 C9               ret
  457+E685
  458+E685              reset_score10000:
  459+E685 CD 97 E6         call increment_score100000
  460+E688 AF               xor a
  461+E689 32 6C E7         ld (score_10000),a
  462+E68C 16 05            ld d,SCORE_Y
  463+E68E 1E 1A            ld e,SCORE_10000_X
  464+E690 3A 6C E7         ld a,(score_10000)
  465+E693 CD 9A E4         call draw_digit
  466+E696 C9               ret
  467+E697
  468+E697              increment_score100000:
  469+E697 3A 6D E7         ld a,(score_100000)
  470+E69A FE 09            cp 9
  471+E69C C8               ret z
  472+E69D 3C               inc a
  473+E69E 32 6D E7         ld (score_100000),a
  474+E6A1 16 05            ld d,SCORE_Y
  475+E6A3 1E 19            ld e,SCORE_100000_X
  476+E6A5 3A 6D E7         ld a,(score_100000)
  477+E6A8 CD 9A E4         call draw_digit
  478+E6AB C9               ret
  479+E6AC
  480+E6AC
  481+E6AC
  482+E6AC
  483+E6AC              increment_smartbombs:
  484+E6AC 3A 60 E7         ld a,(cash_1000)
  485+E6AF FE 01            cp UI_SMART_BOMB_PRICE
  486+E6B1 DC 3C E7         call c,check_cash_10000
  487+E6B4 C8               ret z
  488+E6B5
  489+E6B5 3A 7B E7         ld a,(player_smartbombs)
  490+E6B8 FE 03            cp PLAYER_MAX_SMARTBOMBS
  491+E6BA C8               ret z
  492+E6BB 3C               inc a
  493+E6BC 32 7B E7         ld (player_smartbombs),a
  494+E6BF CD 8B E5         call decrement_cash1000
  495+E6C2
  496+E6C2 16 0B            ld d,UI_SMART_BOMBS_Y
  497+E6C4 1E 1D            ld e,UI_SMART_BOMBS_1_X
  498+E6C6 3A 7B E7         ld a,(player_smartbombs)
  499+E6C9 CD 9A E4         call draw_digit
  500+E6CC C9               ret
  501+E6CD
  502+E6CD              decrement_smartbombs:
  503+E6CD 3A 7B E7         ld a,(player_smartbombs)
  504+E6D0 FE 00            cp 0
  505+E6D2 C8               ret z
  506+E6D3 3D               dec a
  507+E6D4 32 7B E7         ld (player_smartbombs),a
  508+E6D7
  509+E6D7 16 0B            ld d,UI_SMART_BOMBS_Y
  510+E6D9 1E 1D            ld e,UI_SMART_BOMBS_1_X
  511+E6DB 3A 7B E7         ld a,(player_smartbombs)
  512+E6DE CD 9A E4         call draw_digit
  513+E6E1 C9               ret
  514+E6E2
  515+E6E2
  516+E6E2              increment_lives:
  517+E6E2 3A 60 E7         ld a,(cash_1000) ;todo change price
  518+E6E5 FE 01            cp UI_LIFE_PRICE
  519+E6E7 DC 3C E7         call c,check_cash_10000
  520+E6EA C8               ret z
  521+E6EB
  522+E6EB 3A 74 E7         ld a,(lives_1)
  523+E6EE FE 09            cp PLAYER_MAX_LIVES
  524+E6F0 C8               ret z
  525+E6F1 3C               inc a
  526+E6F2 32 74 E7         ld (lives_1),a
  527+E6F5 CD 8B E5         call decrement_cash1000
  528+E6F8
  529+E6F8 16 08            ld d,LIVES_Y
  530+E6FA 1E 1D            ld e,LIVES_1_X
  531+E6FC 3A 74 E7         ld a,(lives_1)
  532+E6FF CD 9A E4         call draw_digit
  533+E702 C9               ret
  534+E703
  535+E703              decrement_lives:
  536+E703 3A 74 E7         ld a,(lives_1)
  537+E706 FE 00            cp 0
  538+E708 C8               ret z
  539+E709
  540+E709 3A 74 E7         ld a,(lives_1)
  541+E70C 3D               dec a
  542+E70D 32 74 E7         ld (lives_1),a
  543+E710
  544+E710 16 08            ld d,LIVES_Y
  545+E712 1E 1D            ld e,LIVES_1_X
  546+E714 3A 74 E7         ld a,(lives_1)
  547+E717 CD 9A E4         call draw_digit
  548+E71A C9               ret
  549+E71B
  550+E71B              increment_shields:
  551+E71B 3A 60 E7         ld a,(cash_1000) ;todo change price
  552+E71E FE 01            cp UI_SHIELD_PRICE
  553+E720 DC 3C E7         call c,check_cash_10000
  554+E723 C8               ret z
  555+E724 3A 83 E7         ld a,(player_shields)
  556+E727 FE 03            cp PLAYER_MAX_SHEILDS
  557+E729 C8               ret z
  558+E72A 3C               inc a
  559+E72B 32 83 E7         ld (player_shields),a
  560+E72E CD 8B E5         call decrement_cash1000
  561+E731
  562+E731 16 0E            ld d,UI_SHIELD_Y
  563+E733 1E 1D            ld e,UI_SHIELD_1_X
  564+E735 3A 83 E7         ld a,(player_shields)
  565+E738 CD 9A E4         call draw_digit
  566+E73B C9               ret
  567+E73C
  568+E73C              check_cash_10000:
  569+E73C 3A 61 E7         ld a,(cash_10000)
  570+E73F FE 00            cp 0
  571+E741 C9               ret
  572+E742
  573+E742
  574+E742
  575+E742              decrement_shields:
  576+E742 3A 83 E7         ld a,(player_shields)
  577+E745 FE 00            cp 0
  578+E747 C8               ret z
  579+E748 3D               dec a
  580+E749 32 83 E7         ld (player_shields),a
  581+E74C
  582+E74C 16 0E            ld d,UI_SHIELD_Y
  583+E74E 1E 1D            ld e,UI_SHIELD_1_X
  584+E750 3A 83 E7         ld a,(player_shields)
  585+E753 CD 9A E4         call draw_digit
  586+E756 C9               ret
  587+E757
  588+E757              ;;;; DATA ;;;;;;;;;;
  589+E757
  590+E757
  591+E757
  592+E757 4D 4F 4E 45  cash_string db 'MONEY',0
  592+E75B 59 00
  593+E75D              CASH_LABEL_Y equ 1
  594+E75D              CASH_LABEL_X equ 25
  595+E75D              CASH_Y equ CASH_LABEL_Y+1
  596+E75D              CASH_1_X equ 29
  597+E75D              CASH_10_X equ 28
  598+E75D              CASH_100_X equ 27
  599+E75D              CASH_1000_X equ 26
  600+E75D              CASH_10000_X equ 25
  601+E75D
  602+E75D
  603+E75D 00           cash_1     db 0
  604+E75E 00           cash_10    db 0
  605+E75F 00           cash_100   db 0
  606+E760 00           cash_1000  db 0
  607+E761 00           cash_10000  db 0
  608+E762
  609+E762
  610+E762
  611+E762              SCORE_LABEL_Y equ 4
  612+E762              SCORE_LABEL_X equ 25
  613+E762              SCORE_Y equ SCORE_LABEL_Y+1
  614+E762
  615+E762
  616+E762              SCORE_1_X equ 30
  617+E762              SCORE_10_X equ 29
  618+E762              SCORE_100_X equ 28
  619+E762              SCORE_1000_X equ 27
  620+E762              SCORE_10000_X equ 26
  621+E762              SCORE_100000_X equ 25
  622+E762
  623+E762 53 43 4F 52  score_string db 'SCORE',0
  623+E766 45 00
  624+E768
  625+E768 00           score_1     db 0
  626+E769 00           score_10    db 0
  627+E76A 00           score_100   db 0
  628+E76B 00           score_1000  db 0
  629+E76C 00           score_10000  db 0
  630+E76D 00           score_100000  db 0
  631+E76E
  632+E76E
  633+E76E
  634+E76E
  635+E76E              LIVES_LABEL_Y equ 7
  636+E76E              LIVES_LABEL_X equ 25
  637+E76E              LIVES_Y equ LIVES_LABEL_Y+1
  638+E76E              LIVES_1_X equ 29
  639+E76E              UI_LIFE_PRICE equ 1 ;x1000
  640+E76E
  641+E76E 4C 49 56 45  lives_string db 'LIVES',0
  641+E772 53 00
  642+E774 05           lives_1 db 5
  643+E775
  644+E775
  645+E775
  646+E775              UI_SMART_BOMBS_LABEL_Y equ 10
  647+E775              UI_SMART_BOMBS_LABEL_X equ 25
  648+E775              UI_SMART_BOMBS_Y equ UI_SMART_BOMBS_LABEL_Y+1
  649+E775              UI_SMART_BOMBS_1_X equ 29
  650+E775 4E 55 4B 45  ui_smart_bombs_string db 'NUKES',0
  650+E779 53 00
  651+E77B              UI_SMART_BOMB_PRICE equ 1 ; x1000
  652+E77B 01           player_smartbombs db 1
  653+E77C              PLAYER_MAX_SMARTBOMBS equ 3
  654+E77C              PLAYER_MAX_LIVES equ 9
  655+E77C
  656+E77C
  657+E77C
  658+E77C 53 48 49 45  shield_string db 'SHIELD',0
  658+E780 4C 44 00
  659+E783              UI_SHIELD_LABEL_Y equ 13
  660+E783              UI_SHIELD_LABEL_X equ 25
  661+E783              UI_SHIELD_Y equ UI_SHIELD_LABEL_Y+1
  662+E783              UI_SHIELD_1_X equ 29
  663+E783              UI_SHIELD_PRICE equ 1 ;x1000
  664+E783 01           player_shields db 1
  665+E784              PLAYER_MAX_SHEILDS equ 3
  666+E784
  667+E784
  668+E784
  669+E784
  670+E784
  671+E784
  672+E784
  673+E784
  674+E784
  675+E784
  676+E784
  677+E784
  678+E784
  679+E784
  680+E784
  681+E784
  682+E784
  683+E784
  684+E784
  685+E784
  686+E784
  687+E784
  688+E784
  689+E784
  690+E784
  691+E784
  692+E784
  693+E784
  694+E784
  695+E784
  696+E784
  697+E784
# file closed: ui/ui.asm
   48 E784                  include 'player\player.asm'
# file opened: player/player.asm
    1+E784 00 1A        py dw 0x1A00
    2+E786 00 05        px dw 0x0500
    3+E788
    4+E788 00 00        vy dw 0x0000
    5+E78A 00 00        vx dw 0x0000
    6+E78C
    7+E78C 00 1A        ty dw 0x1A00
    8+E78E 00 05        tx dw 0x500
    9+E790
   10+E790
   11+E790
   12+E790
   13+E790              THRUST_FORCE equ -64 ;%1111111111000000
   14+E790              THRUST_MAX equ -8
   15+E790              THRUST_SIDE_FORCE equ 51
   16+E790              THRUST_SIDE_MAX equ 1
   17+E790              GRAVITY_MAX equ 8 ;upper byte
   18+E790              GRAVITY_FORCE equ 32; %0000000000011111
   19+E790
   20+E790
   21+E790
   22+E790
   23+E790
   24+E790 01           player_facing_right db TRUE
   25+E791
   26+E791 00           player_sprite_frame db 0
   27+E792              PLAYER_SPRITE_SIZE equ 3*8
   28+E792
   29+E792
   30+E792 00           player_collided_platform db FALSE
   31+E793
   32+E793
   33+E793
   34+E793              ; ASM data file from a ZX-Paintbrush picture with 24 x 8 pixels (= 3 x 1 characters)
   35+E793              ; line based output of pixel data:
   36+E793              playersprite_right:
   37+E793 1F 80 00         db %00011111, %10000000, %00000000
   38+E796 32 40 00         db %00110010, %01000000, %00000000
   39+E799 62 20 00         db %01100010, %00100000, %00000000
   40+E79C FF FE 00         db %11111111, %11111110, %00000000
   41+E79F FF FE 00         db %11111111, %11111110, %00000000
   42+E7A2 87 C2 00         db %10000111, %11000010, %00000000
   43+E7A5 B7 DA 00         db %10110111, %11011010, %00000000
   44+E7A8 30 18 00         db %00110000, %00011000, %00000000
   45+E7AB              ;
   46+E7AB 07 E0 00         db %00000111, %11100000, %00000000
   47+E7AE 0C 90 00         db %00001100, %10010000, %00000000
   48+E7B1 18 88 00         db %00011000, %10001000, %00000000
   49+E7B4 3F FF 80         db %00111111, %11111111, %10000000
   50+E7B7 3F FF 80         db %00111111, %11111111, %10000000
   51+E7BA 21 F0 80         db %00100001, %11110000, %10000000
   52+E7BD 2D F6 80         db %00101101, %11110110, %10000000
   53+E7C0 0C 06 00         db %00001100, %00000110, %00000000
   54+E7C3              ;
   55+E7C3 01 F8 00         db %00000001, %11111000, %00000000
   56+E7C6 03 24 00         db %00000011, %00100100, %00000000
   57+E7C9 06 22 00         db %00000110, %00100010, %00000000
   58+E7CC 0F FF E0         db %00001111, %11111111, %11100000
   59+E7CF 0F FF E0         db %00001111, %11111111, %11100000
   60+E7D2 08 7C 20         db %00001000, %01111100, %00100000
   61+E7D5 0B 7D A0         db %00001011, %01111101, %10100000
   62+E7D8 03 01 80         db %00000011, %00000001, %10000000
   63+E7DB              ;
   64+E7DB 00 7E 00         db %00000000, %01111110, %00000000
   65+E7DE 00 C9 00         db %00000000, %11001001, %00000000
   66+E7E1 01 88 80         db %00000001, %10001000, %10000000
   67+E7E4 03 FF F8         db %00000011, %11111111, %11111000
   68+E7E7 03 FF F8         db %00000011, %11111111, %11111000
   69+E7EA 02 1F 08         db %00000010, %00011111, %00001000
   70+E7ED 02 DF 68         db %00000010, %11011111, %01101000
   71+E7F0 00 C0 60         db %00000000, %11000000, %01100000
   72+E7F3              ;
   73+E7F3 00 1F 80         db %00000000, %00011111, %10000000
   74+E7F6 00 32 40         db %00000000, %00110010, %01000000
   75+E7F9 00 62 20         db %00000000, %01100010, %00100000
   76+E7FC 00 FF FE         db %00000000, %11111111, %11111110
   77+E7FF 00 FF FE         db %00000000, %11111111, %11111110
   78+E802 00 87 C2         db %00000000, %10000111, %11000010
   79+E805 00 B7 DA         db %00000000, %10110111, %11011010
   80+E808 00 30 18         db %00000000, %00110000, %00011000
   81+E80B              ;
   82+E80B              ;
   83+E80B              ;
   84+E80B              playersprite_left:
   85+E80B 00 01 F8         db %00000000, %00000001, %11111000
   86+E80E 00 02 4C         db %00000000, %00000010, %01001100
   87+E811 00 04 46         db %00000000, %00000100, %01000110
   88+E814 00 7F FF         db %00000000, %01111111, %11111111
   89+E817 00 7F FF         db %00000000, %01111111, %11111111
   90+E81A 00 43 E1         db %00000000, %01000011, %11100001
   91+E81D 00 5B ED         db %00000000, %01011011, %11101101
   92+E820 00 18 0C         db %00000000, %00011000, %00001100
   93+E823              ;
   94+E823 00 07 E0         db %00000000, %00000111, %11100000
   95+E826 00 09 30         db %00000000, %00001001, %00110000
   96+E829 00 11 18         db %00000000, %00010001, %00011000
   97+E82C 01 FF FC         db %00000001, %11111111, %11111100
   98+E82F 01 FF FC         db %00000001, %11111111, %11111100
   99+E832 01 0F 84         db %00000001, %00001111, %10000100
  100+E835 01 6F B4         db %00000001, %01101111, %10110100
  101+E838 00 60 30         db %00000000, %01100000, %00110000
  102+E83B              ;
  103+E83B 00 1F 80         db %00000000, %00011111, %10000000
  104+E83E 00 24 C0         db %00000000, %00100100, %11000000
  105+E841 00 44 60         db %00000000, %01000100, %01100000
  106+E844 07 FF F0         db %00000111, %11111111, %11110000
  107+E847 07 FF F0         db %00000111, %11111111, %11110000
  108+E84A 04 3E 10         db %00000100, %00111110, %00010000
  109+E84D 05 BE D0         db %00000101, %10111110, %11010000
  110+E850 01 80 C0         db %00000001, %10000000, %11000000
  111+E853              ;
  112+E853 00 7E 00         db %00000000, %01111110, %00000000
  113+E856 00 93 00         db %00000000, %10010011, %00000000
  114+E859 01 11 80         db %00000001, %00010001, %10000000
  115+E85C 1F FF C0         db %00011111, %11111111, %11000000
  116+E85F 1F FF C0         db %00011111, %11111111, %11000000
  117+E862 10 F8 40         db %00010000, %11111000, %01000000
  118+E865 16 FB 40         db %00010110, %11111011, %01000000
  119+E868 06 03 00         db %00000110, %00000011, %00000000
  120+E86B              ;
  121+E86B 01 F8 00         db %00000001, %11111000, %00000000
  122+E86E 02 4C 00         db %00000010, %01001100, %00000000
  123+E871 04 46 00         db %00000100, %01000110, %00000000
  124+E874 7F FF 00         db %01111111, %11111111, %00000000
  125+E877 7F FF 00         db %01111111, %11111111, %00000000
  126+E87A 43 E1 00         db %01000011, %11100001, %00000000
  127+E87D 5B ED 00         db %01011011, %11101101, %00000000
  128+E880 18 0C 00         db %00011000, %00001100, %00000000
  129+E883                  ;
  130+E883              ;
  131+E883              ;
  132+E883
  133+E883
  134+E883
  135+E883              player_update:
  136+E883 CD E0 BC         call check_keys
  137+E886
  138+E886 CD 65 E9         call plyr_apply_gravity
  139+E889                  ; call plyr_apply_drag ;sideways
  140+E889
  141+E889 3A D2 BC         ld a,(keypressed_W)
  142+E88C FE 01            cp TRUE
  143+E88E CC 78 E9         call z,plyr_apply_thrusters
  144+E891
  145+E891 3A D6 BC         ld a,(keypressed_D)
  146+E894 FE 01            cp TRUE
  147+E896 CC 8B E9         call z,plyr_apply_thrusters_r
  148+E899
  149+E899 3A D3 BC         ld a,(keypressed_A)
  150+E89C FE 01            cp TRUE
  151+E89E CC A3 E9         call z,plyr_apply_thrusters_l
  152+E8A1
  153+E8A1 CD B4 E8         call set_target_pos
  154+E8A4
  155+E8A4 DD 21 20 EA      ld ix,platforms
  156+E8A8 CD BB E9         call plyr_check_collision_platform
  157+E8AB
  158+E8AB 3A 92 E7         ld a,(player_collided_platform)
  159+E8AE FE 00            cp FALSE
  160+E8B0 CC DC E8         call z,do_move
  161+E8B3
  162+E8B3
  163+E8B3
  164+E8B3 C9               ret
  165+E8B4
  166+E8B4              set_target_pos:
  167+E8B4 2A 86 E7         ld hl,(px)
  168+E8B7 22 8E E7         ld (tx),hl
  169+E8BA 2A 84 E7         ld hl,(py)
  170+E8BD 22 84 E7         ld (py),hl
  171+E8C0
  172+E8C0 2A 8E E7         ld hl,(tx)
  173+E8C3 ED 5B 8A E7      ld de,(vx)
  174+E8C7 19               add hl,de
  175+E8C8 22 8E E7         ld (tx),hl
  176+E8CB
  177+E8CB 21 8C E7         ld hl,ty
  178+E8CE 23               inc hl
  179+E8CF 56               ld d,(hl)
  180+E8D0 21 88 E7         ld hl,vy
  181+E8D3 23               inc hl
  182+E8D4 7E               ld a,(hl)
  183+E8D5 82               add a,d
  184+E8D6 21 8C E7         ld hl,ty
  185+E8D9 23               inc hl
  186+E8DA 77               ld (hl),a
  187+E8DB C9               ret
  188+E8DC
  189+E8DC
  190+E8DC              do_move:
  191+E8DC 2A 8E E7         ld hl,(tx)
  192+E8DF 22 86 E7         ld (px),hl
  193+E8E2
  194+E8E2 2A 8C E7         ld hl,(ty)
  195+E8E5 22 84 E7         ld (py),hl
  196+E8E8 C9               ret
  197+E8E9
  198+E8E9
  199+E8E9              ; move_player:
  200+E8E9              ;     ld hl,(px)
  201+E8E9              ;     ld de,(vx)
  202+E8E9              ;     add hl,de
  203+E8E9              ;     ld (px),hl
  204+E8E9
  205+E8E9
  206+E8E9
  207+E8E9              ;     ld hl,py
  208+E8E9              ;     inc hl
  209+E8E9              ;     ld d,(hl)
  210+E8E9              ;     ld hl,vy
  211+E8E9              ;     inc hl
  212+E8E9              ;     ld a,(hl)
  213+E8E9              ;     add a,d
  214+E8E9              ;     ld hl,py
  215+E8E9              ;     inc hl
  216+E8E9              ;     ld (hl),a
  217+E8E9              ;     ret
  218+E8E9              player_draw:
  219+E8E9 21 86 E7         ld hl,px
  220+E8EC 23               inc hl
  221+E8ED 56               ld d,(hl)
  222+E8EE 21 84 E7         ld hl,py
  223+E8F1 23               inc hl
  224+E8F2 5E               ld e,(hl)
  225+E8F3
  226+E8F3 3A 90 E7         ld a,(player_facing_right)
  227+E8F6 FE 01            cp TRUE
  228+E8F8 CA 20 E9         jp z, p_dodraw_r
  229+E8FB
  230+E8FB              p_dodraw_l:
  231+E8FB 21 86 E7         ld hl,px
  232+E8FE 7E               ld a,(hl)
  233+E8FF 01 6B E8         ld bc,playersprite_left+(PLAYER_SPRITE_SIZE*4)
  234+E902 FE 33            cp THRUST_SIDE_FORCE*1
  235+E904 F5               push af
  236+E905 D4 45 E9         call nc,setplyrsprite_l2
  237+E908 F1               pop af
  238+E909 FE 66            cp THRUST_SIDE_FORCE*2
  239+E90B F5               push af
  240+E90C D4 49 E9         call nc,setplyrsprite_l3
  241+E90F F1               pop af
  242+E910 FE 99            cp THRUST_SIDE_FORCE*3
  243+E912 F5               push af
  244+E913 D4 4D E9         call nc,setplyrsprite_l4
  245+E916 F1               pop af
  246+E917 FE CC            cp THRUST_SIDE_FORCE*4
  247+E919 D4 51 E9         call nc,setplyrsprite_l5
  248+E91C
  249+E91C CD 0A CA         call drawsprite24_8
  250+E91F C9               ret
  251+E920              p_dodraw_r:
  252+E920 21 86 E7         ld hl,px
  253+E923 7E               ld a,(hl)
  254+E924 01 93 E7         ld bc,playersprite_right
  255+E927 FE 33            cp THRUST_SIDE_FORCE*1
  256+E929 F5               push af
  257+E92A D4 55 E9         call nc,setplyrsprite_r2
  258+E92D F1               pop af
  259+E92E FE 66            cp THRUST_SIDE_FORCE*2
  260+E930 F5               push af
  261+E931 D4 59 E9         call nc,setplyrsprite_r3
  262+E934 F1               pop af
  263+E935 FE 99            cp THRUST_SIDE_FORCE*3
  264+E937 F5               push af
  265+E938 D4 5D E9         call nc,setplyrsprite_r4
  266+E93B F1               pop af
  267+E93C FE CC            cp THRUST_SIDE_FORCE*4
  268+E93E D4 61 E9         call nc,setplyrsprite_r5
  269+E941
  270+E941 CD 0A CA         call drawsprite24_8
  271+E944 C9               ret
  272+E945              ;
  273+E945
  274+E945              setplyrsprite_l2:
  275+E945 01 53 E8         ld bc,playersprite_left+(PLAYER_SPRITE_SIZE*3)
  276+E948 C9               ret
  277+E949
  278+E949              setplyrsprite_l3:
  279+E949 01 3B E8         ld bc,playersprite_left+(PLAYER_SPRITE_SIZE*2)
  280+E94C C9               ret
  281+E94D              setplyrsprite_l4:
  282+E94D 01 23 E8         ld bc,playersprite_left+(PLAYER_SPRITE_SIZE*1)
  283+E950 C9               ret
  284+E951              setplyrsprite_l5:
  285+E951 01 0B E8         ld bc,playersprite_left
  286+E954 C9               ret
  287+E955
  288+E955              setplyrsprite_r2:
  289+E955 01 AB E7         ld bc,playersprite_right+PLAYER_SPRITE_SIZE
  290+E958 C9               ret
  291+E959
  292+E959              setplyrsprite_r3:
  293+E959 01 C3 E7         ld bc,playersprite_right+(PLAYER_SPRITE_SIZE*2)
  294+E95C C9               ret
  295+E95D              setplyrsprite_r4:
  296+E95D 01 DB E7         ld bc,playersprite_right+(PLAYER_SPRITE_SIZE*3)
  297+E960 C9               ret
  298+E961              setplyrsprite_r5:
  299+E961 01 F3 E7         ld bc,playersprite_right+(PLAYER_SPRITE_SIZE*4)
  300+E964 C9               ret
  301+E965
  302+E965
  303+E965
  304+E965              plyr_apply_gravity:
  305+E965 21 88 E7         ld hl,vy
  306+E968 23               inc hl
  307+E969 7E               ld a,(hl)
  308+E96A FE 08            cp GRAVITY_MAX
  309+E96C C8               ret z
  310+E96D
  311+E96D 2A 88 E7         ld hl,(vy)
  312+E970 11 20 00         ld de,GRAVITY_FORCE
  313+E973 19               add hl,de
  314+E974 22 88 E7         ld (vy),hl
  315+E977 C9               ret
  316+E978              ;
  317+E978
  318+E978
  319+E978              ; Unsigned
  320+E978
  321+E978              ; If A == N, then Z flag is set.
  322+E978              ; If A != N, then Z flag is reset.
  323+E978              ; If A < N, then C flag is set.
  324+E978              ; If A >= N, then C flag is reset.
  325+E978
  326+E978              ; Signed
  327+E978
  328+E978              ; If A == N, then Z flag is set.
  329+E978              ; If A != N, then Z flag is reset.
  330+E978              ; If A < N, then S and P/V are different.
  331+E978              ; A >= N, then S and P/V are the same.
  332+E978
  333+E978              plyr_apply_thrusters:
  334+E978 21 88 E7         ld hl,vy
  335+E97B 23               inc hl
  336+E97C 7E               ld a,(hl)
  337+E97D FE F8            cp THRUST_MAX
  338+E97F C8               ret z
  339+E980
  340+E980 2A 88 E7         ld hl,(vy)
  341+E983 11 C0 FF         ld de,THRUST_FORCE
  342+E986 19               add hl,de
  343+E987 22 88 E7         ld (vy),hl
  344+E98A C9               ret
  345+E98B
  346+E98B              plyr_apply_thrusters_r:
  347+E98B 3E 01            ld a,TRUE
  348+E98D 32 90 E7         ld (player_facing_right),a
  349+E990 21 8A E7         ld hl,vx
  350+E993 23               inc hl
  351+E994 7E               ld a,(hl)
  352+E995 FE 01            cp THRUST_SIDE_MAX
  353+E997 C8               ret z
  354+E998
  355+E998 2A 8A E7         ld hl,(vx)
  356+E99B 11 33 00         ld de,THRUST_SIDE_FORCE
  357+E99E 19               add hl,de
  358+E99F 22 8A E7         ld (vx),hl
  359+E9A2 C9               ret
  360+E9A3              plyr_apply_thrusters_l:
  361+E9A3 3E 00            ld a,FALSE
  362+E9A5 32 90 E7         ld (player_facing_right),a
  363+E9A8
  364+E9A8 21 8A E7         ld hl,vx
  365+E9AB 23               inc hl
  366+E9AC 7E               ld a,(hl)
  367+E9AD FE FE            cp -THRUST_SIDE_MAX*2 ;for some reason needed to double this
  368+E9AF C8               ret z
  369+E9B0
  370+E9B0 2A 8A E7         ld hl,(vx)
  371+E9B3 11 CD FF         ld de,-THRUST_SIDE_FORCE
  372+E9B6 19               add hl,de
  373+E9B7 22 8A E7         ld (vx),hl
  374+E9BA C9               ret
  375+E9BB
  376+E9BB
  377+E9BB
  378+E9BB
  379+E9BB              ;Collision prevention, checks the next position will result in collision or not
  380+E9BB              ;IX=platforms
  381+E9BB              plyr_check_collision_platform:
  382+E9BB 3E 00            ld a,FALSE
  383+E9BD 32 92 E7         ld (player_collided_platform),a
  384+E9C0
  385+E9C0 DD 7E 00         ld a,(ix)
  386+E9C3 FE FF            cp 255
  387+E9C5 C8               ret z
  388+E9C6
  389+E9C6 21 8E E7         ld hl,tx
  390+E9C9 23               inc hl
  391+E9CA 7E               ld a,(hl)
  392+E9CB 47               ld b,a
  393+E9CC DD 7E 01         ld a,(ix+1)
  394+E9CF DD 86 03         add a,(ix+3)
  395+E9D2 B8               cp b
  396+E9D3 DA 10 EA         jp c, p_coll_platform_gonext
  397+E9D6
  398+E9D6 DD 7E 01         ld a,(ix+1)
  399+E9D9 47               ld b,a
  400+E9DA 21 8E E7         ld hl,tx
  401+E9DD 23               inc hl
  402+E9DE 7E               ld a,(hl)
  403+E9DF C6 03            add a,3 ;pw
  404+E9E1 B8               cp b
  405+E9E2 DA 10 EA         jp c, p_coll_platform_gonext
  406+E9E5
  407+E9E5 21 8C E7         ld hl,ty
  408+E9E8 23               inc hl
  409+E9E9 7E               ld a,(hl)
  410+E9EA 47               ld b,a
  411+E9EB DD 7E 02         ld a,(ix+2)
  412+E9EE DD 86 04         add a,(ix+4)
  413+E9F1 B8               cp b
  414+E9F2 DA 10 EA         jp c, p_coll_platform_gonext
  415+E9F5
  416+E9F5 DD 7E 02         ld a,(ix+2)
  417+E9F8 47               ld b,a
  418+E9F9 21 8C E7         ld hl,ty
  419+E9FC 23               inc hl
  420+E9FD 7E               ld a,(hl)
  421+E9FE C6 08            add a,8 ;ph
  422+EA00 B8               cp b
  423+EA01 DA 10 EA         jp c, p_coll_platform_gonext
  424+EA04
  425+EA04                  ; collision...
  426+EA04
  427+EA04 3E 01            ld a,TRUE
  428+EA06 32 92 E7         ld (player_collided_platform),a
  429+EA09
  430+EA09 21 00 00         ld hl,0
  431+EA0C 22 88 E7         ld (vy),hl
  432+EA0F C9               ret
  433+EA10
  434+EA10              p_coll_platform_gonext:
  435+EA10 11 05 00         ld de,PLATFORM_DATA_LENGTH
  436+EA13 DD 19            add ix,de
  437+EA15 C3 BB E9         jp plyr_check_collision_platform
  438+EA18
  439+EA18
  440+EA18
# file closed: player/player.asm
   49 EA18                  include 'objects\platforms.asm'
# file opened: objects/platforms.asm
    1+EA18              platformsprite:
    2+EA18 FF               db 255
    3+EA19 FF               db 255
    4+EA1A FF               db 255
    5+EA1B FF               db 255
    6+EA1C FF               db 255
    7+EA1D FF               db 255
    8+EA1E FF               db 255
    9+EA1F FF               db 255
   10+EA20              ;
   11+EA20
   12+EA20              platforms:
   13+EA20 01 0E 5A 0A      db TRUE,14,90,10,16
   13+EA24 10
   14+EA25 01 02 AA 0A      db TRUE,2,170,10,16
   14+EA29 10
   15+EA2A FF               db 255
   16+EA2B
   17+EA2B              PLATFORM_DATA_LENGTH equ 5
   18+EA2B
   19+EA2B              platform_init:
   20+EA2B
   21+EA2B C9               ret
   22+EA2C
   23+EA2C
   24+EA2C
   25+EA2C              platform_draw:
   26+EA2C C9               ret
# file closed: objects/platforms.asm
   50 EA2D
   51 EA2D
   52 EA2D              STACK_SIZE: equ 10    ; in words
   53 EA2D              stack_bottom:
   54 EA2D 00 00 00...      defs    STACK_SIZE*2, 0
   55 EA41 00           stack_top:  defb 0  ; WPMEM
   56 EA42
   57 EA42
   58 EA42              program_end:
   59 EA42 CD F8 BD         call sound_A_0_25
   60 EA45 CD 02 BE         call sound_B_0_25
   61 EA48 CD EE BD         call sound_GSharp_0_25
   62 EA4B CD 02 BE         call sound_B_0_25
   63 EA4E CD F8 BD         call sound_A_0_25
   64 EA51
   65 EA51
   66 EA51
   67 EA51
   68 EA51
   69 EA51
   70 EA51
   71 EA51
   72 EA51                  SAVESNA "main.sna", program_start
# file closed: main.asm

Value    Label
------ - -----------------------------------------------------------
0x9800 X program_start
0x0001   GAME_BORDER_COLOUR
0x9808 X begin_game
0x980B   main
0x9814   main_update
0x9818   main_draw
0xE883   player_update
0x9BA5   cleargamewindow
0xE8E9   player_draw
0x9BB7   drawgamewindow
0x9822   GetCharAddr
0x9831   PrintChar
0x985D   PrintStr
0x985E   bazproc.bazproc.loop
0x9871   bazproc.bazproc.NotAt
0x98A0   rand
0x0000 X COLOUR_BLACK
0x0001 X COLOUR_BLUE
0x0002 X COLOUR_RED
0x0003 X COLOUR_MAGENTA
0x0004 X COLOUR_GREEN
0x0005 X COLOUR_CYAN
0x0006 X COLOUR_YELLOW
0x0007 X COLOUR_WHITE
0x0002 X BLACK_INK
0x0001 X BLUE_INK
0x0006 X YELLOW_INK
0x0000 X BLACK_PAPER
0x0008 X BLUE_PAPER
0x0030 X YELLOW_PAPER
0x5800   ATTRIBUTE_MEMORY_START
0x005B   ATTRIBUTE_MEMORY_END_UB
0x0300 X ATTRIBUTE_MEMORY_LENGTH
0x98BC   paint_base_attributes
0x98C5 X paint_sprite_1_1
0x0002   BUFFER_SIDE_EXTRA
0x001C   BUFFER_WINDOW_WIDTH
0x98F0   paint_line
0x98F8   do_paint
0x990A X paint_sprite_1_2
0x9945 X paint_sprite_2_1
0x9974 X paint_sprite_2_2
0x99B9 X paint_sprite_4_2
0x99F9 X paint_sprite_2_3
0x9A49 X paint_sprite_2_4
0x9AB4 X paint_sprite_2_5
0x9B14 X paint_sprite_6_3
0x0030   ASCII_ZERO
0x0020 X ASCII_SPACE
0x0010 X ASCII_INK
0x0011 X ASCII_PAPER
0x0016 X ASCII_AT
0x00D2 X ASCII_ERASE
0x0008 X PIXELS_PER_CELL
0x0001   TRUE
0x0000   FALSE
0x0080 X FIFTY50
0x0002 X MIN_X
0x0018 X MAX_X
0x0004 X MIN_Y
0x00A1 X MAX_Y
0x0000 X UP
0x0001 X DOWN
0x0002 X LEFT
0x0003 X RIGHT
0x0004 X DIAG_LEFT
0x0005 X DIAG_RIGHT
0x0000 X DEAD
0x0001 X ALIVE
0x0000 X TOP
0x0001 X BOTTOM
0x8000   GAME_WINDOW_START
0x1500   GAME_WINDOW_LENGTH
0x0095 X GAME_WINDOW_END_UB
0x0018   GAME_WINDOW_WIDTH
0x0018 X GAME_WINDOW_HEIGHT
0x000E   BUFFER_MIDDLE
0x000C   BUFFER_CHUNK_LENGTH
0x0700   SEG_SIZE
0x4000   VMEM_SEG_0
0x4800   VMEM_SEG_1
0x5000   VMEM_SEG_2
0x0020 X SCREEN_WIDTH
0x4000 X VMEM_START
0x0058 X VMEM_END_UB
0x0100   L1
0x0200   L2
0x0300   L3
0x0400   L4
0x0500   L5
0x0600   L6
0x0700   L7
0x0020   C1
0x0040   C2
0x0060   C3
0x0080   C4
0x00A0   C5
0x00C0   C6
0x00E0   C7
0x9BA3   stack_ptr
0x9BAC   clr_window
0xBCD2   keypressed_W
0xBCD3   keypressed_A
0xBCD4   keypressed_A_Held
0xBCD5   keypressed_S
0xBCD6   keypressed_D
0xBCD7   keypressed_F
0xBCD8   keypressed_F_Held
0xBCD9   keypressed_I
0xBCDA   keypressed_Q
0xBCDB   keypressed_Q_Held
0xBCDC   keypressed_O
0xBCDD   keypressed_P
0xBCDE   keypressed_Space
0xBCDF   keypressed_Space_Held
0xBCE0   check_keys
0xBDA5   set_F_Held
0xBDAB   reset_F_Held
0xBD88   set_A_Held
0xBD8E   reset_A_Held
0xBDBC   set_Q_Held
0xBDC2   reset_Q_Held
0xBDD9   set_Space_Held
0xBDDF   reset_Space_Held
0xBD82   set_A
0xBD93   set_S
0xBD99   set_D
0xBD9F   set_F
0xBDB6   set_Q
0xBD7C   set_W
0xBDCD   set_P
0xBDC7   set_O
0xBDB0   set_I
0xBDD3   set_Space
0xBDE4 X sound_GSharp_0_05
0xBDEE   sound_GSharp_0_25
0xBDF8   sound_A_0_25
0xBE02   sound_B_0_25
0xBE0C X drawstarsprite
0xBE2C X drawsprite8_2
0xBE55 X drawplayer16_24
0xBFD9 X drawsprite8_8
0xC038 X drawsprite8_8_shiftleft1
0xC0A7 X drawsprite8_16
0xC14E X drawsprite16_8
0xC1DD X drawsprite16_16
0xC2E4 X drawsprite16_24
0xC468 X drawsprite16_32
0xC664 X drawsprite32_16
0xC82B X drawsprite32_24
0xCA0A   drawsprite24_8
0xCA8A X drawsprite24_64
0xCE61 X drawsprite16_128
0xD3F8 X drawsprite48_24
0xD7B7 X drawsprite40_8
0xD886 X drawsprite48_32
0xDBFD X drawsprite72_48
0x0054   UI_COLOURS
0xE364 X ui_init
0xE373   init_ui_labels
0xE3B8   refresh_ui_numbers
0x0001   CASH_LABEL_Y
0x0019   CASH_LABEL_X
0xE757   cash_string
0x0004   SCORE_LABEL_Y
0x0019   SCORE_LABEL_X
0xE762   score_string
0x0007   LIVES_LABEL_Y
0x0019   LIVES_LABEL_X
0xE76E   lives_string
0x000A   UI_SMART_BOMBS_LABEL_Y
0x0019   UI_SMART_BOMBS_LABEL_X
0xE775   ui_smart_bombs_string
0x000D   UI_SHIELD_LABEL_Y
0x0019   UI_SHIELD_LABEL_X
0xE77C   shield_string
0x0002   CASH_Y
0x0019   CASH_10000_X
0xE761   cash_10000
0x001A   CASH_1000_X
0xE760   cash_1000
0x001B   CASH_100_X
0xE75F   cash_100
0x001C   CASH_10_X
0xE75E   cash_10
0x001D   CASH_1_X
0xE75D   cash_1
0x0005   SCORE_Y
0x0019   SCORE_100000_X
0xE76D   score_100000
0x001A   SCORE_10000_X
0xE76C   score_10000
0x001B   SCORE_1000_X
0xE76B   score_1000
0x001C   SCORE_100_X
0xE76A   score_100
0x001D   SCORE_10_X
0xE769   score_10
0x001E   SCORE_1_X
0xE768   score_1
0x0008   LIVES_Y
0x001D   LIVES_1_X
0xE774   lives_1
0x000B   UI_SMART_BOMBS_Y
0x001D   UI_SMART_BOMBS_1_X
0xE77B   player_smartbombs
0x000E   UI_SHIELD_Y
0x001D   UI_SHIELD_1_X
0xE783   player_shields
0xE49A   draw_digit
0xE4A8 X increment_cash1
0xE4BF   reset_cash_1
0xE4D1   increment_cash10
0xE4E8   reset_cash10
0xE4FA   increment_cash100
0xE511   reset_cash100
0xE523   increment_cash1000
0xE53A   reset_cash1000
0xE54C   increment_cash10000
0xE561 X decrement_cash100
0xE578   dec_reset_cash100
0xE58B   decrement_cash1000
0xE5A2   dec_reset_cash1000
0xE5B5   decrement_cash10000
0xE5CA X increment_score1
0xE5E1   reset_score_1
0xE5F3   increment_score10
0xE60A   reset_score10
0xE61C   increment_score100
0xE633   reset_score100
0xE645   increment_score1000
0xE65C   reset_score1000
0xE66E   increment_score10000
0xE685   reset_score10000
0xE697   increment_score100000
0xE6AC X increment_smartbombs
0x0001   UI_SMART_BOMB_PRICE
0xE73C   check_cash_10000
0x0003   PLAYER_MAX_SMARTBOMBS
0xE6CD X decrement_smartbombs
0xE6E2 X increment_lives
0x0001   UI_LIFE_PRICE
0x0009   PLAYER_MAX_LIVES
0xE703 X decrement_lives
0xE71B X increment_shields
0x0001   UI_SHIELD_PRICE
0x0003   PLAYER_MAX_SHEILDS
0xE742 X decrement_shields
0xE784   py
0xE786   px
0xE788   vy
0xE78A   vx
0xE78C   ty
0xE78E   tx
0xFFFFFFC0   THRUST_FORCE
0xFFFFFFF8   THRUST_MAX
0x0033   THRUST_SIDE_FORCE
0x0001   THRUST_SIDE_MAX
0x0008   GRAVITY_MAX
0x0020   GRAVITY_FORCE
0xE790   player_facing_right
0xE791 X player_sprite_frame
0x0018   PLAYER_SPRITE_SIZE
0xE792   player_collided_platform
0xE793   playersprite_right
0xE80B   playersprite_left
0xE965   plyr_apply_gravity
0xE978   plyr_apply_thrusters
0xE98B   plyr_apply_thrusters_r
0xE9A3   plyr_apply_thrusters_l
0xE8B4   set_target_pos
0xEA20   platforms
0xE9BB   plyr_check_collision_platform
0xE8DC   do_move
0xE920   p_dodraw_r
0xE8FB X p_dodraw_l
0xE945   setplyrsprite_l2
0xE949   setplyrsprite_l3
0xE94D   setplyrsprite_l4
0xE951   setplyrsprite_l5
0xE955   setplyrsprite_r2
0xE959   setplyrsprite_r3
0xE95D   setplyrsprite_r4
0xE961   setplyrsprite_r5
0xEA10   p_coll_platform_gonext
0x0005   PLATFORM_DATA_LENGTH
0xEA18 X platformsprite
0xEA2B X platform_init
0xEA2C X platform_draw
0x000A   STACK_SIZE
0xEA2D X stack_bottom
0xEA41 X stack_top
0xEA42 X program_end
